
IESM-XMEGA32A4U--GeyserMonitorLite.elf:     file format elf32-avr

Sections:
Idx Name          Size      VMA       LMA       File off  Algn
  0 .text         000066ba  00000000  00000000  00000094  2**1
                  CONTENTS, ALLOC, LOAD, READONLY, CODE
  1 .data         000003a4  00802000  000066ba  0000674e  2**0
                  CONTENTS, ALLOC, LOAD, DATA
  2 .bss          000009f1  008023a4  008023a4  00006af2  2**0
                  ALLOC
  3 .stab         00001698  00000000  00000000  00006af4  2**2
                  CONTENTS, READONLY, DEBUGGING
  4 .stabstr      0000072d  00000000  00000000  0000818c  2**0
                  CONTENTS, READONLY, DEBUGGING
  5 .comment      0000002f  00000000  00000000  000088b9  2**0
                  CONTENTS, READONLY
  6 .debug_aranges 00000080  00000000  00000000  000088e8  2**3
                  CONTENTS, READONLY, DEBUGGING
  7 .debug_info   000002ae  00000000  00000000  00008968  2**0
                  CONTENTS, READONLY, DEBUGGING
  8 .debug_abbrev 00000109  00000000  00000000  00008c16  2**0
                  CONTENTS, READONLY, DEBUGGING
  9 .debug_line   0000037a  00000000  00000000  00008d1f  2**0
                  CONTENTS, READONLY, DEBUGGING
 10 .debug_frame  00000048  00000000  00000000  0000909c  2**2
                  CONTENTS, READONLY, DEBUGGING
 11 .debug_str    00000130  00000000  00000000  000090e4  2**0
                  CONTENTS, READONLY, DEBUGGING
 12 .debug_loc    000002fd  00000000  00000000  00009214  2**0
                  CONTENTS, READONLY, DEBUGGING
 13 .debug_ranges 00000030  00000000  00000000  00009518  2**3
                  CONTENTS, READONLY, DEBUGGING

Disassembly of section .text:

00000000 <__vectors>:
       0:	fd c0       	rjmp	.+506    	; 0x1fc <__ctors_end>
       2:	00 00       	nop
       4:	18 c1       	rjmp	.+560    	; 0x236 <__bad_interrupt>
       6:	00 00       	nop
       8:	0c 94 f3 27 	jmp	0x4fe6	; 0x4fe6 <__vector_2>
       c:	14 c1       	rjmp	.+552    	; 0x236 <__bad_interrupt>
       e:	00 00       	nop
      10:	12 c1       	rjmp	.+548    	; 0x236 <__bad_interrupt>
      12:	00 00       	nop
      14:	10 c1       	rjmp	.+544    	; 0x236 <__bad_interrupt>
      16:	00 00       	nop
      18:	0e c1       	rjmp	.+540    	; 0x236 <__bad_interrupt>
      1a:	00 00       	nop
      1c:	0c c1       	rjmp	.+536    	; 0x236 <__bad_interrupt>
      1e:	00 00       	nop
      20:	0a c1       	rjmp	.+532    	; 0x236 <__bad_interrupt>
      22:	00 00       	nop
      24:	08 c1       	rjmp	.+528    	; 0x236 <__bad_interrupt>
      26:	00 00       	nop
      28:	0c 94 22 13 	jmp	0x2644	; 0x2644 <__vector_10>
      2c:	0c 94 3b 13 	jmp	0x2676	; 0x2676 <__vector_11>
      30:	02 c1       	rjmp	.+516    	; 0x236 <__bad_interrupt>
      32:	00 00       	nop
      34:	0c 94 ce 18 	jmp	0x319c	; 0x319c <__vector_13>
      38:	0c 94 a7 13 	jmp	0x274e	; 0x274e <__vector_14>
      3c:	0c 94 d0 13 	jmp	0x27a0	; 0x27a0 <__vector_15>
      40:	0c 94 f9 13 	jmp	0x27f2	; 0x27f2 <__vector_16>
      44:	0c 94 22 14 	jmp	0x2844	; 0x2844 <__vector_17>
      48:	0c 94 4b 14 	jmp	0x2896	; 0x2896 <__vector_18>
      4c:	0c 94 74 14 	jmp	0x28e8	; 0x28e8 <__vector_19>
      50:	0c 94 9d 14 	jmp	0x293a	; 0x293a <__vector_20>
      54:	0c 94 c6 14 	jmp	0x298c	; 0x298c <__vector_21>
      58:	0c 94 ef 14 	jmp	0x29de	; 0x29de <__vector_22>
      5c:	0c 94 18 15 	jmp	0x2a30	; 0x2a30 <__vector_23>
      60:	ea c0       	rjmp	.+468    	; 0x236 <__bad_interrupt>
      62:	00 00       	nop
      64:	e8 c0       	rjmp	.+464    	; 0x236 <__bad_interrupt>
      66:	00 00       	nop
      68:	e6 c0       	rjmp	.+460    	; 0x236 <__bad_interrupt>
      6a:	00 00       	nop
      6c:	e4 c0       	rjmp	.+456    	; 0x236 <__bad_interrupt>
      6e:	00 00       	nop
      70:	0c 94 f0 0e 	jmp	0x1de0	; 0x1de0 <__vector_28>
      74:	0c 94 20 0f 	jmp	0x1e40	; 0x1e40 <__vector_29>
      78:	0c 94 16 0f 	jmp	0x1e2c	; 0x1e2c <__vector_30>
      7c:	dc c0       	rjmp	.+440    	; 0x236 <__bad_interrupt>
      7e:	00 00       	nop
      80:	da c0       	rjmp	.+436    	; 0x236 <__bad_interrupt>
      82:	00 00       	nop
      84:	d8 c0       	rjmp	.+432    	; 0x236 <__bad_interrupt>
      86:	00 00       	nop
      88:	0c 94 07 28 	jmp	0x500e	; 0x500e <__vector_34>
      8c:	d4 c0       	rjmp	.+424    	; 0x236 <__bad_interrupt>
      8e:	00 00       	nop
      90:	d2 c0       	rjmp	.+420    	; 0x236 <__bad_interrupt>
      92:	00 00       	nop
      94:	d0 c0       	rjmp	.+416    	; 0x236 <__bad_interrupt>
      96:	00 00       	nop
      98:	ce c0       	rjmp	.+412    	; 0x236 <__bad_interrupt>
      9a:	00 00       	nop
      9c:	cc c0       	rjmp	.+408    	; 0x236 <__bad_interrupt>
      9e:	00 00       	nop
      a0:	ca c0       	rjmp	.+404    	; 0x236 <__bad_interrupt>
      a2:	00 00       	nop
      a4:	c8 c0       	rjmp	.+400    	; 0x236 <__bad_interrupt>
      a6:	00 00       	nop
      a8:	c6 c0       	rjmp	.+396    	; 0x236 <__bad_interrupt>
      aa:	00 00       	nop
      ac:	c4 c0       	rjmp	.+392    	; 0x236 <__bad_interrupt>
      ae:	00 00       	nop
      b0:	c2 c0       	rjmp	.+388    	; 0x236 <__bad_interrupt>
      b2:	00 00       	nop
      b4:	c0 c0       	rjmp	.+384    	; 0x236 <__bad_interrupt>
      b6:	00 00       	nop
      b8:	0c 94 f1 18 	jmp	0x31e2	; 0x31e2 <__vector_46>
      bc:	0c 94 db 16 	jmp	0x2db6	; 0x2db6 <__vector_47>
      c0:	0c 94 04 17 	jmp	0x2e08	; 0x2e08 <__vector_48>
      c4:	0c 94 2d 17 	jmp	0x2e5a	; 0x2e5a <__vector_49>
      c8:	0c 94 56 17 	jmp	0x2eac	; 0x2eac <__vector_50>
      cc:	0c 94 7f 17 	jmp	0x2efe	; 0x2efe <__vector_51>
      d0:	0c 94 a8 17 	jmp	0x2f50	; 0x2f50 <__vector_52>
      d4:	b0 c0       	rjmp	.+352    	; 0x236 <__bad_interrupt>
      d6:	00 00       	nop
      d8:	ae c0       	rjmp	.+348    	; 0x236 <__bad_interrupt>
      da:	00 00       	nop
      dc:	ac c0       	rjmp	.+344    	; 0x236 <__bad_interrupt>
      de:	00 00       	nop
      e0:	aa c0       	rjmp	.+340    	; 0x236 <__bad_interrupt>
      e2:	00 00       	nop
      e4:	a8 c0       	rjmp	.+336    	; 0x236 <__bad_interrupt>
      e6:	00 00       	nop
      e8:	0c 94 b0 0f 	jmp	0x1f60	; 0x1f60 <__vector_58>
      ec:	0c 94 e0 0f 	jmp	0x1fc0	; 0x1fc0 <__vector_59>
      f0:	0c 94 d6 0f 	jmp	0x1fac	; 0x1fac <__vector_60>
      f4:	a0 c0       	rjmp	.+320    	; 0x236 <__bad_interrupt>
      f6:	00 00       	nop
      f8:	9e c0       	rjmp	.+316    	; 0x236 <__bad_interrupt>
      fa:	00 00       	nop
      fc:	9c c0       	rjmp	.+312    	; 0x236 <__bad_interrupt>
      fe:	00 00       	nop
     100:	0c 94 df 27 	jmp	0x4fbe	; 0x4fbe <__vector_64>
     104:	98 c0       	rjmp	.+304    	; 0x236 <__bad_interrupt>
     106:	00 00       	nop
     108:	0c 94 1b 28 	jmp	0x5036	; 0x5036 <__vector_66>
     10c:	94 c0       	rjmp	.+296    	; 0x236 <__bad_interrupt>
     10e:	00 00       	nop
     110:	92 c0       	rjmp	.+292    	; 0x236 <__bad_interrupt>
     112:	00 00       	nop
     114:	90 c0       	rjmp	.+288    	; 0x236 <__bad_interrupt>
     116:	00 00       	nop
     118:	8e c0       	rjmp	.+284    	; 0x236 <__bad_interrupt>
     11a:	00 00       	nop
     11c:	8c c0       	rjmp	.+280    	; 0x236 <__bad_interrupt>
     11e:	00 00       	nop
     120:	8a c0       	rjmp	.+276    	; 0x236 <__bad_interrupt>
     122:	00 00       	nop
     124:	88 c0       	rjmp	.+272    	; 0x236 <__bad_interrupt>
     126:	00 00       	nop
     128:	86 c0       	rjmp	.+268    	; 0x236 <__bad_interrupt>
     12a:	00 00       	nop
     12c:	84 c0       	rjmp	.+264    	; 0x236 <__bad_interrupt>
     12e:	00 00       	nop
     130:	82 c0       	rjmp	.+260    	; 0x236 <__bad_interrupt>
     132:	00 00       	nop
     134:	0c 94 41 15 	jmp	0x2a82	; 0x2a82 <__vector_77>
     138:	0c 94 6a 15 	jmp	0x2ad4	; 0x2ad4 <__vector_78>
     13c:	0c 94 93 15 	jmp	0x2b26	; 0x2b26 <__vector_79>
     140:	0c 94 bc 15 	jmp	0x2b78	; 0x2b78 <__vector_80>
     144:	0c 94 e5 15 	jmp	0x2bca	; 0x2bca <__vector_81>
     148:	0c 94 0e 16 	jmp	0x2c1c	; 0x2c1c <__vector_82>
     14c:	0c 94 37 16 	jmp	0x2c6e	; 0x2c6e <__vector_83>
     150:	0c 94 60 16 	jmp	0x2cc0	; 0x2cc0 <__vector_84>
     154:	0c 94 89 16 	jmp	0x2d12	; 0x2d12 <__vector_85>
     158:	0c 94 b2 16 	jmp	0x2d64	; 0x2d64 <__vector_86>
     15c:	6c c0       	rjmp	.+216    	; 0x236 <__bad_interrupt>
     15e:	00 00       	nop
     160:	6a c0       	rjmp	.+212    	; 0x236 <__bad_interrupt>
     162:	00 00       	nop
     164:	68 c0       	rjmp	.+208    	; 0x236 <__bad_interrupt>
     166:	00 00       	nop
     168:	66 c0       	rjmp	.+204    	; 0x236 <__bad_interrupt>
     16a:	00 00       	nop
     16c:	64 c0       	rjmp	.+200    	; 0x236 <__bad_interrupt>
     16e:	00 00       	nop
     170:	62 c0       	rjmp	.+196    	; 0x236 <__bad_interrupt>
     172:	00 00       	nop
     174:	60 c0       	rjmp	.+192    	; 0x236 <__bad_interrupt>
     176:	00 00       	nop
     178:	5e c0       	rjmp	.+188    	; 0x236 <__bad_interrupt>
     17a:	00 00       	nop
     17c:	5c c0       	rjmp	.+184    	; 0x236 <__bad_interrupt>
     17e:	00 00       	nop
     180:	5a c0       	rjmp	.+180    	; 0x236 <__bad_interrupt>
     182:	00 00       	nop
     184:	58 c0       	rjmp	.+176    	; 0x236 <__bad_interrupt>
     186:	00 00       	nop
     188:	56 c0       	rjmp	.+172    	; 0x236 <__bad_interrupt>
     18a:	00 00       	nop
     18c:	54 c0       	rjmp	.+168    	; 0x236 <__bad_interrupt>
     18e:	00 00       	nop
     190:	52 c0       	rjmp	.+164    	; 0x236 <__bad_interrupt>
     192:	00 00       	nop
     194:	50 c0       	rjmp	.+160    	; 0x236 <__bad_interrupt>
     196:	00 00       	nop
     198:	4e c0       	rjmp	.+156    	; 0x236 <__bad_interrupt>
     19a:	00 00       	nop
     19c:	4c c0       	rjmp	.+152    	; 0x236 <__bad_interrupt>
     19e:	00 00       	nop
     1a0:	4a c0       	rjmp	.+148    	; 0x236 <__bad_interrupt>
     1a2:	00 00       	nop
     1a4:	48 c0       	rjmp	.+144    	; 0x236 <__bad_interrupt>
     1a6:	00 00       	nop
     1a8:	46 c0       	rjmp	.+140    	; 0x236 <__bad_interrupt>
     1aa:	00 00       	nop
     1ac:	44 c0       	rjmp	.+136    	; 0x236 <__bad_interrupt>
     1ae:	00 00       	nop
     1b0:	42 c0       	rjmp	.+132    	; 0x236 <__bad_interrupt>
     1b2:	00 00       	nop
     1b4:	40 c0       	rjmp	.+128    	; 0x236 <__bad_interrupt>
     1b6:	00 00       	nop
     1b8:	3e c0       	rjmp	.+124    	; 0x236 <__bad_interrupt>
     1ba:	00 00       	nop
     1bc:	3c c0       	rjmp	.+120    	; 0x236 <__bad_interrupt>
     1be:	00 00       	nop
     1c0:	3a c0       	rjmp	.+116    	; 0x236 <__bad_interrupt>
     1c2:	00 00       	nop
     1c4:	38 c0       	rjmp	.+112    	; 0x236 <__bad_interrupt>
     1c6:	00 00       	nop
     1c8:	36 c0       	rjmp	.+108    	; 0x236 <__bad_interrupt>
     1ca:	00 00       	nop
     1cc:	34 c0       	rjmp	.+104    	; 0x236 <__bad_interrupt>
     1ce:	00 00       	nop
     1d0:	32 c0       	rjmp	.+100    	; 0x236 <__bad_interrupt>
     1d2:	00 00       	nop
     1d4:	30 c0       	rjmp	.+96     	; 0x236 <__bad_interrupt>
     1d6:	00 00       	nop
     1d8:	2e c0       	rjmp	.+92     	; 0x236 <__bad_interrupt>
     1da:	00 00       	nop
     1dc:	2c c0       	rjmp	.+88     	; 0x236 <__bad_interrupt>
     1de:	00 00       	nop
     1e0:	2a c0       	rjmp	.+84     	; 0x236 <__bad_interrupt>
     1e2:	00 00       	nop
     1e4:	28 c0       	rjmp	.+80     	; 0x236 <__bad_interrupt>
     1e6:	00 00       	nop
     1e8:	26 c0       	rjmp	.+76     	; 0x236 <__bad_interrupt>
     1ea:	00 00       	nop
     1ec:	24 c0       	rjmp	.+72     	; 0x236 <__bad_interrupt>
     1ee:	00 00       	nop
     1f0:	22 c0       	rjmp	.+68     	; 0x236 <__bad_interrupt>
     1f2:	00 00       	nop
     1f4:	20 c0       	rjmp	.+64     	; 0x236 <__bad_interrupt>
     1f6:	00 00       	nop
     1f8:	1e c0       	rjmp	.+60     	; 0x236 <__bad_interrupt>
	...

000001fc <__ctors_end>:
     1fc:	11 24       	eor	r1, r1
     1fe:	1f be       	out	0x3f, r1	; 63
     200:	cf ef       	ldi	r28, 0xFF	; 255
     202:	df e2       	ldi	r29, 0x2F	; 47
     204:	de bf       	out	0x3e, r29	; 62
     206:	cd bf       	out	0x3d, r28	; 61

00000208 <__do_copy_data>:
     208:	13 e2       	ldi	r17, 0x23	; 35
     20a:	a0 e0       	ldi	r26, 0x00	; 0
     20c:	b0 e2       	ldi	r27, 0x20	; 32
     20e:	ea eb       	ldi	r30, 0xBA	; 186
     210:	f6 e6       	ldi	r31, 0x66	; 102
     212:	02 c0       	rjmp	.+4      	; 0x218 <__do_copy_data+0x10>
     214:	05 90       	lpm	r0, Z+
     216:	0d 92       	st	X+, r0
     218:	a4 3a       	cpi	r26, 0xA4	; 164
     21a:	b1 07       	cpc	r27, r17
     21c:	d9 f7       	brne	.-10     	; 0x214 <__do_copy_data+0xc>

0000021e <__do_clear_bss>:
     21e:	2d e2       	ldi	r18, 0x2D	; 45
     220:	a4 ea       	ldi	r26, 0xA4	; 164
     222:	b3 e2       	ldi	r27, 0x23	; 35
     224:	01 c0       	rjmp	.+2      	; 0x228 <.do_clear_bss_start>

00000226 <.do_clear_bss_loop>:
     226:	1d 92       	st	X+, r1

00000228 <.do_clear_bss_start>:
     228:	a5 39       	cpi	r26, 0x95	; 149
     22a:	b2 07       	cpc	r27, r18
     22c:	e1 f7       	brne	.-8      	; 0x226 <.do_clear_bss_loop>
     22e:	0e 94 2f 28 	call	0x505e	; 0x505e <main>
     232:	0c 94 5b 33 	jmp	0x66b6	; 0x66b6 <_exit>

00000236 <__bad_interrupt>:
     236:	e4 ce       	rjmp	.-568    	; 0x0 <__vectors>

00000238 <reset_state>:
     238:	cf 93       	push	r28
     23a:	df 93       	push	r29
     23c:	ec 01       	movw	r28, r24
     23e:	e0 91 bd 24 	lds	r30, 0x24BD
     242:	f0 91 be 24 	lds	r31, 0x24BE
     246:	30 97       	sbiw	r30, 0x00	; 0
     248:	11 f0       	breq	.+4      	; 0x24e <reset_state+0x16>
     24a:	80 e0       	ldi	r24, 0x00	; 0
     24c:	09 95       	icall
     24e:	81 e0       	ldi	r24, 0x01	; 1
     250:	80 93 c5 24 	sts	0x24C5, r24
     254:	80 93 c6 24 	sts	0x24C6, r24
     258:	80 93 b8 24 	sts	0x24B8, r24
     25c:	10 92 b1 24 	sts	0x24B1, r1
     260:	10 92 b4 24 	sts	0x24B4, r1
     264:	10 92 b5 24 	sts	0x24B5, r1
     268:	4f ef       	ldi	r20, 0xFF	; 255
     26a:	5f ef       	ldi	r21, 0xFF	; 255
     26c:	6f ef       	ldi	r22, 0xFF	; 255
     26e:	7f e7       	ldi	r23, 0x7F	; 127
     270:	40 93 ad 24 	sts	0x24AD, r20
     274:	50 93 ae 24 	sts	0x24AE, r21
     278:	60 93 af 24 	sts	0x24AF, r22
     27c:	70 93 b0 24 	sts	0x24B0, r23
     280:	10 92 a7 24 	sts	0x24A7, r1
     284:	10 92 a8 24 	sts	0x24A8, r1
     288:	c0 93 a5 24 	sts	0x24A5, r28
     28c:	d0 93 a6 24 	sts	0x24A6, r29
     290:	10 92 a4 24 	sts	0x24A4, r1
     294:	80 93 a4 23 	sts	0x23A4, r24
     298:	10 92 aa 24 	sts	0x24AA, r1
     29c:	10 92 ab 24 	sts	0x24AB, r1
     2a0:	10 92 ac 24 	sts	0x24AC, r1
     2a4:	10 92 b2 24 	sts	0x24B2, r1
     2a8:	10 92 b3 24 	sts	0x24B3, r1
     2ac:	10 92 b7 24 	sts	0x24B7, r1
     2b0:	82 e0       	ldi	r24, 0x02	; 2
     2b2:	0e 94 e9 1b 	call	0x37d2	; 0x37d2 <timeout_stop>
     2b6:	68 e0       	ldi	r22, 0x08	; 8
     2b8:	70 e0       	ldi	r23, 0x00	; 0
     2ba:	82 e0       	ldi	r24, 0x02	; 2
     2bc:	df 91       	pop	r29
     2be:	cf 91       	pop	r28
     2c0:	0c 94 c7 1b 	jmp	0x378e	; 0x378e <timeout_start_periodic>

000002c4 <poll_modem>:
     2c4:	2f 92       	push	r2
     2c6:	3f 92       	push	r3
     2c8:	4f 92       	push	r4
     2ca:	5f 92       	push	r5
     2cc:	6f 92       	push	r6
     2ce:	7f 92       	push	r7
     2d0:	8f 92       	push	r8
     2d2:	9f 92       	push	r9
     2d4:	af 92       	push	r10
     2d6:	bf 92       	push	r11
     2d8:	cf 92       	push	r12
     2da:	df 92       	push	r13
     2dc:	ef 92       	push	r14
     2de:	ff 92       	push	r15
     2e0:	0f 93       	push	r16
     2e2:	1f 93       	push	r17
     2e4:	cf 93       	push	r28
     2e6:	df 93       	push	r29
     2e8:	cd b7       	in	r28, 0x3d	; 61
     2ea:	de b7       	in	r29, 0x3e	; 62
     2ec:	aa 97       	sbiw	r28, 0x2a	; 42
     2ee:	cd bf       	out	0x3d, r28	; 61
     2f0:	de bf       	out	0x3e, r29	; 62
     2f2:	0e 94 bf 10 	call	0x217e	; 0x217e <MODEM_get_byte>
     2f6:	97 fd       	sbrc	r25, 7
     2f8:	15 c3       	rjmp	.+1578   	; 0x924 <poll_modem+0x660>
     2fa:	8a 30       	cpi	r24, 0x0A	; 10
     2fc:	91 05       	cpc	r25, r1
     2fe:	f9 f0       	breq	.+62     	; 0x33e <poll_modem+0x7a>
     300:	8d 30       	cpi	r24, 0x0D	; 13
     302:	91 05       	cpc	r25, r1
     304:	e1 f0       	breq	.+56     	; 0x33e <poll_modem+0x7a>
     306:	20 91 a4 23 	lds	r18, 0x23A4
     30a:	21 11       	cpse	r18, r1
     30c:	f2 cf       	rjmp	.-28     	; 0x2f2 <poll_modem+0x2e>
     30e:	90 91 a4 24 	lds	r25, 0x24A4
     312:	e9 2f       	mov	r30, r25
     314:	f0 e0       	ldi	r31, 0x00	; 0
     316:	ec 55       	subi	r30, 0x5C	; 92
     318:	fc 4d       	sbci	r31, 0xDC	; 220
     31a:	81 83       	std	Z+1, r24	; 0x01
     31c:	89 2f       	mov	r24, r25
     31e:	8f 5f       	subi	r24, 0xFF	; 255
     320:	80 93 a4 24 	sts	0x24A4, r24
     324:	e8 2f       	mov	r30, r24
     326:	f0 e0       	ldi	r31, 0x00	; 0
     328:	ec 55       	subi	r30, 0x5C	; 92
     32a:	fc 4d       	sbci	r31, 0xDC	; 220
     32c:	11 82       	std	Z+1, r1	; 0x01
     32e:	8e 3f       	cpi	r24, 0xFE	; 254
     330:	01 f7       	brne	.-64     	; 0x2f2 <poll_modem+0x2e>
     332:	10 92 a4 24 	sts	0x24A4, r1
     336:	81 e0       	ldi	r24, 0x01	; 1
     338:	80 93 a4 23 	sts	0x23A4, r24
     33c:	da cf       	rjmp	.-76     	; 0x2f2 <poll_modem+0x2e>
     33e:	10 92 a4 23 	sts	0x23A4, r1
     342:	80 91 a4 24 	lds	r24, 0x24A4
     346:	88 23       	and	r24, r24
     348:	a1 f2       	breq	.-88     	; 0x2f2 <poll_modem+0x2e>
     34a:	10 92 a4 24 	sts	0x24A4, r1
     34e:	62 e1       	ldi	r22, 0x12	; 18
     350:	70 e2       	ldi	r23, 0x20	; 32
     352:	85 ea       	ldi	r24, 0xA5	; 165
     354:	93 e2       	ldi	r25, 0x23	; 35
     356:	0e 94 45 32 	call	0x648a	; 0x648a <strcmp>
     35a:	00 97       	sbiw	r24, 0x00	; 0
     35c:	39 f4       	brne	.+14     	; 0x36c <poll_modem+0xa8>
     35e:	80 91 a5 24 	lds	r24, 0x24A5
     362:	90 91 a6 24 	lds	r25, 0x24A6
     366:	01 97       	sbiw	r24, 0x01	; 1
     368:	21 f6       	brne	.-120    	; 0x2f2 <poll_modem+0x2e>
     36a:	53 c1       	rjmp	.+678    	; 0x612 <poll_modem+0x34e>
     36c:	65 e1       	ldi	r22, 0x15	; 21
     36e:	70 e2       	ldi	r23, 0x20	; 32
     370:	85 ea       	ldi	r24, 0xA5	; 165
     372:	93 e2       	ldi	r25, 0x23	; 35
     374:	0e 94 45 32 	call	0x648a	; 0x648a <strcmp>
     378:	00 97       	sbiw	r24, 0x00	; 0
     37a:	51 f4       	brne	.+20     	; 0x390 <poll_modem+0xcc>
     37c:	80 91 a5 24 	lds	r24, 0x24A5
     380:	90 91 a6 24 	lds	r25, 0x24A6
     384:	01 97       	sbiw	r24, 0x01	; 1
     386:	09 f0       	breq	.+2      	; 0x38a <poll_modem+0xc6>
     388:	b4 cf       	rjmp	.-152    	; 0x2f2 <poll_modem+0x2e>
     38a:	82 e0       	ldi	r24, 0x02	; 2
     38c:	90 e0       	ldi	r25, 0x00	; 0
     38e:	4d c1       	rjmp	.+666    	; 0x62a <poll_modem+0x366>
     390:	6a e1       	ldi	r22, 0x1A	; 26
     392:	70 e2       	ldi	r23, 0x20	; 32
     394:	85 ea       	ldi	r24, 0xA5	; 165
     396:	93 e2       	ldi	r25, 0x23	; 35
     398:	0e 94 45 32 	call	0x648a	; 0x648a <strcmp>
     39c:	00 97       	sbiw	r24, 0x00	; 0
     39e:	09 f4       	brne	.+2      	; 0x3a2 <poll_modem+0xde>
     3a0:	3b c1       	rjmp	.+630    	; 0x618 <poll_modem+0x354>
     3a2:	68 e2       	ldi	r22, 0x28	; 40
     3a4:	70 e2       	ldi	r23, 0x20	; 32
     3a6:	85 ea       	ldi	r24, 0xA5	; 165
     3a8:	93 e2       	ldi	r25, 0x23	; 35
     3aa:	0e 94 45 32 	call	0x648a	; 0x648a <strcmp>
     3ae:	00 97       	sbiw	r24, 0x00	; 0
     3b0:	09 f4       	brne	.+2      	; 0x3b4 <poll_modem+0xf0>
     3b2:	2c c0       	rjmp	.+88     	; 0x40c <poll_modem+0x148>
     3b4:	68 e3       	ldi	r22, 0x38	; 56
     3b6:	70 e2       	ldi	r23, 0x20	; 32
     3b8:	85 ea       	ldi	r24, 0xA5	; 165
     3ba:	93 e2       	ldi	r25, 0x23	; 35
     3bc:	0e 94 45 32 	call	0x648a	; 0x648a <strcmp>
     3c0:	00 97       	sbiw	r24, 0x00	; 0
     3c2:	09 f4       	brne	.+2      	; 0x3c6 <poll_modem+0x102>
     3c4:	23 c0       	rjmp	.+70     	; 0x40c <poll_modem+0x148>
     3c6:	69 e4       	ldi	r22, 0x49	; 73
     3c8:	70 e2       	ldi	r23, 0x20	; 32
     3ca:	85 ea       	ldi	r24, 0xA5	; 165
     3cc:	93 e2       	ldi	r25, 0x23	; 35
     3ce:	0e 94 45 32 	call	0x648a	; 0x648a <strcmp>
     3d2:	00 97       	sbiw	r24, 0x00	; 0
     3d4:	09 f4       	brne	.+2      	; 0x3d8 <poll_modem+0x114>
     3d6:	1a c0       	rjmp	.+52     	; 0x40c <poll_modem+0x148>
     3d8:	66 e5       	ldi	r22, 0x56	; 86
     3da:	70 e2       	ldi	r23, 0x20	; 32
     3dc:	85 ea       	ldi	r24, 0xA5	; 165
     3de:	93 e2       	ldi	r25, 0x23	; 35
     3e0:	0e 94 45 32 	call	0x648a	; 0x648a <strcmp>
     3e4:	00 97       	sbiw	r24, 0x00	; 0
     3e6:	09 f4       	brne	.+2      	; 0x3ea <poll_modem+0x126>
     3e8:	11 c0       	rjmp	.+34     	; 0x40c <poll_modem+0x148>
     3ea:	65 e6       	ldi	r22, 0x65	; 101
     3ec:	70 e2       	ldi	r23, 0x20	; 32
     3ee:	85 ea       	ldi	r24, 0xA5	; 165
     3f0:	93 e2       	ldi	r25, 0x23	; 35
     3f2:	0e 94 45 32 	call	0x648a	; 0x648a <strcmp>
     3f6:	00 97       	sbiw	r24, 0x00	; 0
     3f8:	09 f4       	brne	.+2      	; 0x3fc <poll_modem+0x138>
     3fa:	08 c0       	rjmp	.+16     	; 0x40c <poll_modem+0x148>
     3fc:	6f e6       	ldi	r22, 0x6F	; 111
     3fe:	70 e2       	ldi	r23, 0x20	; 32
     400:	85 ea       	ldi	r24, 0xA5	; 165
     402:	93 e2       	ldi	r25, 0x23	; 35
     404:	0e 94 45 32 	call	0x648a	; 0x648a <strcmp>
     408:	00 97       	sbiw	r24, 0x00	; 0
     40a:	51 f4       	brne	.+20     	; 0x420 <poll_modem+0x15c>
     40c:	80 91 a5 24 	lds	r24, 0x24A5
     410:	90 91 a6 24 	lds	r25, 0x24A6
     414:	01 97       	sbiw	r24, 0x01	; 1
     416:	09 f0       	breq	.+2      	; 0x41a <poll_modem+0x156>
     418:	6c cf       	rjmp	.-296    	; 0x2f2 <poll_modem+0x2e>
     41a:	84 e0       	ldi	r24, 0x04	; 4
     41c:	90 e0       	ldi	r25, 0x00	; 0
     41e:	05 c1       	rjmp	.+522    	; 0x62a <poll_modem+0x366>
     420:	65 e7       	ldi	r22, 0x75	; 117
     422:	70 e2       	ldi	r23, 0x20	; 32
     424:	85 ea       	ldi	r24, 0xA5	; 165
     426:	93 e2       	ldi	r25, 0x23	; 35
     428:	0e 94 45 32 	call	0x648a	; 0x648a <strcmp>
     42c:	00 97       	sbiw	r24, 0x00	; 0
     42e:	39 f4       	brne	.+14     	; 0x43e <poll_modem+0x17a>
     430:	21 e0       	ldi	r18, 0x01	; 1
     432:	30 e0       	ldi	r19, 0x00	; 0
     434:	20 93 b4 24 	sts	0x24B4, r18
     438:	30 93 b5 24 	sts	0x24B5, r19
     43c:	5a cf       	rjmp	.-332    	; 0x2f2 <poll_modem+0x2e>
     43e:	6f e7       	ldi	r22, 0x7F	; 127
     440:	70 e2       	ldi	r23, 0x20	; 32
     442:	85 ea       	ldi	r24, 0xA5	; 165
     444:	93 e2       	ldi	r25, 0x23	; 35
     446:	0e 94 45 32 	call	0x648a	; 0x648a <strcmp>
     44a:	00 97       	sbiw	r24, 0x00	; 0
     44c:	39 f4       	brne	.+14     	; 0x45c <poll_modem+0x198>
     44e:	82 e0       	ldi	r24, 0x02	; 2
     450:	90 e0       	ldi	r25, 0x00	; 0
     452:	80 93 b4 24 	sts	0x24B4, r24
     456:	90 93 b5 24 	sts	0x24B5, r25
     45a:	4b cf       	rjmp	.-362    	; 0x2f2 <poll_modem+0x2e>
     45c:	69 e8       	ldi	r22, 0x89	; 137
     45e:	70 e2       	ldi	r23, 0x20	; 32
     460:	85 ea       	ldi	r24, 0xA5	; 165
     462:	93 e2       	ldi	r25, 0x23	; 35
     464:	0e 94 45 32 	call	0x648a	; 0x648a <strcmp>
     468:	00 97       	sbiw	r24, 0x00	; 0
     46a:	21 f4       	brne	.+8      	; 0x474 <poll_modem+0x1b0>
     46c:	81 e0       	ldi	r24, 0x01	; 1
     46e:	80 93 b6 24 	sts	0x24B6, r24
     472:	3f cf       	rjmp	.-386    	; 0x2f2 <poll_modem+0x2e>
     474:	48 e0       	ldi	r20, 0x08	; 8
     476:	50 e0       	ldi	r21, 0x00	; 0
     478:	67 ea       	ldi	r22, 0xA7	; 167
     47a:	70 e2       	ldi	r23, 0x20	; 32
     47c:	85 ea       	ldi	r24, 0xA5	; 165
     47e:	93 e2       	ldi	r25, 0x23	; 35
     480:	0e 94 4e 32 	call	0x649c	; 0x649c <strncmp>
     484:	00 97       	sbiw	r24, 0x00	; 0
     486:	c1 f5       	brne	.+112    	; 0x4f8 <poll_modem+0x234>
     488:	4a e0       	ldi	r20, 0x0A	; 10
     48a:	50 e0       	ldi	r21, 0x00	; 0
     48c:	60 e0       	ldi	r22, 0x00	; 0
     48e:	70 e0       	ldi	r23, 0x00	; 0
     490:	8d ea       	ldi	r24, 0xAD	; 173
     492:	93 e2       	ldi	r25, 0x23	; 35
     494:	0e 94 0b 31 	call	0x6216	; 0x6216 <strtoul>
     498:	6b 01       	movw	r12, r22
     49a:	7c 01       	movw	r14, r24
     49c:	83 e0       	ldi	r24, 0x03	; 3
     49e:	90 e0       	ldi	r25, 0x00	; 0
     4a0:	80 93 a5 24 	sts	0x24A5, r24
     4a4:	90 93 a6 24 	sts	0x24A6, r25
     4a8:	c1 14       	cp	r12, r1
     4aa:	d1 04       	cpc	r13, r1
     4ac:	e1 04       	cpc	r14, r1
     4ae:	f1 04       	cpc	r15, r1
     4b0:	09 f4       	brne	.+2      	; 0x4b4 <poll_modem+0x1f0>
     4b2:	38 c2       	rjmp	.+1136   	; 0x924 <poll_modem+0x660>
     4b4:	0e 94 b5 0b 	call	0x176a	; 0x176a <epoch_get>
     4b8:	97 01       	movw	r18, r14
     4ba:	86 01       	movw	r16, r12
     4bc:	0b 5f       	subi	r16, 0xFB	; 251
     4be:	1f 4f       	sbci	r17, 0xFF	; 255
     4c0:	2f 4f       	sbci	r18, 0xFF	; 255
     4c2:	3f 4f       	sbci	r19, 0xFF	; 255
     4c4:	06 17       	cp	r16, r22
     4c6:	17 07       	cpc	r17, r23
     4c8:	28 07       	cpc	r18, r24
     4ca:	39 07       	cpc	r19, r25
     4cc:	60 f0       	brcs	.+24     	; 0x4e6 <poll_modem+0x222>
     4ce:	97 01       	movw	r18, r14
     4d0:	86 01       	movw	r16, r12
     4d2:	05 50       	subi	r16, 0x05	; 5
     4d4:	11 09       	sbc	r17, r1
     4d6:	21 09       	sbc	r18, r1
     4d8:	31 09       	sbc	r19, r1
     4da:	60 17       	cp	r22, r16
     4dc:	71 07       	cpc	r23, r17
     4de:	82 07       	cpc	r24, r18
     4e0:	93 07       	cpc	r25, r19
     4e2:	08 f0       	brcs	.+2      	; 0x4e6 <poll_modem+0x222>
     4e4:	1f c2       	rjmp	.+1086   	; 0x924 <poll_modem+0x660>
     4e6:	c7 01       	movw	r24, r14
     4e8:	b6 01       	movw	r22, r12
     4ea:	0e 94 40 0b 	call	0x1680	; 0x1680 <epoch_set>
     4ee:	80 eb       	ldi	r24, 0xB0	; 176
     4f0:	90 e2       	ldi	r25, 0x20	; 32
     4f2:	0e 94 88 10 	call	0x2110	; 0x2110 <DEBUG_puts>
     4f6:	16 c2       	rjmp	.+1068   	; 0x924 <poll_modem+0x660>
     4f8:	47 e0       	ldi	r20, 0x07	; 7
     4fa:	50 e0       	ldi	r21, 0x00	; 0
     4fc:	61 ec       	ldi	r22, 0xC1	; 193
     4fe:	70 e2       	ldi	r23, 0x20	; 32
     500:	85 ea       	ldi	r24, 0xA5	; 165
     502:	93 e2       	ldi	r25, 0x23	; 35
     504:	0e 94 4e 32 	call	0x649c	; 0x649c <strncmp>
     508:	00 97       	sbiw	r24, 0x00	; 0
     50a:	59 f5       	brne	.+86     	; 0x562 <poll_modem+0x29e>
     50c:	8c ea       	ldi	r24, 0xAC	; 172
     50e:	93 e2       	ldi	r25, 0x23	; 35
     510:	0e 94 fa 31 	call	0x63f4	; 0x63f4 <atol>
     514:	6b 01       	movw	r12, r22
     516:	7c 01       	movw	r14, r24
     518:	83 e0       	ldi	r24, 0x03	; 3
     51a:	90 e0       	ldi	r25, 0x00	; 0
     51c:	80 93 a5 24 	sts	0x24A5, r24
     520:	90 93 a6 24 	sts	0x24A6, r25
     524:	80 91 ad 24 	lds	r24, 0x24AD
     528:	90 91 ae 24 	lds	r25, 0x24AE
     52c:	a0 91 af 24 	lds	r26, 0x24AF
     530:	b0 91 b0 24 	lds	r27, 0x24B0
     534:	8c 15       	cp	r24, r12
     536:	9d 05       	cpc	r25, r13
     538:	ae 05       	cpc	r26, r14
     53a:	bf 05       	cpc	r27, r15
     53c:	4c f0       	brlt	.+18     	; 0x550 <poll_modem+0x28c>
     53e:	83 e0       	ldi	r24, 0x03	; 3
     540:	90 e0       	ldi	r25, 0x00	; 0
     542:	7a de       	rcall	.-780    	; 0x238 <reset_state>
     544:	e0 91 bd 24 	lds	r30, 0x24BD
     548:	f0 91 be 24 	lds	r31, 0x24BE
     54c:	80 e0       	ldi	r24, 0x00	; 0
     54e:	09 95       	icall
     550:	c0 92 ad 24 	sts	0x24AD, r12
     554:	d0 92 ae 24 	sts	0x24AE, r13
     558:	e0 92 af 24 	sts	0x24AF, r14
     55c:	f0 92 b0 24 	sts	0x24B0, r15
     560:	e1 c1       	rjmp	.+962    	; 0x924 <poll_modem+0x660>
     562:	4c e0       	ldi	r20, 0x0C	; 12
     564:	50 e0       	ldi	r21, 0x00	; 0
     566:	69 ec       	ldi	r22, 0xC9	; 201
     568:	70 e2       	ldi	r23, 0x20	; 32
     56a:	85 ea       	ldi	r24, 0xA5	; 165
     56c:	93 e2       	ldi	r25, 0x23	; 35
     56e:	0e 94 4e 32 	call	0x649c	; 0x649c <strncmp>
     572:	00 97       	sbiw	r24, 0x00	; 0
     574:	f1 f4       	brne	.+60     	; 0x5b2 <poll_modem+0x2ee>
     576:	80 91 a5 24 	lds	r24, 0x24A5
     57a:	90 91 a6 24 	lds	r25, 0x24A6
     57e:	01 97       	sbiw	r24, 0x01	; 1
     580:	19 f4       	brne	.+6      	; 0x588 <poll_modem+0x2c4>
     582:	85 e0       	ldi	r24, 0x05	; 5
     584:	90 e0       	ldi	r25, 0x00	; 0
     586:	02 c0       	rjmp	.+4      	; 0x58c <poll_modem+0x2c8>
     588:	80 e0       	ldi	r24, 0x00	; 0
     58a:	90 e0       	ldi	r25, 0x00	; 0
     58c:	55 de       	rcall	.-854    	; 0x238 <reset_state>
     58e:	e0 91 bd 24 	lds	r30, 0x24BD
     592:	f0 91 be 24 	lds	r31, 0x24BE
     596:	80 e0       	ldi	r24, 0x00	; 0
     598:	09 95       	icall
     59a:	10 92 ad 24 	sts	0x24AD, r1
     59e:	10 92 ae 24 	sts	0x24AE, r1
     5a2:	10 92 af 24 	sts	0x24AF, r1
     5a6:	10 92 b0 24 	sts	0x24B0, r1
     5aa:	81 e0       	ldi	r24, 0x01	; 1
     5ac:	80 93 a9 24 	sts	0x24A9, r24
     5b0:	a0 ce       	rjmp	.-704    	; 0x2f2 <poll_modem+0x2e>
     5b2:	4a e0       	ldi	r20, 0x0A	; 10
     5b4:	50 e0       	ldi	r21, 0x00	; 0
     5b6:	66 ed       	ldi	r22, 0xD6	; 214
     5b8:	70 e2       	ldi	r23, 0x20	; 32
     5ba:	85 ea       	ldi	r24, 0xA5	; 165
     5bc:	93 e2       	ldi	r25, 0x23	; 35
     5be:	0e 94 4e 32 	call	0x649c	; 0x649c <strncmp>
     5c2:	00 97       	sbiw	r24, 0x00	; 0
     5c4:	71 f4       	brne	.+28     	; 0x5e2 <poll_modem+0x31e>
     5c6:	81 e0       	ldi	r24, 0x01	; 1
     5c8:	80 93 b1 24 	sts	0x24B1, r24
     5cc:	e0 91 bd 24 	lds	r30, 0x24BD
     5d0:	f0 91 be 24 	lds	r31, 0x24BE
     5d4:	09 95       	icall
     5d6:	80 91 a7 24 	lds	r24, 0x24A7
     5da:	88 23       	and	r24, r24
     5dc:	09 f4       	brne	.+2      	; 0x5e0 <poll_modem+0x31c>
     5de:	89 ce       	rjmp	.-750    	; 0x2f2 <poll_modem+0x2e>
     5e0:	16 c0       	rjmp	.+44     	; 0x60e <poll_modem+0x34a>
     5e2:	4a e0       	ldi	r20, 0x0A	; 10
     5e4:	50 e0       	ldi	r21, 0x00	; 0
     5e6:	61 ee       	ldi	r22, 0xE1	; 225
     5e8:	70 e2       	ldi	r23, 0x20	; 32
     5ea:	85 ea       	ldi	r24, 0xA5	; 165
     5ec:	93 e2       	ldi	r25, 0x23	; 35
     5ee:	0e 94 4e 32 	call	0x649c	; 0x649c <strncmp>
     5f2:	00 97       	sbiw	r24, 0x00	; 0
     5f4:	f9 f4       	brne	.+62     	; 0x634 <poll_modem+0x370>
     5f6:	10 92 b1 24 	sts	0x24B1, r1
     5fa:	e0 91 bd 24 	lds	r30, 0x24BD
     5fe:	f0 91 be 24 	lds	r31, 0x24BE
     602:	80 e0       	ldi	r24, 0x00	; 0
     604:	09 95       	icall
     606:	80 91 a7 24 	lds	r24, 0x24A7
     60a:	88 23       	and	r24, r24
     60c:	29 f0       	breq	.+10     	; 0x618 <poll_modem+0x354>
     60e:	10 92 a7 24 	sts	0x24A7, r1
     612:	83 e0       	ldi	r24, 0x03	; 3
     614:	90 e0       	ldi	r25, 0x00	; 0
     616:	09 c0       	rjmp	.+18     	; 0x62a <poll_modem+0x366>
     618:	80 91 a5 24 	lds	r24, 0x24A5
     61c:	90 91 a6 24 	lds	r25, 0x24A6
     620:	01 97       	sbiw	r24, 0x01	; 1
     622:	09 f0       	breq	.+2      	; 0x626 <poll_modem+0x362>
     624:	66 ce       	rjmp	.-820    	; 0x2f2 <poll_modem+0x2e>
     626:	85 e0       	ldi	r24, 0x05	; 5
     628:	90 e0       	ldi	r25, 0x00	; 0
     62a:	80 93 a5 24 	sts	0x24A5, r24
     62e:	90 93 a6 24 	sts	0x24A6, r25
     632:	78 c1       	rjmp	.+752    	; 0x924 <poll_modem+0x660>
     634:	4a e0       	ldi	r20, 0x0A	; 10
     636:	50 e0       	ldi	r21, 0x00	; 0
     638:	6c ee       	ldi	r22, 0xEC	; 236
     63a:	70 e2       	ldi	r23, 0x20	; 32
     63c:	85 ea       	ldi	r24, 0xA5	; 165
     63e:	93 e2       	ldi	r25, 0x23	; 35
     640:	0e 94 4e 32 	call	0x649c	; 0x649c <strncmp>
     644:	00 97       	sbiw	r24, 0x00	; 0
     646:	09 f0       	breq	.+2      	; 0x64a <poll_modem+0x386>
     648:	a8 c0       	rjmp	.+336    	; 0x79a <poll_modem+0x4d6>
     64a:	0f ea       	ldi	r16, 0xAF	; 175
     64c:	13 e2       	ldi	r17, 0x23	; 35
     64e:	41 2c       	mov	r4, r1
     650:	51 2c       	mov	r5, r1
     652:	32 01       	movw	r6, r4
     654:	0f c0       	rjmp	.+30     	; 0x674 <poll_modem+0x3b0>
     656:	aa e0       	ldi	r26, 0x0A	; 10
     658:	b0 e0       	ldi	r27, 0x00	; 0
     65a:	a3 01       	movw	r20, r6
     65c:	92 01       	movw	r18, r4
     65e:	0e 94 f5 30 	call	0x61ea	; 0x61ea <__muluhisi3>
     662:	2f 01       	movw	r4, r30
     664:	66 24       	eor	r6, r6
     666:	57 fc       	sbrc	r5, 7
     668:	60 94       	com	r6
     66a:	76 2c       	mov	r7, r6
     66c:	46 0e       	add	r4, r22
     66e:	57 1e       	adc	r5, r23
     670:	68 1e       	adc	r6, r24
     672:	79 1e       	adc	r7, r25
     674:	d8 01       	movw	r26, r16
     676:	ed 91       	ld	r30, X+
     678:	8d 01       	movw	r16, r26
     67a:	ff 27       	eor	r31, r31
     67c:	e7 fd       	sbrc	r30, 7
     67e:	f0 95       	com	r31
     680:	f0 97       	sbiw	r30, 0x30	; 48
     682:	ea 30       	cpi	r30, 0x0A	; 10
     684:	f1 05       	cpc	r31, r1
     686:	38 f3       	brcs	.-50     	; 0x656 <poll_modem+0x392>
     688:	a9 a7       	std	Y+41, r26	; 0x29
     68a:	ba a7       	std	Y+42, r27	; 0x2a
     68c:	cd 01       	movw	r24, r26
     68e:	fc 01       	movw	r30, r24
     690:	01 96       	adiw	r24, 0x01	; 1
     692:	20 81       	ld	r18, Z
     694:	2c 32       	cpi	r18, 0x2C	; 44
     696:	d9 f7       	brne	.-10     	; 0x68e <poll_modem+0x3ca>
     698:	df 01       	movw	r26, r30
     69a:	1d 92       	st	X+, r1
     69c:	5d 01       	movw	r10, r26
     69e:	31 2c       	mov	r3, r1
     6a0:	01 c0       	rjmp	.+2      	; 0x6a4 <poll_modem+0x3e0>
     6a2:	33 94       	inc	r3
     6a4:	ee 24       	eor	r14, r14
     6a6:	e3 94       	inc	r14
     6a8:	f1 2c       	mov	r15, r1
     6aa:	ec 0e       	add	r14, r28
     6ac:	fd 1e       	adc	r15, r29
     6ae:	b8 e0       	ldi	r27, 0x08	; 8
     6b0:	3b 9e       	mul	r3, r27
     6b2:	e0 0c       	add	r14, r0
     6b4:	f1 1c       	adc	r15, r1
     6b6:	11 24       	eor	r1, r1
     6b8:	f7 01       	movw	r30, r14
     6ba:	a0 82       	st	Z, r10
     6bc:	b1 82       	std	Z+1, r11	; 0x01
     6be:	f5 01       	movw	r30, r10
     6c0:	2e 2f       	mov	r18, r30
     6c2:	9f 2f       	mov	r25, r31
     6c4:	81 91       	ld	r24, Z+
     6c6:	88 23       	and	r24, r24
     6c8:	09 f4       	brne	.+2      	; 0x6cc <poll_modem+0x408>
     6ca:	53 c0       	rjmp	.+166    	; 0x772 <poll_modem+0x4ae>
     6cc:	8c 32       	cpi	r24, 0x2C	; 44
     6ce:	c1 f7       	brne	.-16     	; 0x6c0 <poll_modem+0x3fc>
     6d0:	10 c1       	rjmp	.+544    	; 0x8f2 <poll_modem+0x62e>
     6d2:	64 01       	movw	r12, r8
     6d4:	d4 01       	movw	r26, r8
     6d6:	8c 91       	ld	r24, X
     6d8:	bf ef       	ldi	r27, 0xFF	; 255
     6da:	8b 1a       	sub	r8, r27
     6dc:	9b 0a       	sbc	r9, r27
     6de:	88 23       	and	r24, r24
     6e0:	09 f4       	brne	.+2      	; 0x6e4 <poll_modem+0x420>
     6e2:	47 c0       	rjmp	.+142    	; 0x772 <poll_modem+0x4ae>
     6e4:	8c 32       	cpi	r24, 0x2C	; 44
     6e6:	a9 f7       	brne	.-22     	; 0x6d2 <poll_modem+0x40e>
     6e8:	0b c1       	rjmp	.+534    	; 0x900 <poll_modem+0x63c>
     6ea:	f7 01       	movw	r30, r14
     6ec:	12 82       	std	Z+2, r1	; 0x02
     6ee:	13 82       	std	Z+3, r1	; 0x03
     6f0:	c4 01       	movw	r24, r8
     6f2:	0e 94 fa 31 	call	0x63f4	; 0x63f4 <atol>
     6f6:	d7 01       	movw	r26, r14
     6f8:	14 96       	adiw	r26, 0x04	; 4
     6fa:	6d 93       	st	X+, r22
     6fc:	7d 93       	st	X+, r23
     6fe:	8d 93       	st	X+, r24
     700:	9c 93       	st	X, r25
     702:	17 97       	sbiw	r26, 0x07	; 7
     704:	28 c0       	rjmp	.+80     	; 0x756 <poll_modem+0x492>
     706:	67 ef       	ldi	r22, 0xF7	; 247
     708:	70 e2       	ldi	r23, 0x20	; 32
     70a:	c8 01       	movw	r24, r16
     70c:	0e 94 45 32 	call	0x648a	; 0x648a <strcmp>
     710:	00 97       	sbiw	r24, 0x00	; 0
     712:	79 f4       	brne	.+30     	; 0x732 <poll_modem+0x46e>
     714:	22 e0       	ldi	r18, 0x02	; 2
     716:	30 e0       	ldi	r19, 0x00	; 0
     718:	f7 01       	movw	r30, r14
     71a:	22 83       	std	Z+2, r18	; 0x02
     71c:	33 83       	std	Z+3, r19	; 0x03
     71e:	81 e0       	ldi	r24, 0x01	; 1
     720:	d6 01       	movw	r26, r12
     722:	11 96       	adiw	r26, 0x01	; 1
     724:	9c 91       	ld	r25, X
     726:	94 35       	cpi	r25, 0x54	; 84
     728:	09 f0       	breq	.+2      	; 0x72c <poll_modem+0x468>
     72a:	80 e0       	ldi	r24, 0x00	; 0
     72c:	f7 01       	movw	r30, r14
     72e:	84 83       	std	Z+4, r24	; 0x04
     730:	12 c0       	rjmp	.+36     	; 0x756 <poll_modem+0x492>
     732:	6c ef       	ldi	r22, 0xFC	; 252
     734:	70 e2       	ldi	r23, 0x20	; 32
     736:	c8 01       	movw	r24, r16
     738:	0e 94 45 32 	call	0x648a	; 0x648a <strcmp>
     73c:	00 97       	sbiw	r24, 0x00	; 0
     73e:	c9 f4       	brne	.+50     	; 0x772 <poll_modem+0x4ae>
     740:	e1 e0       	ldi	r30, 0x01	; 1
     742:	f0 e0       	ldi	r31, 0x00	; 0
     744:	d7 01       	movw	r26, r14
     746:	12 96       	adiw	r26, 0x02	; 2
     748:	ed 93       	st	X+, r30
     74a:	fc 93       	st	X, r31
     74c:	13 97       	sbiw	r26, 0x03	; 3
     74e:	14 96       	adiw	r26, 0x04	; 4
     750:	8d 92       	st	X+, r8
     752:	9c 92       	st	X, r9
     754:	15 97       	sbiw	r26, 0x05	; 5
     756:	d6 01       	movw	r26, r12
     758:	11 96       	adiw	r26, 0x01	; 1
     75a:	8c 91       	ld	r24, X
     75c:	11 97       	sbiw	r26, 0x01	; 1
     75e:	88 23       	and	r24, r24
     760:	41 f0       	breq	.+16     	; 0x772 <poll_modem+0x4ae>
     762:	11 96       	adiw	r26, 0x01	; 1
     764:	1c 92       	st	X, r1
     766:	be ef       	ldi	r27, 0xFE	; 254
     768:	cb 16       	cp	r12, r27
     76a:	bf ef       	ldi	r27, 0xFF	; 255
     76c:	db 06       	cpc	r13, r27
     76e:	09 f0       	breq	.+2      	; 0x772 <poll_modem+0x4ae>
     770:	98 cf       	rjmp	.-208    	; 0x6a2 <poll_modem+0x3de>
     772:	33 20       	and	r3, r3
     774:	09 f4       	brne	.+2      	; 0x778 <poll_modem+0x4b4>
     776:	bd cd       	rjmp	.-1158   	; 0x2f2 <poll_modem+0x2e>
     778:	e0 91 c1 24 	lds	r30, 0x24C1
     77c:	f0 91 c2 24 	lds	r31, 0x24C2
     780:	30 97       	sbiw	r30, 0x00	; 0
     782:	09 f4       	brne	.+2      	; 0x786 <poll_modem+0x4c2>
     784:	b6 cd       	rjmp	.-1172   	; 0x2f2 <poll_modem+0x2e>
     786:	8e 01       	movw	r16, r28
     788:	0f 5f       	subi	r16, 0xFF	; 255
     78a:	1f 4f       	sbci	r17, 0xFF	; 255
     78c:	23 2d       	mov	r18, r3
     78e:	49 a5       	ldd	r20, Y+41	; 0x29
     790:	5a a5       	ldd	r21, Y+42	; 0x2a
     792:	c3 01       	movw	r24, r6
     794:	b2 01       	movw	r22, r4
     796:	09 95       	icall
     798:	ac cd       	rjmp	.-1192   	; 0x2f2 <poll_modem+0x2e>
     79a:	4a e0       	ldi	r20, 0x0A	; 10
     79c:	50 e0       	ldi	r21, 0x00	; 0
     79e:	60 e0       	ldi	r22, 0x00	; 0
     7a0:	71 e2       	ldi	r23, 0x21	; 33
     7a2:	85 ea       	ldi	r24, 0xA5	; 165
     7a4:	93 e2       	ldi	r25, 0x23	; 35
     7a6:	0e 94 4e 32 	call	0x649c	; 0x649c <strncmp>
     7aa:	00 97       	sbiw	r24, 0x00	; 0
     7ac:	09 f0       	breq	.+2      	; 0x7b0 <poll_modem+0x4ec>
     7ae:	a1 cd       	rjmp	.-1214   	; 0x2f2 <poll_modem+0x2e>
     7b0:	0f ea       	ldi	r16, 0xAF	; 175
     7b2:	13 e2       	ldi	r17, 0x23	; 35
     7b4:	81 2c       	mov	r8, r1
     7b6:	91 2c       	mov	r9, r1
     7b8:	54 01       	movw	r10, r8
     7ba:	0f c0       	rjmp	.+30     	; 0x7da <poll_modem+0x516>
     7bc:	aa e0       	ldi	r26, 0x0A	; 10
     7be:	b0 e0       	ldi	r27, 0x00	; 0
     7c0:	a5 01       	movw	r20, r10
     7c2:	94 01       	movw	r18, r8
     7c4:	0e 94 f5 30 	call	0x61ea	; 0x61ea <__muluhisi3>
     7c8:	4f 01       	movw	r8, r30
     7ca:	aa 24       	eor	r10, r10
     7cc:	97 fc       	sbrc	r9, 7
     7ce:	a0 94       	com	r10
     7d0:	ba 2c       	mov	r11, r10
     7d2:	86 0e       	add	r8, r22
     7d4:	97 1e       	adc	r9, r23
     7d6:	a8 1e       	adc	r10, r24
     7d8:	b9 1e       	adc	r11, r25
     7da:	d8 01       	movw	r26, r16
     7dc:	ed 91       	ld	r30, X+
     7de:	8d 01       	movw	r16, r26
     7e0:	ff 27       	eor	r31, r31
     7e2:	e7 fd       	sbrc	r30, 7
     7e4:	f0 95       	com	r31
     7e6:	f0 97       	sbiw	r30, 0x30	; 48
     7e8:	ea 30       	cpi	r30, 0x0A	; 10
     7ea:	f1 05       	cpc	r31, r1
     7ec:	38 f3       	brcs	.-50     	; 0x7bc <poll_modem+0x4f8>
     7ee:	1d 01       	movw	r2, r26
     7f0:	cd 01       	movw	r24, r26
     7f2:	fc 01       	movw	r30, r24
     7f4:	01 96       	adiw	r24, 0x01	; 1
     7f6:	20 81       	ld	r18, Z
     7f8:	2c 32       	cpi	r18, 0x2C	; 44
     7fa:	d9 f7       	brne	.-10     	; 0x7f2 <poll_modem+0x52e>
     7fc:	11 92       	st	Z+, r1
     7fe:	6f 01       	movw	r12, r30
     800:	fc 01       	movw	r30, r24
     802:	01 96       	adiw	r24, 0x01	; 1
     804:	20 81       	ld	r18, Z
     806:	2c 32       	cpi	r18, 0x2C	; 44
     808:	d9 f7       	brne	.-10     	; 0x800 <poll_modem+0x53c>
     80a:	df 01       	movw	r26, r30
     80c:	1d 92       	st	X+, r1
     80e:	2d 01       	movw	r4, r26
     810:	00 e0       	ldi	r16, 0x00	; 0
     812:	01 c0       	rjmp	.+2      	; 0x816 <poll_modem+0x552>
     814:	0f 5f       	subi	r16, 0xFF	; 255
     816:	ee 24       	eor	r14, r14
     818:	e3 94       	inc	r14
     81a:	f1 2c       	mov	r15, r1
     81c:	ec 0e       	add	r14, r28
     81e:	fd 1e       	adc	r15, r29
     820:	b6 e0       	ldi	r27, 0x06	; 6
     822:	b0 9f       	mul	r27, r16
     824:	e0 0c       	add	r14, r0
     826:	f1 1c       	adc	r15, r1
     828:	11 24       	eor	r1, r1
     82a:	d2 01       	movw	r26, r4
     82c:	fd 01       	movw	r30, r26
     82e:	8d 91       	ld	r24, X+
     830:	88 23       	and	r24, r24
     832:	09 f4       	brne	.+2      	; 0x836 <poll_modem+0x572>
     834:	4c c0       	rjmp	.+152    	; 0x8ce <poll_modem+0x60a>
     836:	8c 32       	cpi	r24, 0x2C	; 44
     838:	c9 f7       	brne	.-14     	; 0x82c <poll_modem+0x568>
     83a:	6d c0       	rjmp	.+218    	; 0x916 <poll_modem+0x652>
     83c:	6b e0       	ldi	r22, 0x0B	; 11
     83e:	71 e2       	ldi	r23, 0x21	; 33
     840:	c2 01       	movw	r24, r4
     842:	0e 94 45 32 	call	0x648a	; 0x648a <strcmp>
     846:	00 97       	sbiw	r24, 0x00	; 0
     848:	71 f4       	brne	.+28     	; 0x866 <poll_modem+0x5a2>
     84a:	f7 01       	movw	r30, r14
     84c:	10 82       	st	Z, r1
     84e:	11 82       	std	Z+1, r1	; 0x01
     850:	c3 01       	movw	r24, r6
     852:	0e 94 fa 31 	call	0x63f4	; 0x63f4 <atol>
     856:	d7 01       	movw	r26, r14
     858:	12 96       	adiw	r26, 0x02	; 2
     85a:	6d 93       	st	X+, r22
     85c:	7d 93       	st	X+, r23
     85e:	8d 93       	st	X+, r24
     860:	9c 93       	st	X, r25
     862:	15 97       	sbiw	r26, 0x05	; 5
     864:	22 c0       	rjmp	.+68     	; 0x8aa <poll_modem+0x5e6>
     866:	67 ef       	ldi	r22, 0xF7	; 247
     868:	70 e2       	ldi	r23, 0x20	; 32
     86a:	c2 01       	movw	r24, r4
     86c:	0e 94 45 32 	call	0x648a	; 0x648a <strcmp>
     870:	00 97       	sbiw	r24, 0x00	; 0
     872:	69 f4       	brne	.+26     	; 0x88e <poll_modem+0x5ca>
     874:	22 e0       	ldi	r18, 0x02	; 2
     876:	30 e0       	ldi	r19, 0x00	; 0
     878:	f7 01       	movw	r30, r14
     87a:	20 83       	st	Z, r18
     87c:	31 83       	std	Z+1, r19	; 0x01
     87e:	81 e0       	ldi	r24, 0x01	; 1
     880:	14 35       	cpi	r17, 0x54	; 84
     882:	09 f0       	breq	.+2      	; 0x886 <poll_modem+0x5c2>
     884:	80 e0       	ldi	r24, 0x00	; 0
     886:	d7 01       	movw	r26, r14
     888:	12 96       	adiw	r26, 0x02	; 2
     88a:	8c 93       	st	X, r24
     88c:	0e c0       	rjmp	.+28     	; 0x8aa <poll_modem+0x5e6>
     88e:	6c ef       	ldi	r22, 0xFC	; 252
     890:	70 e2       	ldi	r23, 0x20	; 32
     892:	c2 01       	movw	r24, r4
     894:	0e 94 45 32 	call	0x648a	; 0x648a <strcmp>
     898:	00 97       	sbiw	r24, 0x00	; 0
     89a:	c9 f4       	brne	.+50     	; 0x8ce <poll_modem+0x60a>
     89c:	21 e0       	ldi	r18, 0x01	; 1
     89e:	30 e0       	ldi	r19, 0x00	; 0
     8a0:	f7 01       	movw	r30, r14
     8a2:	20 83       	st	Z, r18
     8a4:	31 83       	std	Z+1, r19	; 0x01
     8a6:	62 82       	std	Z+2, r6	; 0x02
     8a8:	73 82       	std	Z+3, r7	; 0x03
     8aa:	f3 01       	movw	r30, r6
     8ac:	9e 2f       	mov	r25, r30
     8ae:	2f 2f       	mov	r18, r31
     8b0:	81 91       	ld	r24, Z+
     8b2:	81 11       	cpse	r24, r1
     8b4:	09 c0       	rjmp	.+18     	; 0x8c8 <poll_modem+0x604>
     8b6:	49 2e       	mov	r4, r25
     8b8:	52 2e       	mov	r5, r18
     8ba:	d2 01       	movw	r26, r4
     8bc:	1d 92       	st	X+, r1
     8be:	2d 01       	movw	r4, r26
     8c0:	10 97       	sbiw	r26, 0x00	; 0
     8c2:	09 f0       	breq	.+2      	; 0x8c6 <poll_modem+0x602>
     8c4:	a7 cf       	rjmp	.-178    	; 0x814 <poll_modem+0x550>
     8c6:	03 c0       	rjmp	.+6      	; 0x8ce <poll_modem+0x60a>
     8c8:	8c 32       	cpi	r24, 0x2C	; 44
     8ca:	81 f7       	brne	.-32     	; 0x8ac <poll_modem+0x5e8>
     8cc:	f4 cf       	rjmp	.-24     	; 0x8b6 <poll_modem+0x5f2>
     8ce:	e0 91 bf 24 	lds	r30, 0x24BF
     8d2:	f0 91 c0 24 	lds	r31, 0x24C0
     8d6:	30 97       	sbiw	r30, 0x00	; 0
     8d8:	09 f4       	brne	.+2      	; 0x8dc <poll_modem+0x618>
     8da:	0b cd       	rjmp	.-1514   	; 0x2f2 <poll_modem+0x2e>
     8dc:	ee 24       	eor	r14, r14
     8de:	e3 94       	inc	r14
     8e0:	f1 2c       	mov	r15, r1
     8e2:	ec 0e       	add	r14, r28
     8e4:	fd 1e       	adc	r15, r29
     8e6:	96 01       	movw	r18, r12
     8e8:	a1 01       	movw	r20, r2
     8ea:	c5 01       	movw	r24, r10
     8ec:	b4 01       	movw	r22, r8
     8ee:	09 95       	icall
     8f0:	00 cd       	rjmp	.-1536   	; 0x2f2 <poll_modem+0x2e>
     8f2:	02 2f       	mov	r16, r18
     8f4:	19 2f       	mov	r17, r25
     8f6:	f8 01       	movw	r30, r16
     8f8:	11 92       	st	Z+, r1
     8fa:	8f 01       	movw	r16, r30
     8fc:	4f 01       	movw	r8, r30
     8fe:	e9 ce       	rjmp	.-558    	; 0x6d2 <poll_modem+0x40e>
     900:	d6 01       	movw	r26, r12
     902:	1c 92       	st	X, r1
     904:	6b e0       	ldi	r22, 0x0B	; 11
     906:	71 e2       	ldi	r23, 0x21	; 33
     908:	c8 01       	movw	r24, r16
     90a:	0e 94 45 32 	call	0x648a	; 0x648a <strcmp>
     90e:	00 97       	sbiw	r24, 0x00	; 0
     910:	09 f4       	brne	.+2      	; 0x914 <poll_modem+0x650>
     912:	eb ce       	rjmp	.-554    	; 0x6ea <poll_modem+0x426>
     914:	f8 ce       	rjmp	.-528    	; 0x706 <poll_modem+0x442>
     916:	df 01       	movw	r26, r30
     918:	1d 92       	st	X+, r1
     91a:	3d 01       	movw	r6, r26
     91c:	11 81       	ldd	r17, Z+1	; 0x01
     91e:	11 11       	cpse	r17, r1
     920:	8d cf       	rjmp	.-230    	; 0x83c <poll_modem+0x578>
     922:	d5 cf       	rjmp	.-86     	; 0x8ce <poll_modem+0x60a>
     924:	aa 96       	adiw	r28, 0x2a	; 42
     926:	cd bf       	out	0x3d, r28	; 61
     928:	de bf       	out	0x3e, r29	; 62
     92a:	df 91       	pop	r29
     92c:	cf 91       	pop	r28
     92e:	1f 91       	pop	r17
     930:	0f 91       	pop	r16
     932:	ff 90       	pop	r15
     934:	ef 90       	pop	r14
     936:	df 90       	pop	r13
     938:	cf 90       	pop	r12
     93a:	bf 90       	pop	r11
     93c:	af 90       	pop	r10
     93e:	9f 90       	pop	r9
     940:	8f 90       	pop	r8
     942:	7f 90       	pop	r7
     944:	6f 90       	pop	r6
     946:	5f 90       	pop	r5
     948:	4f 90       	pop	r4
     94a:	3f 90       	pop	r3
     94c:	2f 90       	pop	r2
     94e:	08 95       	ret

00000950 <blocked_poll_response>:
     950:	cf 93       	push	r28
     952:	df 93       	push	r29
     954:	ec 01       	movw	r28, r24
     956:	33 e0       	ldi	r19, 0x03	; 3
     958:	66 0f       	add	r22, r22
     95a:	77 1f       	adc	r23, r23
     95c:	3a 95       	dec	r19
     95e:	e1 f7       	brne	.-8      	; 0x958 <blocked_poll_response+0x8>
     960:	83 e0       	ldi	r24, 0x03	; 3
     962:	0e 94 c3 1b 	call	0x3786	; 0x3786 <timeout_start_singleshot>
     966:	11 c0       	rjmp	.+34     	; 0x98a <blocked_poll_response+0x3a>
     968:	83 e0       	ldi	r24, 0x03	; 3
     96a:	0e 94 c9 1b 	call	0x3792	; 0x3792 <timeout_test_and_clear_expired>
     96e:	88 23       	and	r24, r24
     970:	39 f0       	breq	.+14     	; 0x980 <blocked_poll_response+0x30>
     972:	85 e0       	ldi	r24, 0x05	; 5
     974:	90 e0       	ldi	r25, 0x00	; 0
     976:	80 93 a5 24 	sts	0x24A5, r24
     97a:	90 93 a6 24 	sts	0x24A6, r25
     97e:	0b c0       	rjmp	.+22     	; 0x996 <blocked_poll_response+0x46>
     980:	a1 dc       	rcall	.-1726   	; 0x2c4 <poll_modem>
     982:	20 97       	sbiw	r28, 0x00	; 0
     984:	11 f0       	breq	.+4      	; 0x98a <blocked_poll_response+0x3a>
     986:	fe 01       	movw	r30, r28
     988:	09 95       	icall
     98a:	80 91 a5 24 	lds	r24, 0x24A5
     98e:	90 91 a6 24 	lds	r25, 0x24A6
     992:	01 97       	sbiw	r24, 0x01	; 1
     994:	49 f3       	breq	.-46     	; 0x968 <blocked_poll_response+0x18>
     996:	83 e0       	ldi	r24, 0x03	; 3
     998:	df 91       	pop	r29
     99a:	cf 91       	pop	r28
     99c:	0c 94 e9 1b 	jmp	0x37d2	; 0x37d2 <timeout_stop>

000009a0 <put_path>:
     9a0:	cf 93       	push	r28
     9a2:	df 93       	push	r29
     9a4:	eb 01       	movw	r28, r22
     9a6:	61 e1       	ldi	r22, 0x11	; 17
     9a8:	71 e2       	ldi	r23, 0x21	; 33
     9aa:	0e 94 e5 10 	call	0x21ca	; 0x21ca <MODEM_crc_puts>
     9ae:	be 01       	movw	r22, r28
     9b0:	0e 94 e5 10 	call	0x21ca	; 0x21ca <MODEM_crc_puts>
     9b4:	64 e1       	ldi	r22, 0x14	; 20
     9b6:	71 e2       	ldi	r23, 0x21	; 33
     9b8:	df 91       	pop	r29
     9ba:	cf 91       	pop	r28
     9bc:	0c 94 e5 10 	jmp	0x21ca	; 0x21ca <MODEM_crc_puts>

000009c0 <blocked_at_req>:
     9c0:	ef 92       	push	r14
     9c2:	ff 92       	push	r15
     9c4:	0f 93       	push	r16
     9c6:	1f 93       	push	r17
     9c8:	cf 93       	push	r28
     9ca:	df 93       	push	r29
     9cc:	ec 01       	movw	r28, r24
     9ce:	7b 01       	movw	r14, r22
     9d0:	8a 01       	movw	r16, r20
     9d2:	78 dc       	rcall	.-1808   	; 0x2c4 <poll_modem>
     9d4:	80 91 a5 24 	lds	r24, 0x24A5
     9d8:	90 91 a6 24 	lds	r25, 0x24A6
     9dc:	89 2b       	or	r24, r25
     9de:	31 f5       	brne	.+76     	; 0xa2c <blocked_at_req+0x6c>
     9e0:	81 e0       	ldi	r24, 0x01	; 1
     9e2:	90 e0       	ldi	r25, 0x00	; 0
     9e4:	80 93 a5 24 	sts	0x24A5, r24
     9e8:	90 93 a6 24 	sts	0x24A6, r25
     9ec:	c7 01       	movw	r24, r14
     9ee:	0e 94 cf 10 	call	0x219e	; 0x219e <MODEM_raw_puts>
     9f2:	8d e0       	ldi	r24, 0x0D	; 13
     9f4:	0e 94 c9 10 	call	0x2192	; 0x2192 <MODEM_raw_putb>
     9f8:	b8 01       	movw	r22, r16
     9fa:	ce 01       	movw	r24, r28
     9fc:	a9 df       	rcall	.-174    	; 0x950 <blocked_poll_response>
     9fe:	81 e0       	ldi	r24, 0x01	; 1
     a00:	20 91 a5 24 	lds	r18, 0x24A5
     a04:	30 91 a6 24 	lds	r19, 0x24A6
     a08:	23 30       	cpi	r18, 0x03	; 3
     a0a:	31 05       	cpc	r19, r1
     a0c:	09 f0       	breq	.+2      	; 0xa10 <blocked_at_req+0x50>
     a0e:	80 e0       	ldi	r24, 0x00	; 0
     a10:	10 92 a5 24 	sts	0x24A5, r1
     a14:	10 92 a6 24 	sts	0x24A6, r1
     a18:	81 11       	cpse	r24, r1
     a1a:	04 c0       	rjmp	.+8      	; 0xa24 <blocked_at_req+0x64>
     a1c:	90 91 aa 24 	lds	r25, 0x24AA
     a20:	9f 5f       	subi	r25, 0xFF	; 255
     a22:	01 c0       	rjmp	.+2      	; 0xa26 <blocked_at_req+0x66>
     a24:	90 e0       	ldi	r25, 0x00	; 0
     a26:	90 93 aa 24 	sts	0x24AA, r25
     a2a:	01 c0       	rjmp	.+2      	; 0xa2e <blocked_at_req+0x6e>
     a2c:	80 e0       	ldi	r24, 0x00	; 0
     a2e:	df 91       	pop	r29
     a30:	cf 91       	pop	r28
     a32:	1f 91       	pop	r17
     a34:	0f 91       	pop	r16
     a36:	ff 90       	pop	r15
     a38:	ef 90       	pop	r14
     a3a:	08 95       	ret

00000a3c <blocked_sync_modem.constprop.1>:
     a3c:	cf 93       	push	r28
     a3e:	c4 e0       	ldi	r28, 0x04	; 4
     a40:	10 92 a4 23 	sts	0x23A4, r1
     a44:	10 92 a4 24 	sts	0x24A4, r1
     a48:	3d dc       	rcall	.-1926   	; 0x2c4 <poll_modem>
     a4a:	41 e0       	ldi	r20, 0x01	; 1
     a4c:	50 e0       	ldi	r21, 0x00	; 0
     a4e:	63 e5       	ldi	r22, 0x53	; 83
     a50:	70 e2       	ldi	r23, 0x20	; 32
     a52:	80 e0       	ldi	r24, 0x00	; 0
     a54:	90 e0       	ldi	r25, 0x00	; 0
     a56:	b4 df       	rcall	.-152    	; 0x9c0 <blocked_at_req>
     a58:	81 11       	cpse	r24, r1
     a5a:	03 c0       	rjmp	.+6      	; 0xa62 <blocked_sync_modem.constprop.1+0x26>
     a5c:	c1 50       	subi	r28, 0x01	; 1
     a5e:	81 f7       	brne	.-32     	; 0xa40 <blocked_sync_modem.constprop.1+0x4>
     a60:	01 c0       	rjmp	.+2      	; 0xa64 <blocked_sync_modem.constprop.1+0x28>
     a62:	81 e0       	ldi	r24, 0x01	; 1
     a64:	cf 91       	pop	r28
     a66:	08 95       	ret

00000a68 <awt_dispatch_event_req>:
     a68:	bf 92       	push	r11
     a6a:	cf 92       	push	r12
     a6c:	df 92       	push	r13
     a6e:	ef 92       	push	r14
     a70:	ff 92       	push	r15
     a72:	0f 93       	push	r16
     a74:	1f 93       	push	r17
     a76:	cf 93       	push	r28
     a78:	df 93       	push	r29
     a7a:	cd b7       	in	r28, 0x3d	; 61
     a7c:	de b7       	in	r29, 0x3e	; 62
     a7e:	60 97       	sbiw	r28, 0x10	; 16
     a80:	cd bf       	out	0x3d, r28	; 61
     a82:	de bf       	out	0x3e, r29	; 62
     a84:	7c 01       	movw	r14, r24
     a86:	6b 01       	movw	r12, r22
     a88:	8a 01       	movw	r16, r20
     a8a:	1c dc       	rcall	.-1992   	; 0x2c4 <poll_modem>
     a8c:	80 91 a5 24 	lds	r24, 0x24A5
     a90:	90 91 a6 24 	lds	r25, 0x24A6
     a94:	89 2b       	or	r24, r25
     a96:	09 f0       	breq	.+2      	; 0xa9a <awt_dispatch_event_req+0x32>
     a98:	66 c0       	rjmp	.+204    	; 0xb66 <awt_dispatch_event_req+0xfe>
     a9a:	81 e0       	ldi	r24, 0x01	; 1
     a9c:	90 e0       	ldi	r25, 0x00	; 0
     a9e:	80 93 a5 24 	sts	0x24A5, r24
     aa2:	90 93 a6 24 	sts	0x24A6, r25
     aa6:	68 e6       	ldi	r22, 0x68	; 104
     aa8:	71 e0       	ldi	r23, 0x01	; 1
     aaa:	83 e0       	ldi	r24, 0x03	; 3
     aac:	0e 94 c3 1b 	call	0x3786	; 0x3786 <timeout_start_singleshot>
     ab0:	87 e1       	ldi	r24, 0x17	; 23
     ab2:	91 e2       	ldi	r25, 0x21	; 33
     ab4:	0e 94 cf 10 	call	0x219e	; 0x219e <MODEM_raw_puts>
     ab8:	64 e2       	ldi	r22, 0x24	; 36
     aba:	71 e2       	ldi	r23, 0x21	; 33
     abc:	8f ef       	ldi	r24, 0xFF	; 255
     abe:	0e 94 e5 10 	call	0x21ca	; 0x21ca <MODEM_crc_puts>
     ac2:	b8 2e       	mov	r11, r24
     ac4:	52 d6       	rcall	.+3236   	; 0x176a <epoch_get>
     ac6:	2a e0       	ldi	r18, 0x0A	; 10
     ac8:	30 e0       	ldi	r19, 0x00	; 0
     aca:	ae 01       	movw	r20, r28
     acc:	4f 5f       	subi	r20, 0xFF	; 255
     ace:	5f 4f       	sbci	r21, 0xFF	; 255
     ad0:	0e 94 d1 32 	call	0x65a2	; 0x65a2 <ultoa>
     ad4:	bc 01       	movw	r22, r24
     ad6:	8b 2d       	mov	r24, r11
     ad8:	0e 94 e5 10 	call	0x21ca	; 0x21ca <MODEM_crc_puts>
     adc:	b6 01       	movw	r22, r12
     ade:	60 df       	rcall	.-320    	; 0x9a0 <put_path>
     ae0:	d8 2e       	mov	r13, r24
     ae2:	4a e0       	ldi	r20, 0x0A	; 10
     ae4:	50 e0       	ldi	r21, 0x00	; 0
     ae6:	be 01       	movw	r22, r28
     ae8:	6f 5f       	subi	r22, 0xFF	; 255
     aea:	7f 4f       	sbci	r23, 0xFF	; 255
     aec:	f8 01       	movw	r30, r16
     aee:	84 81       	ldd	r24, Z+4	; 0x04
     af0:	95 81       	ldd	r25, Z+5	; 0x05
     af2:	0e 94 6b 32 	call	0x64d6	; 0x64d6 <itoa>
     af6:	bc 01       	movw	r22, r24
     af8:	8d 2d       	mov	r24, r13
     afa:	0e 94 e5 10 	call	0x21ca	; 0x21ca <MODEM_crc_puts>
     afe:	d8 2e       	mov	r13, r24
     b00:	f8 01       	movw	r30, r16
     b02:	20 85       	ldd	r18, Z+8	; 0x08
     b04:	31 85       	ldd	r19, Z+9	; 0x09
     b06:	23 2b       	or	r18, r19
     b08:	69 f0       	breq	.+26     	; 0xb24 <awt_dispatch_event_req+0xbc>
     b0a:	61 e1       	ldi	r22, 0x11	; 17
     b0c:	71 e2       	ldi	r23, 0x21	; 33
     b0e:	0e 94 e5 10 	call	0x21ca	; 0x21ca <MODEM_crc_puts>
     b12:	f8 01       	movw	r30, r16
     b14:	60 85       	ldd	r22, Z+8	; 0x08
     b16:	71 85       	ldd	r23, Z+9	; 0x09
     b18:	0e 94 e5 10 	call	0x21ca	; 0x21ca <MODEM_crc_puts>
     b1c:	62 e2       	ldi	r22, 0x22	; 34
     b1e:	0e 94 da 10 	call	0x21b4	; 0x21b4 <MODEM_crc_putb>
     b22:	d8 2e       	mov	r13, r24
     b24:	88 e2       	ldi	r24, 0x28	; 40
     b26:	91 e2       	ldi	r25, 0x21	; 33
     b28:	0e 94 cf 10 	call	0x219e	; 0x219e <MODEM_raw_puts>
     b2c:	ad 2d       	mov	r26, r13
     b2e:	a2 95       	swap	r26
     b30:	af 70       	andi	r26, 0x0F	; 15
     b32:	b0 e0       	ldi	r27, 0x00	; 0
     b34:	a3 52       	subi	r26, 0x23	; 35
     b36:	be 4d       	sbci	r27, 0xDE	; 222
     b38:	8c 91       	ld	r24, X
     b3a:	0e 94 c9 10 	call	0x2192	; 0x2192 <MODEM_raw_putb>
     b3e:	ed 2d       	mov	r30, r13
     b40:	ef 70       	andi	r30, 0x0F	; 15
     b42:	f0 e0       	ldi	r31, 0x00	; 0
     b44:	e3 52       	subi	r30, 0x23	; 35
     b46:	fe 4d       	sbci	r31, 0xDE	; 222
     b48:	80 81       	ld	r24, Z
     b4a:	0e 94 c9 10 	call	0x2192	; 0x2192 <MODEM_raw_putb>
     b4e:	e0 92 c3 24 	sts	0x24C3, r14
     b52:	f0 92 c4 24 	sts	0x24C4, r15
     b56:	81 e0       	ldi	r24, 0x01	; 1
     b58:	80 93 a8 24 	sts	0x24A8, r24
     b5c:	8d e0       	ldi	r24, 0x0D	; 13
     b5e:	0e 94 c9 10 	call	0x2192	; 0x2192 <MODEM_raw_putb>
     b62:	81 e0       	ldi	r24, 0x01	; 1
     b64:	01 c0       	rjmp	.+2      	; 0xb68 <awt_dispatch_event_req+0x100>
     b66:	80 e0       	ldi	r24, 0x00	; 0
     b68:	60 96       	adiw	r28, 0x10	; 16
     b6a:	cd bf       	out	0x3d, r28	; 61
     b6c:	de bf       	out	0x3e, r29	; 62
     b6e:	df 91       	pop	r29
     b70:	cf 91       	pop	r28
     b72:	1f 91       	pop	r17
     b74:	0f 91       	pop	r16
     b76:	ff 90       	pop	r15
     b78:	ef 90       	pop	r14
     b7a:	df 90       	pop	r13
     b7c:	cf 90       	pop	r12
     b7e:	bf 90       	pop	r11
     b80:	08 95       	ret

00000b82 <awt_dispatch_data_req>:
     b82:	8f 92       	push	r8
     b84:	9f 92       	push	r9
     b86:	af 92       	push	r10
     b88:	bf 92       	push	r11
     b8a:	cf 92       	push	r12
     b8c:	df 92       	push	r13
     b8e:	ef 92       	push	r14
     b90:	ff 92       	push	r15
     b92:	0f 93       	push	r16
     b94:	1f 93       	push	r17
     b96:	cf 93       	push	r28
     b98:	df 93       	push	r29
     b9a:	cd b7       	in	r28, 0x3d	; 61
     b9c:	de b7       	in	r29, 0x3e	; 62
     b9e:	60 97       	sbiw	r28, 0x10	; 16
     ba0:	cd bf       	out	0x3d, r28	; 61
     ba2:	de bf       	out	0x3e, r29	; 62
     ba4:	6c 01       	movw	r12, r24
     ba6:	8b 01       	movw	r16, r22
     ba8:	b4 2e       	mov	r11, r20
     baa:	92 2e       	mov	r9, r18
     bac:	a3 2e       	mov	r10, r19
     bae:	8a db       	rcall	.-2284   	; 0x2c4 <poll_modem>
     bb0:	80 91 a5 24 	lds	r24, 0x24A5
     bb4:	90 91 a6 24 	lds	r25, 0x24A6
     bb8:	89 2b       	or	r24, r25
     bba:	09 f0       	breq	.+2      	; 0xbbe <awt_dispatch_data_req+0x3c>
     bbc:	95 c0       	rjmp	.+298    	; 0xce8 <awt_dispatch_data_req+0x166>
     bbe:	81 e0       	ldi	r24, 0x01	; 1
     bc0:	90 e0       	ldi	r25, 0x00	; 0
     bc2:	80 93 a5 24 	sts	0x24A5, r24
     bc6:	90 93 a6 24 	sts	0x24A6, r25
     bca:	68 e6       	ldi	r22, 0x68	; 104
     bcc:	71 e0       	ldi	r23, 0x01	; 1
     bce:	83 e0       	ldi	r24, 0x03	; 3
     bd0:	0e 94 c3 1b 	call	0x3786	; 0x3786 <timeout_start_singleshot>
     bd4:	87 e1       	ldi	r24, 0x17	; 23
     bd6:	91 e2       	ldi	r25, 0x21	; 33
     bd8:	0e 94 cf 10 	call	0x219e	; 0x219e <MODEM_raw_puts>
     bdc:	64 e6       	ldi	r22, 0x64	; 100
     bde:	8f ef       	ldi	r24, 0xFF	; 255
     be0:	0e 94 da 10 	call	0x21b4	; 0x21b4 <MODEM_crc_putb>
     be4:	63 e6       	ldi	r22, 0x63	; 99
     be6:	0e 94 da 10 	call	0x21b4	; 0x21b4 <MODEM_crc_putb>
     bea:	b8 01       	movw	r22, r16
     bec:	d9 de       	rcall	.-590    	; 0x9a0 <put_path>
     bee:	18 2f       	mov	r17, r24
     bf0:	4a e0       	ldi	r20, 0x0A	; 10
     bf2:	50 e0       	ldi	r21, 0x00	; 0
     bf4:	ee 24       	eor	r14, r14
     bf6:	e3 94       	inc	r14
     bf8:	f1 2c       	mov	r15, r1
     bfa:	ec 0e       	add	r14, r28
     bfc:	fd 1e       	adc	r15, r29
     bfe:	b7 01       	movw	r22, r14
     c00:	8b 2d       	mov	r24, r11
     c02:	90 e0       	ldi	r25, 0x00	; 0
     c04:	0e 94 f4 32 	call	0x65e8	; 0x65e8 <utoa>
     c08:	bc 01       	movw	r22, r24
     c0a:	81 2f       	mov	r24, r17
     c0c:	0e 94 e5 10 	call	0x21ca	; 0x21ca <MODEM_crc_puts>
     c10:	88 2e       	mov	r8, r24
     c12:	09 2d       	mov	r16, r9
     c14:	1a 2d       	mov	r17, r10
     c16:	45 c0       	rjmp	.+138    	; 0xca2 <awt_dispatch_data_req+0x120>
     c18:	61 e1       	ldi	r22, 0x11	; 17
     c1a:	71 e2       	ldi	r23, 0x21	; 33
     c1c:	88 2d       	mov	r24, r8
     c1e:	0e 94 e5 10 	call	0x21ca	; 0x21ca <MODEM_crc_puts>
     c22:	f8 01       	movw	r30, r16
     c24:	60 81       	ld	r22, Z
     c26:	71 81       	ldd	r23, Z+1	; 0x01
     c28:	0e 94 e5 10 	call	0x21ca	; 0x21ca <MODEM_crc_puts>
     c2c:	f8 01       	movw	r30, r16
     c2e:	22 81       	ldd	r18, Z+2	; 0x02
     c30:	33 81       	ldd	r19, Z+3	; 0x03
     c32:	21 30       	cpi	r18, 0x01	; 1
     c34:	31 05       	cpc	r19, r1
     c36:	b9 f0       	breq	.+46     	; 0xc66 <awt_dispatch_data_req+0xe4>
     c38:	20 f0       	brcs	.+8      	; 0xc42 <awt_dispatch_data_req+0xc0>
     c3a:	22 30       	cpi	r18, 0x02	; 2
     c3c:	31 05       	cpc	r19, r1
     c3e:	51 f5       	brne	.+84     	; 0xc94 <awt_dispatch_data_req+0x112>
     c40:	1c c0       	rjmp	.+56     	; 0xc7a <awt_dispatch_data_req+0xf8>
     c42:	6d e2       	ldi	r22, 0x2D	; 45
     c44:	71 e2       	ldi	r23, 0x21	; 33
     c46:	0e 94 e5 10 	call	0x21ca	; 0x21ca <MODEM_crc_puts>
     c4a:	a8 2e       	mov	r10, r24
     c4c:	f8 01       	movw	r30, r16
     c4e:	64 81       	ldd	r22, Z+4	; 0x04
     c50:	75 81       	ldd	r23, Z+5	; 0x05
     c52:	86 81       	ldd	r24, Z+6	; 0x06
     c54:	97 81       	ldd	r25, Z+7	; 0x07
     c56:	2a e0       	ldi	r18, 0x0A	; 10
     c58:	30 e0       	ldi	r19, 0x00	; 0
     c5a:	a7 01       	movw	r20, r14
     c5c:	0e 94 8a 32 	call	0x6514	; 0x6514 <ltoa>
     c60:	bc 01       	movw	r22, r24
     c62:	8a 2d       	mov	r24, r10
     c64:	07 c0       	rjmp	.+14     	; 0xc74 <awt_dispatch_data_req+0xf2>
     c66:	65 e3       	ldi	r22, 0x35	; 53
     c68:	71 e2       	ldi	r23, 0x21	; 33
     c6a:	0e 94 e5 10 	call	0x21ca	; 0x21ca <MODEM_crc_puts>
     c6e:	f8 01       	movw	r30, r16
     c70:	64 81       	ldd	r22, Z+4	; 0x04
     c72:	75 81       	ldd	r23, Z+5	; 0x05
     c74:	0e 94 e5 10 	call	0x21ca	; 0x21ca <MODEM_crc_puts>
     c78:	0d c0       	rjmp	.+26     	; 0xc94 <awt_dispatch_data_req+0x112>
     c7a:	6b e3       	ldi	r22, 0x3B	; 59
     c7c:	71 e2       	ldi	r23, 0x21	; 33
     c7e:	0e 94 e5 10 	call	0x21ca	; 0x21ca <MODEM_crc_puts>
     c82:	f8 01       	movw	r30, r16
     c84:	94 81       	ldd	r25, Z+4	; 0x04
     c86:	99 23       	and	r25, r25
     c88:	11 f0       	breq	.+4      	; 0xc8e <awt_dispatch_data_req+0x10c>
     c8a:	64 e5       	ldi	r22, 0x54	; 84
     c8c:	01 c0       	rjmp	.+2      	; 0xc90 <awt_dispatch_data_req+0x10e>
     c8e:	66 e4       	ldi	r22, 0x46	; 70
     c90:	0e 94 da 10 	call	0x21b4	; 0x21b4 <MODEM_crc_putb>
     c94:	62 e2       	ldi	r22, 0x22	; 34
     c96:	0e 94 da 10 	call	0x21b4	; 0x21b4 <MODEM_crc_putb>
     c9a:	88 2e       	mov	r8, r24
     c9c:	ba 94       	dec	r11
     c9e:	08 5f       	subi	r16, 0xF8	; 248
     ca0:	1f 4f       	sbci	r17, 0xFF	; 255
     ca2:	b1 10       	cpse	r11, r1
     ca4:	b9 cf       	rjmp	.-142    	; 0xc18 <awt_dispatch_data_req+0x96>
     ca6:	88 e2       	ldi	r24, 0x28	; 40
     ca8:	91 e2       	ldi	r25, 0x21	; 33
     caa:	0e 94 cf 10 	call	0x219e	; 0x219e <MODEM_raw_puts>
     cae:	a8 2d       	mov	r26, r8
     cb0:	a2 95       	swap	r26
     cb2:	af 70       	andi	r26, 0x0F	; 15
     cb4:	b0 e0       	ldi	r27, 0x00	; 0
     cb6:	a3 52       	subi	r26, 0x23	; 35
     cb8:	be 4d       	sbci	r27, 0xDE	; 222
     cba:	8c 91       	ld	r24, X
     cbc:	0e 94 c9 10 	call	0x2192	; 0x2192 <MODEM_raw_putb>
     cc0:	e8 2d       	mov	r30, r8
     cc2:	ef 70       	andi	r30, 0x0F	; 15
     cc4:	f0 e0       	ldi	r31, 0x00	; 0
     cc6:	e3 52       	subi	r30, 0x23	; 35
     cc8:	fe 4d       	sbci	r31, 0xDE	; 222
     cca:	80 81       	ld	r24, Z
     ccc:	0e 94 c9 10 	call	0x2192	; 0x2192 <MODEM_raw_putb>
     cd0:	81 e0       	ldi	r24, 0x01	; 1
     cd2:	80 93 a8 24 	sts	0x24A8, r24
     cd6:	c0 92 c3 24 	sts	0x24C3, r12
     cda:	d0 92 c4 24 	sts	0x24C4, r13
     cde:	8d e0       	ldi	r24, 0x0D	; 13
     ce0:	0e 94 c9 10 	call	0x2192	; 0x2192 <MODEM_raw_putb>
     ce4:	81 e0       	ldi	r24, 0x01	; 1
     ce6:	01 c0       	rjmp	.+2      	; 0xcea <awt_dispatch_data_req+0x168>
     ce8:	80 e0       	ldi	r24, 0x00	; 0
     cea:	60 96       	adiw	r28, 0x10	; 16
     cec:	cd bf       	out	0x3d, r28	; 61
     cee:	de bf       	out	0x3e, r29	; 62
     cf0:	df 91       	pop	r29
     cf2:	cf 91       	pop	r28
     cf4:	1f 91       	pop	r17
     cf6:	0f 91       	pop	r16
     cf8:	ff 90       	pop	r15
     cfa:	ef 90       	pop	r14
     cfc:	df 90       	pop	r13
     cfe:	cf 90       	pop	r12
     d00:	bf 90       	pop	r11
     d02:	af 90       	pop	r10
     d04:	9f 90       	pop	r9
     d06:	8f 90       	pop	r8
     d08:	08 95       	ret

00000d0a <awt_send_any_enqueued_acks>:
     d0a:	6f 92       	push	r6
     d0c:	7f 92       	push	r7
     d0e:	8f 92       	push	r8
     d10:	9f 92       	push	r9
     d12:	af 92       	push	r10
     d14:	bf 92       	push	r11
     d16:	cf 92       	push	r12
     d18:	df 92       	push	r13
     d1a:	ef 92       	push	r14
     d1c:	ff 92       	push	r15
     d1e:	0f 93       	push	r16
     d20:	1f 93       	push	r17
     d22:	cf 93       	push	r28
     d24:	df 93       	push	r29
     d26:	cd b7       	in	r28, 0x3d	; 61
     d28:	de b7       	in	r29, 0x3e	; 62
     d2a:	60 97       	sbiw	r28, 0x10	; 16
     d2c:	cd bf       	out	0x3d, r28	; 61
     d2e:	de bf       	out	0x3e, r29	; 62
     d30:	5c 01       	movw	r10, r24
     d32:	77 e3       	ldi	r23, 0x37	; 55
     d34:	77 2e       	mov	r7, r23
     d36:	88 24       	eor	r8, r8
     d38:	83 94       	inc	r8
     d3a:	91 2c       	mov	r9, r1
     d3c:	77 c0       	rjmp	.+238    	; 0xe2c <awt_send_any_enqueued_acks+0x122>
     d3e:	10 e0       	ldi	r17, 0x00	; 0
     d40:	70 9e       	mul	r7, r16
     d42:	f0 01       	movw	r30, r0
     d44:	71 9e       	mul	r7, r17
     d46:	f0 0d       	add	r31, r0
     d48:	11 24       	eor	r1, r1
     d4a:	e9 53       	subi	r30, 0x39	; 57
     d4c:	fb 4d       	sbci	r31, 0xDB	; 219
     d4e:	c4 a8       	ldd	r12, Z+52	; 0x34
     d50:	d5 a8       	ldd	r13, Z+53	; 0x35
     d52:	e6 a8       	ldd	r14, Z+54	; 0x36
     d54:	f7 a8       	ldd	r15, Z+55	; 0x37
     d56:	60 ac       	ldd	r6, Z+56	; 0x38
     d58:	b5 da       	rcall	.-2710   	; 0x2c4 <poll_modem>
     d5a:	80 91 a5 24 	lds	r24, 0x24A5
     d5e:	90 91 a6 24 	lds	r25, 0x24A6
     d62:	89 2b       	or	r24, r25
     d64:	09 f0       	breq	.+2      	; 0xd68 <awt_send_any_enqueued_acks+0x5e>
     d66:	68 c0       	rjmp	.+208    	; 0xe38 <awt_send_any_enqueued_acks+0x12e>
     d68:	80 92 a5 24 	sts	0x24A5, r8
     d6c:	90 92 a6 24 	sts	0x24A6, r9
     d70:	87 e1       	ldi	r24, 0x17	; 23
     d72:	91 e2       	ldi	r25, 0x21	; 33
     d74:	0e 94 cf 10 	call	0x219e	; 0x219e <MODEM_raw_puts>
     d78:	66 20       	and	r6, r6
     d7a:	11 f0       	breq	.+4      	; 0xd80 <awt_send_any_enqueued_acks+0x76>
     d7c:	61 e6       	ldi	r22, 0x61	; 97
     d7e:	01 c0       	rjmp	.+2      	; 0xd82 <awt_send_any_enqueued_acks+0x78>
     d80:	6e e6       	ldi	r22, 0x6E	; 110
     d82:	8f ef       	ldi	r24, 0xFF	; 255
     d84:	0e 94 da 10 	call	0x21b4	; 0x21b4 <MODEM_crc_putb>
     d88:	70 9e       	mul	r7, r16
     d8a:	b0 01       	movw	r22, r0
     d8c:	71 9e       	mul	r7, r17
     d8e:	70 0d       	add	r23, r0
     d90:	11 24       	eor	r1, r1
     d92:	67 53       	subi	r22, 0x37	; 55
     d94:	7b 4d       	sbci	r23, 0xDB	; 219
     d96:	04 de       	rcall	.-1016   	; 0x9a0 <put_path>
     d98:	18 2f       	mov	r17, r24
     d9a:	2a e0       	ldi	r18, 0x0A	; 10
     d9c:	30 e0       	ldi	r19, 0x00	; 0
     d9e:	ae 01       	movw	r20, r28
     da0:	4f 5f       	subi	r20, 0xFF	; 255
     da2:	5f 4f       	sbci	r21, 0xFF	; 255
     da4:	c7 01       	movw	r24, r14
     da6:	b6 01       	movw	r22, r12
     da8:	0e 94 d1 32 	call	0x65a2	; 0x65a2 <ultoa>
     dac:	bc 01       	movw	r22, r24
     dae:	81 2f       	mov	r24, r17
     db0:	0e 94 e5 10 	call	0x21ca	; 0x21ca <MODEM_crc_puts>
     db4:	18 2f       	mov	r17, r24
     db6:	88 e2       	ldi	r24, 0x28	; 40
     db8:	91 e2       	ldi	r25, 0x21	; 33
     dba:	0e 94 cf 10 	call	0x219e	; 0x219e <MODEM_raw_puts>
     dbe:	a1 2f       	mov	r26, r17
     dc0:	a2 95       	swap	r26
     dc2:	af 70       	andi	r26, 0x0F	; 15
     dc4:	b0 e0       	ldi	r27, 0x00	; 0
     dc6:	a3 52       	subi	r26, 0x23	; 35
     dc8:	be 4d       	sbci	r27, 0xDE	; 222
     dca:	8c 91       	ld	r24, X
     dcc:	0e 94 c9 10 	call	0x2192	; 0x2192 <MODEM_raw_putb>
     dd0:	1f 70       	andi	r17, 0x0F	; 15
     dd2:	e1 2f       	mov	r30, r17
     dd4:	f0 e0       	ldi	r31, 0x00	; 0
     dd6:	e3 52       	subi	r30, 0x23	; 35
     dd8:	fe 4d       	sbci	r31, 0xDE	; 222
     dda:	80 81       	ld	r24, Z
     ddc:	0e 94 c9 10 	call	0x2192	; 0x2192 <MODEM_raw_putb>
     de0:	10 92 a8 24 	sts	0x24A8, r1
     de4:	8d e0       	ldi	r24, 0x0D	; 13
     de6:	0e 94 c9 10 	call	0x2192	; 0x2192 <MODEM_raw_putb>
     dea:	6d e2       	ldi	r22, 0x2D	; 45
     dec:	70 e0       	ldi	r23, 0x00	; 0
     dee:	c5 01       	movw	r24, r10
     df0:	af dd       	rcall	.-1186   	; 0x950 <blocked_poll_response>
     df2:	21 e0       	ldi	r18, 0x01	; 1
     df4:	80 91 a5 24 	lds	r24, 0x24A5
     df8:	90 91 a6 24 	lds	r25, 0x24A6
     dfc:	03 97       	sbiw	r24, 0x03	; 3
     dfe:	09 f0       	breq	.+2      	; 0xe02 <awt_send_any_enqueued_acks+0xf8>
     e00:	20 e0       	ldi	r18, 0x00	; 0
     e02:	10 92 a5 24 	sts	0x24A5, r1
     e06:	10 92 a6 24 	sts	0x24A6, r1
     e0a:	21 11       	cpse	r18, r1
     e0c:	04 c0       	rjmp	.+8      	; 0xe16 <awt_send_any_enqueued_acks+0x10c>
     e0e:	80 91 ab 24 	lds	r24, 0x24AB
     e12:	8f 5f       	subi	r24, 0xFF	; 255
     e14:	01 c0       	rjmp	.+2      	; 0xe18 <awt_send_any_enqueued_acks+0x10e>
     e16:	80 e0       	ldi	r24, 0x00	; 0
     e18:	80 93 ab 24 	sts	0x24AB, r24
     e1c:	22 23       	and	r18, r18
     e1e:	61 f0       	breq	.+24     	; 0xe38 <awt_send_any_enqueued_acks+0x12e>
     e20:	80 91 c7 24 	lds	r24, 0x24C7
     e24:	8f 5f       	subi	r24, 0xFF	; 255
     e26:	87 70       	andi	r24, 0x07	; 7
     e28:	80 93 c7 24 	sts	0x24C7, r24
     e2c:	00 91 c7 24 	lds	r16, 0x24C7
     e30:	80 91 c8 24 	lds	r24, 0x24C8
     e34:	08 13       	cpse	r16, r24
     e36:	83 cf       	rjmp	.-250    	; 0xd3e <awt_send_any_enqueued_acks+0x34>
     e38:	60 96       	adiw	r28, 0x10	; 16
     e3a:	cd bf       	out	0x3d, r28	; 61
     e3c:	de bf       	out	0x3e, r29	; 62
     e3e:	df 91       	pop	r29
     e40:	cf 91       	pop	r28
     e42:	1f 91       	pop	r17
     e44:	0f 91       	pop	r16
     e46:	ff 90       	pop	r15
     e48:	ef 90       	pop	r14
     e4a:	df 90       	pop	r13
     e4c:	cf 90       	pop	r12
     e4e:	bf 90       	pop	r11
     e50:	af 90       	pop	r10
     e52:	9f 90       	pop	r9
     e54:	8f 90       	pop	r8
     e56:	7f 90       	pop	r7
     e58:	6f 90       	pop	r6
     e5a:	08 95       	ret

00000e5c <awt_buffer_ack_req>:
     e5c:	cf 92       	push	r12
     e5e:	df 92       	push	r13
     e60:	ef 92       	push	r14
     e62:	ff 92       	push	r15
     e64:	cf 93       	push	r28
     e66:	df 93       	push	r29
     e68:	69 01       	movw	r12, r18
     e6a:	7a 01       	movw	r14, r20
     e6c:	20 91 c8 24 	lds	r18, 0x24C8
     e70:	c2 2f       	mov	r28, r18
     e72:	cf 5f       	subi	r28, 0xFF	; 255
     e74:	c7 70       	andi	r28, 0x07	; 7
     e76:	90 91 c7 24 	lds	r25, 0x24C7
     e7a:	c9 17       	cp	r28, r25
     e7c:	f9 f0       	breq	.+62     	; 0xebc <awt_buffer_ack_req+0x60>
     e7e:	d7 e3       	ldi	r29, 0x37	; 55
     e80:	d2 9f       	mul	r29, r18
     e82:	90 01       	movw	r18, r0
     e84:	11 24       	eor	r1, r1
     e86:	d9 01       	movw	r26, r18
     e88:	a9 53       	subi	r26, 0x39	; 57
     e8a:	bb 4d       	sbci	r27, 0xDB	; 219
     e8c:	d8 96       	adiw	r26, 0x38	; 56
     e8e:	8c 93       	st	X, r24
     e90:	42 e3       	ldi	r20, 0x32	; 50
     e92:	50 e0       	ldi	r21, 0x00	; 0
     e94:	c9 01       	movw	r24, r18
     e96:	87 53       	subi	r24, 0x37	; 55
     e98:	9b 4d       	sbci	r25, 0xDB	; 219
     e9a:	0e 94 5c 32 	call	0x64b8	; 0x64b8 <strncpy>
     e9e:	e0 91 c8 24 	lds	r30, 0x24C8
     ea2:	de 9f       	mul	r29, r30
     ea4:	f0 01       	movw	r30, r0
     ea6:	11 24       	eor	r1, r1
     ea8:	e9 53       	subi	r30, 0x39	; 57
     eaa:	fb 4d       	sbci	r31, 0xDB	; 219
     eac:	c4 aa       	std	Z+52, r12	; 0x34
     eae:	d5 aa       	std	Z+53, r13	; 0x35
     eb0:	e6 aa       	std	Z+54, r14	; 0x36
     eb2:	f7 aa       	std	Z+55, r15	; 0x37
     eb4:	c0 93 c8 24 	sts	0x24C8, r28
     eb8:	81 e0       	ldi	r24, 0x01	; 1
     eba:	01 c0       	rjmp	.+2      	; 0xebe <awt_buffer_ack_req+0x62>
     ebc:	80 e0       	ldi	r24, 0x00	; 0
     ebe:	df 91       	pop	r29
     ec0:	cf 91       	pop	r28
     ec2:	ff 90       	pop	r15
     ec4:	ef 90       	pop	r14
     ec6:	df 90       	pop	r13
     ec8:	cf 90       	pop	r12
     eca:	08 95       	ret

00000ecc <awt_reset_modem>:
     ecc:	0f 93       	push	r16
     ece:	1f 93       	push	r17
     ed0:	cf 93       	push	r28
     ed2:	df 93       	push	r29
     ed4:	ec 01       	movw	r28, r24
     ed6:	8b 01       	movw	r16, r22
     ed8:	82 e4       	ldi	r24, 0x42	; 66
     eda:	91 e2       	ldi	r25, 0x21	; 33
     edc:	0e 94 88 10 	call	0x2110	; 0x2110 <DEBUG_puts>
     ee0:	b8 01       	movw	r22, r16
     ee2:	88 27       	eor	r24, r24
     ee4:	77 fd       	sbrc	r23, 7
     ee6:	80 95       	com	r24
     ee8:	98 2f       	mov	r25, r24
     eea:	0e 94 99 10 	call	0x2132	; 0x2132 <DEBUG_putu>
     eee:	80 e0       	ldi	r24, 0x00	; 0
     ef0:	90 e0       	ldi	r25, 0x00	; 0
     ef2:	0e 94 93 10 	call	0x2126	; 0x2126 <DEBUG_putcrlf>
     ef6:	e0 91 bb 24 	lds	r30, 0x24BB
     efa:	f0 91 bc 24 	lds	r31, 0x24BC
     efe:	80 e0       	ldi	r24, 0x00	; 0
     f00:	90 e0       	ldi	r25, 0x00	; 0
     f02:	09 95       	icall
     f04:	1a e0       	ldi	r17, 0x0A	; 10
     f06:	89 e4       	ldi	r24, 0x49	; 73
     f08:	91 e2       	ldi	r25, 0x21	; 33
     f0a:	0e 94 cf 10 	call	0x219e	; 0x219e <MODEM_raw_puts>
     f0e:	68 e0       	ldi	r22, 0x08	; 8
     f10:	70 e0       	ldi	r23, 0x00	; 0
     f12:	80 e0       	ldi	r24, 0x00	; 0
     f14:	0e 94 c3 1b 	call	0x3786	; 0x3786 <timeout_start_singleshot>
     f18:	06 c0       	rjmp	.+12     	; 0xf26 <awt_reset_modem+0x5a>
     f1a:	0e 94 bf 10 	call	0x217e	; 0x217e <MODEM_get_byte>
     f1e:	20 97       	sbiw	r28, 0x00	; 0
     f20:	11 f0       	breq	.+4      	; 0xf26 <awt_reset_modem+0x5a>
     f22:	fe 01       	movw	r30, r28
     f24:	09 95       	icall
     f26:	80 e0       	ldi	r24, 0x00	; 0
     f28:	0e 94 c9 1b 	call	0x3792	; 0x3792 <timeout_test_and_clear_expired>
     f2c:	88 23       	and	r24, r24
     f2e:	a9 f3       	breq	.-22     	; 0xf1a <awt_reset_modem+0x4e>
     f30:	11 50       	subi	r17, 0x01	; 1
     f32:	49 f7       	brne	.-46     	; 0xf06 <awt_reset_modem+0x3a>
     f34:	80 e0       	ldi	r24, 0x00	; 0
     f36:	90 e0       	ldi	r25, 0x00	; 0
     f38:	7f d9       	rcall	.-3330   	; 0x238 <reset_state>
     f3a:	10 92 a9 24 	sts	0x24A9, r1
     f3e:	82 e0       	ldi	r24, 0x02	; 2
     f40:	80 93 25 06 	sts	0x0625, r24
     f44:	18 e0       	ldi	r17, 0x08	; 8
     f46:	02 e0       	ldi	r16, 0x02	; 2
     f48:	00 93 27 06 	sts	0x0627, r16
     f4c:	61 e0       	ldi	r22, 0x01	; 1
     f4e:	70 e0       	ldi	r23, 0x00	; 0
     f50:	80 e0       	ldi	r24, 0x00	; 0
     f52:	0e 94 c3 1b 	call	0x3786	; 0x3786 <timeout_start_singleshot>
     f56:	04 c0       	rjmp	.+8      	; 0xf60 <awt_reset_modem+0x94>
     f58:	20 97       	sbiw	r28, 0x00	; 0
     f5a:	11 f0       	breq	.+4      	; 0xf60 <awt_reset_modem+0x94>
     f5c:	fe 01       	movw	r30, r28
     f5e:	09 95       	icall
     f60:	80 e0       	ldi	r24, 0x00	; 0
     f62:	0e 94 c9 1b 	call	0x3792	; 0x3792 <timeout_test_and_clear_expired>
     f66:	88 23       	and	r24, r24
     f68:	b9 f3       	breq	.-18     	; 0xf58 <awt_reset_modem+0x8c>
     f6a:	11 50       	subi	r17, 0x01	; 1
     f6c:	69 f7       	brne	.-38     	; 0xf48 <awt_reset_modem+0x7c>
     f6e:	60 ee       	ldi	r22, 0xE0	; 224
     f70:	71 e0       	ldi	r23, 0x01	; 1
     f72:	80 e0       	ldi	r24, 0x00	; 0
     f74:	0e 94 c3 1b 	call	0x3786	; 0x3786 <timeout_start_singleshot>
     f78:	05 c0       	rjmp	.+10     	; 0xf84 <awt_reset_modem+0xb8>
     f7a:	a4 d9       	rcall	.-3256   	; 0x2c4 <poll_modem>
     f7c:	20 97       	sbiw	r28, 0x00	; 0
     f7e:	11 f0       	breq	.+4      	; 0xf84 <awt_reset_modem+0xb8>
     f80:	fe 01       	movw	r30, r28
     f82:	09 95       	icall
     f84:	80 91 a9 24 	lds	r24, 0x24A9
     f88:	88 23       	and	r24, r24
     f8a:	41 f0       	breq	.+16     	; 0xf9c <awt_reset_modem+0xd0>
     f8c:	80 e0       	ldi	r24, 0x00	; 0
     f8e:	0e 94 e9 1b 	call	0x37d2	; 0x37d2 <timeout_stop>
     f92:	80 91 a9 24 	lds	r24, 0x24A9
     f96:	81 11       	cpse	r24, r1
     f98:	07 c0       	rjmp	.+14     	; 0xfa8 <awt_reset_modem+0xdc>
     f9a:	2c c0       	rjmp	.+88     	; 0xff4 <awt_reset_modem+0x128>
     f9c:	80 e0       	ldi	r24, 0x00	; 0
     f9e:	0e 94 c9 1b 	call	0x3792	; 0x3792 <timeout_test_and_clear_expired>
     fa2:	88 23       	and	r24, r24
     fa4:	51 f3       	breq	.-44     	; 0xf7a <awt_reset_modem+0xae>
     fa6:	f2 cf       	rjmp	.-28     	; 0xf8c <awt_reset_modem+0xc0>
     fa8:	49 dd       	rcall	.-1390   	; 0xa3c <blocked_sync_modem.constprop.1>
     faa:	88 23       	and	r24, r24
     fac:	19 f1       	breq	.+70     	; 0xff4 <awt_reset_modem+0x128>
     fae:	60 e1       	ldi	r22, 0x10	; 16
     fb0:	70 e0       	ldi	r23, 0x00	; 0
     fb2:	80 e0       	ldi	r24, 0x00	; 0
     fb4:	0e 94 c3 1b 	call	0x3786	; 0x3786 <timeout_start_singleshot>
     fb8:	4f ef       	ldi	r20, 0xFF	; 255
     fba:	5f ef       	ldi	r21, 0xFF	; 255
     fbc:	ba 01       	movw	r22, r20
     fbe:	40 93 ad 24 	sts	0x24AD, r20
     fc2:	50 93 ae 24 	sts	0x24AE, r21
     fc6:	60 93 af 24 	sts	0x24AF, r22
     fca:	70 93 b0 24 	sts	0x24B0, r23
     fce:	e0 91 bb 24 	lds	r30, 0x24BB
     fd2:	f0 91 bc 24 	lds	r31, 0x24BC
     fd6:	81 e0       	ldi	r24, 0x01	; 1
     fd8:	90 e0       	ldi	r25, 0x00	; 0
     fda:	09 95       	icall
     fdc:	05 c0       	rjmp	.+10     	; 0xfe8 <awt_reset_modem+0x11c>
     fde:	72 d9       	rcall	.-3356   	; 0x2c4 <poll_modem>
     fe0:	20 97       	sbiw	r28, 0x00	; 0
     fe2:	11 f0       	breq	.+4      	; 0xfe8 <awt_reset_modem+0x11c>
     fe4:	fe 01       	movw	r30, r28
     fe6:	09 95       	icall
     fe8:	80 e0       	ldi	r24, 0x00	; 0
     fea:	0e 94 c9 1b 	call	0x3792	; 0x3792 <timeout_test_and_clear_expired>
     fee:	88 23       	and	r24, r24
     ff0:	b1 f3       	breq	.-20     	; 0xfde <awt_reset_modem+0x112>
     ff2:	0d c0       	rjmp	.+26     	; 0x100e <awt_reset_modem+0x142>
     ff4:	23 dd       	rcall	.-1466   	; 0xa3c <blocked_sync_modem.constprop.1>
     ff6:	13 e0       	ldi	r17, 0x03	; 3
     ff8:	45 e0       	ldi	r20, 0x05	; 5
     ffa:	50 e0       	ldi	r21, 0x00	; 0
     ffc:	6b e4       	ldi	r22, 0x4B	; 75
     ffe:	71 e2       	ldi	r23, 0x21	; 33
    1000:	ce 01       	movw	r24, r28
    1002:	de dc       	rcall	.-1604   	; 0x9c0 <blocked_at_req>
    1004:	81 11       	cpse	r24, r1
    1006:	03 c0       	rjmp	.+6      	; 0x100e <awt_reset_modem+0x142>
    1008:	11 50       	subi	r17, 0x01	; 1
    100a:	b1 f7       	brne	.-20     	; 0xff8 <awt_reset_modem+0x12c>
    100c:	0b c0       	rjmp	.+22     	; 0x1024 <awt_reset_modem+0x158>
    100e:	e0 91 bb 24 	lds	r30, 0x24BB
    1012:	f0 91 bc 24 	lds	r31, 0x24BC
    1016:	81 e0       	ldi	r24, 0x01	; 1
    1018:	90 e0       	ldi	r25, 0x00	; 0
    101a:	df 91       	pop	r29
    101c:	cf 91       	pop	r28
    101e:	1f 91       	pop	r17
    1020:	0f 91       	pop	r16
    1022:	09 94       	ijmp
    1024:	e0 91 b9 24 	lds	r30, 0x24B9
    1028:	f0 91 ba 24 	lds	r31, 0x24BA
    102c:	09 95       	icall
    102e:	ef cf       	rjmp	.-34     	; 0x100e <awt_reset_modem+0x142>

00001030 <awt_service>:
    1030:	1f 93       	push	r17
    1032:	cf 93       	push	r28
    1034:	df 93       	push	r29
    1036:	ec 01       	movw	r28, r24
    1038:	80 91 c3 24 	lds	r24, 0x24C3
    103c:	90 91 c4 24 	lds	r25, 0x24C4
    1040:	89 2b       	or	r24, r25
    1042:	09 f4       	brne	.+2      	; 0x1046 <awt_service+0x16>
    1044:	6f c0       	rjmp	.+222    	; 0x1124 <awt_service+0xf4>
    1046:	3e d9       	rcall	.-3460   	; 0x2c4 <poll_modem>
    1048:	20 91 a5 24 	lds	r18, 0x24A5
    104c:	30 91 a6 24 	lds	r19, 0x24A6
    1050:	21 30       	cpi	r18, 0x01	; 1
    1052:	31 05       	cpc	r19, r1
    1054:	a9 f4       	brne	.+42     	; 0x1080 <awt_service+0x50>
    1056:	83 e0       	ldi	r24, 0x03	; 3
    1058:	0e 94 c9 1b 	call	0x3792	; 0x3792 <timeout_test_and_clear_expired>
    105c:	88 23       	and	r24, r24
    105e:	09 f4       	brne	.+2      	; 0x1062 <awt_service+0x32>
    1060:	51 c0       	rjmp	.+162    	; 0x1104 <awt_service+0xd4>
    1062:	10 92 a5 24 	sts	0x24A5, r1
    1066:	10 92 a6 24 	sts	0x24A6, r1
    106a:	80 91 ab 24 	lds	r24, 0x24AB
    106e:	8f 5f       	subi	r24, 0xFF	; 255
    1070:	80 93 ab 24 	sts	0x24AB, r24
    1074:	e0 91 c3 24 	lds	r30, 0x24C3
    1078:	f0 91 c4 24 	lds	r31, 0x24C4
    107c:	80 e0       	ldi	r24, 0x00	; 0
    107e:	3d c0       	rjmp	.+122    	; 0x10fa <awt_service+0xca>
    1080:	80 91 a8 24 	lds	r24, 0x24A8
    1084:	88 23       	and	r24, r24
    1086:	19 f1       	breq	.+70     	; 0x10ce <awt_service+0x9e>
    1088:	10 92 a8 24 	sts	0x24A8, r1
    108c:	e0 91 c3 24 	lds	r30, 0x24C3
    1090:	f0 91 c4 24 	lds	r31, 0x24C4
    1094:	22 30       	cpi	r18, 0x02	; 2
    1096:	31 05       	cpc	r19, r1
    1098:	21 f4       	brne	.+8      	; 0x10a2 <awt_service+0x72>
    109a:	10 92 ab 24 	sts	0x24AB, r1
    109e:	81 e0       	ldi	r24, 0x01	; 1
    10a0:	0c c0       	rjmp	.+24     	; 0x10ba <awt_service+0x8a>
    10a2:	23 30       	cpi	r18, 0x03	; 3
    10a4:	31 05       	cpc	r19, r1
    10a6:	19 f4       	brne	.+6      	; 0x10ae <awt_service+0x7e>
    10a8:	10 92 ab 24 	sts	0x24AB, r1
    10ac:	05 c0       	rjmp	.+10     	; 0x10b8 <awt_service+0x88>
    10ae:	80 91 ab 24 	lds	r24, 0x24AB
    10b2:	8f 5f       	subi	r24, 0xFF	; 255
    10b4:	80 93 ab 24 	sts	0x24AB, r24
    10b8:	80 e0       	ldi	r24, 0x00	; 0
    10ba:	09 95       	icall
    10bc:	10 92 c3 24 	sts	0x24C3, r1
    10c0:	10 92 c4 24 	sts	0x24C4, r1
    10c4:	10 92 a5 24 	sts	0x24A5, r1
    10c8:	10 92 a6 24 	sts	0x24A6, r1
    10cc:	1b c0       	rjmp	.+54     	; 0x1104 <awt_service+0xd4>
    10ce:	81 e0       	ldi	r24, 0x01	; 1
    10d0:	23 30       	cpi	r18, 0x03	; 3
    10d2:	31 05       	cpc	r19, r1
    10d4:	09 f0       	breq	.+2      	; 0x10d8 <awt_service+0xa8>
    10d6:	80 e0       	ldi	r24, 0x00	; 0
    10d8:	10 92 a5 24 	sts	0x24A5, r1
    10dc:	10 92 a6 24 	sts	0x24A6, r1
    10e0:	81 11       	cpse	r24, r1
    10e2:	04 c0       	rjmp	.+8      	; 0x10ec <awt_service+0xbc>
    10e4:	90 91 ab 24 	lds	r25, 0x24AB
    10e8:	9f 5f       	subi	r25, 0xFF	; 255
    10ea:	01 c0       	rjmp	.+2      	; 0x10ee <awt_service+0xbe>
    10ec:	90 e0       	ldi	r25, 0x00	; 0
    10ee:	90 93 ab 24 	sts	0x24AB, r25
    10f2:	e0 91 c3 24 	lds	r30, 0x24C3
    10f6:	f0 91 c4 24 	lds	r31, 0x24C4
    10fa:	09 95       	icall
    10fc:	10 92 c3 24 	sts	0x24C3, r1
    1100:	10 92 c4 24 	sts	0x24C4, r1
    1104:	80 91 ab 24 	lds	r24, 0x24AB
    1108:	83 30       	cpi	r24, 0x03	; 3
    110a:	28 f4       	brcc	.+10     	; 0x1116 <awt_service+0xe6>
    110c:	80 91 aa 24 	lds	r24, 0x24AA
    1110:	83 30       	cpi	r24, 0x03	; 3
    1112:	08 f4       	brcc	.+2      	; 0x1116 <awt_service+0xe6>
    1114:	32 c1       	rjmp	.+612    	; 0x137a <awt_service+0x34a>
    1116:	6f ef       	ldi	r22, 0xFF	; 255
    1118:	72 e0       	ldi	r23, 0x02	; 2
    111a:	ce 01       	movw	r24, r28
    111c:	df 91       	pop	r29
    111e:	cf 91       	pop	r28
    1120:	1f 91       	pop	r17
    1122:	d4 ce       	rjmp	.-600    	; 0xecc <awt_reset_modem>
    1124:	cf d8       	rcall	.-3682   	; 0x2c4 <poll_modem>
    1126:	80 91 c5 24 	lds	r24, 0x24C5
    112a:	88 23       	and	r24, r24
    112c:	09 f4       	brne	.+2      	; 0x1130 <awt_service+0x100>
    112e:	51 c0       	rjmp	.+162    	; 0x11d2 <awt_service+0x1a2>
    1130:	c9 d8       	rcall	.-3694   	; 0x2c4 <poll_modem>
    1132:	80 91 a5 24 	lds	r24, 0x24A5
    1136:	90 91 a6 24 	lds	r25, 0x24A6
    113a:	89 2b       	or	r24, r25
    113c:	09 f0       	breq	.+2      	; 0x1140 <awt_service+0x110>
    113e:	44 c0       	rjmp	.+136    	; 0x11c8 <awt_service+0x198>
    1140:	81 e0       	ldi	r24, 0x01	; 1
    1142:	90 e0       	ldi	r25, 0x00	; 0
    1144:	80 93 a5 24 	sts	0x24A5, r24
    1148:	90 93 a6 24 	sts	0x24A6, r25
    114c:	87 e1       	ldi	r24, 0x17	; 23
    114e:	91 e2       	ldi	r25, 0x21	; 33
    1150:	0e 94 cf 10 	call	0x219e	; 0x219e <MODEM_raw_puts>
    1154:	64 e6       	ldi	r22, 0x64	; 100
    1156:	8f ef       	ldi	r24, 0xFF	; 255
    1158:	0e 94 da 10 	call	0x21b4	; 0x21b4 <MODEM_crc_putb>
    115c:	6a e2       	ldi	r22, 0x2A	; 42
    115e:	0e 94 da 10 	call	0x21b4	; 0x21b4 <MODEM_crc_putb>
    1162:	18 2f       	mov	r17, r24
    1164:	88 e2       	ldi	r24, 0x28	; 40
    1166:	91 e2       	ldi	r25, 0x21	; 33
    1168:	0e 94 cf 10 	call	0x219e	; 0x219e <MODEM_raw_puts>
    116c:	a1 2f       	mov	r26, r17
    116e:	a2 95       	swap	r26
    1170:	af 70       	andi	r26, 0x0F	; 15
    1172:	b0 e0       	ldi	r27, 0x00	; 0
    1174:	a3 52       	subi	r26, 0x23	; 35
    1176:	be 4d       	sbci	r27, 0xDE	; 222
    1178:	8c 91       	ld	r24, X
    117a:	0e 94 c9 10 	call	0x2192	; 0x2192 <MODEM_raw_putb>
    117e:	1f 70       	andi	r17, 0x0F	; 15
    1180:	e1 2f       	mov	r30, r17
    1182:	f0 e0       	ldi	r31, 0x00	; 0
    1184:	e3 52       	subi	r30, 0x23	; 35
    1186:	fe 4d       	sbci	r31, 0xDE	; 222
    1188:	80 81       	ld	r24, Z
    118a:	0e 94 c9 10 	call	0x2192	; 0x2192 <MODEM_raw_putb>
    118e:	8d e0       	ldi	r24, 0x0D	; 13
    1190:	0e 94 c9 10 	call	0x2192	; 0x2192 <MODEM_raw_putb>
    1194:	63 e0       	ldi	r22, 0x03	; 3
    1196:	70 e0       	ldi	r23, 0x00	; 0
    1198:	ce 01       	movw	r24, r28
    119a:	da db       	rcall	.-2124   	; 0x950 <blocked_poll_response>
    119c:	21 e0       	ldi	r18, 0x01	; 1
    119e:	80 91 a5 24 	lds	r24, 0x24A5
    11a2:	90 91 a6 24 	lds	r25, 0x24A6
    11a6:	03 97       	sbiw	r24, 0x03	; 3
    11a8:	09 f0       	breq	.+2      	; 0x11ac <awt_service+0x17c>
    11aa:	20 e0       	ldi	r18, 0x00	; 0
    11ac:	10 92 a5 24 	sts	0x24A5, r1
    11b0:	10 92 a6 24 	sts	0x24A6, r1
    11b4:	21 11       	cpse	r18, r1
    11b6:	04 c0       	rjmp	.+8      	; 0x11c0 <awt_service+0x190>
    11b8:	80 91 aa 24 	lds	r24, 0x24AA
    11bc:	8f 5f       	subi	r24, 0xFF	; 255
    11be:	01 c0       	rjmp	.+2      	; 0x11c2 <awt_service+0x192>
    11c0:	80 e0       	ldi	r24, 0x00	; 0
    11c2:	80 93 aa 24 	sts	0x24AA, r24
    11c6:	01 c0       	rjmp	.+2      	; 0x11ca <awt_service+0x19a>
    11c8:	20 e0       	ldi	r18, 0x00	; 0
    11ca:	81 e0       	ldi	r24, 0x01	; 1
    11cc:	82 27       	eor	r24, r18
    11ce:	80 93 c5 24 	sts	0x24C5, r24
    11d2:	80 91 c6 24 	lds	r24, 0x24C6
    11d6:	88 23       	and	r24, r24
    11d8:	09 f4       	brne	.+2      	; 0x11dc <awt_service+0x1ac>
    11da:	4a c0       	rjmp	.+148    	; 0x1270 <awt_service+0x240>
    11dc:	73 d8       	rcall	.-3866   	; 0x2c4 <poll_modem>
    11de:	80 91 a5 24 	lds	r24, 0x24A5
    11e2:	90 91 a6 24 	lds	r25, 0x24A6
    11e6:	89 2b       	or	r24, r25
    11e8:	09 f0       	breq	.+2      	; 0x11ec <awt_service+0x1bc>
    11ea:	3d c0       	rjmp	.+122    	; 0x1266 <awt_service+0x236>
    11ec:	81 e0       	ldi	r24, 0x01	; 1
    11ee:	90 e0       	ldi	r25, 0x00	; 0
    11f0:	80 93 a5 24 	sts	0x24A5, r24
    11f4:	90 93 a6 24 	sts	0x24A6, r25
    11f8:	87 e1       	ldi	r24, 0x17	; 23
    11fa:	91 e2       	ldi	r25, 0x21	; 33
    11fc:	d0 d7       	rcall	.+4000   	; 0x219e <MODEM_raw_puts>
    11fe:	63 e6       	ldi	r22, 0x63	; 99
    1200:	8f ef       	ldi	r24, 0xFF	; 255
    1202:	d8 d7       	rcall	.+4016   	; 0x21b4 <MODEM_crc_putb>
    1204:	6a e2       	ldi	r22, 0x2A	; 42
    1206:	d6 d7       	rcall	.+4012   	; 0x21b4 <MODEM_crc_putb>
    1208:	18 2f       	mov	r17, r24
    120a:	88 e2       	ldi	r24, 0x28	; 40
    120c:	91 e2       	ldi	r25, 0x21	; 33
    120e:	c7 d7       	rcall	.+3982   	; 0x219e <MODEM_raw_puts>
    1210:	a1 2f       	mov	r26, r17
    1212:	a2 95       	swap	r26
    1214:	af 70       	andi	r26, 0x0F	; 15
    1216:	b0 e0       	ldi	r27, 0x00	; 0
    1218:	a3 52       	subi	r26, 0x23	; 35
    121a:	be 4d       	sbci	r27, 0xDE	; 222
    121c:	8c 91       	ld	r24, X
    121e:	b9 d7       	rcall	.+3954   	; 0x2192 <MODEM_raw_putb>
    1220:	1f 70       	andi	r17, 0x0F	; 15
    1222:	e1 2f       	mov	r30, r17
    1224:	f0 e0       	ldi	r31, 0x00	; 0
    1226:	e3 52       	subi	r30, 0x23	; 35
    1228:	fe 4d       	sbci	r31, 0xDE	; 222
    122a:	80 81       	ld	r24, Z
    122c:	b2 d7       	rcall	.+3940   	; 0x2192 <MODEM_raw_putb>
    122e:	8d e0       	ldi	r24, 0x0D	; 13
    1230:	b0 d7       	rcall	.+3936   	; 0x2192 <MODEM_raw_putb>
    1232:	63 e0       	ldi	r22, 0x03	; 3
    1234:	70 e0       	ldi	r23, 0x00	; 0
    1236:	ce 01       	movw	r24, r28
    1238:	8b db       	rcall	.-2282   	; 0x950 <blocked_poll_response>
    123a:	21 e0       	ldi	r18, 0x01	; 1
    123c:	80 91 a5 24 	lds	r24, 0x24A5
    1240:	90 91 a6 24 	lds	r25, 0x24A6
    1244:	03 97       	sbiw	r24, 0x03	; 3
    1246:	09 f0       	breq	.+2      	; 0x124a <awt_service+0x21a>
    1248:	20 e0       	ldi	r18, 0x00	; 0
    124a:	10 92 a5 24 	sts	0x24A5, r1
    124e:	10 92 a6 24 	sts	0x24A6, r1
    1252:	21 11       	cpse	r18, r1
    1254:	04 c0       	rjmp	.+8      	; 0x125e <awt_service+0x22e>
    1256:	80 91 aa 24 	lds	r24, 0x24AA
    125a:	8f 5f       	subi	r24, 0xFF	; 255
    125c:	01 c0       	rjmp	.+2      	; 0x1260 <awt_service+0x230>
    125e:	80 e0       	ldi	r24, 0x00	; 0
    1260:	80 93 aa 24 	sts	0x24AA, r24
    1264:	01 c0       	rjmp	.+2      	; 0x1268 <awt_service+0x238>
    1266:	20 e0       	ldi	r18, 0x00	; 0
    1268:	81 e0       	ldi	r24, 0x01	; 1
    126a:	82 27       	eor	r24, r18
    126c:	80 93 c6 24 	sts	0x24C6, r24
    1270:	80 91 b8 24 	lds	r24, 0x24B8
    1274:	88 23       	and	r24, r24
    1276:	51 f0       	breq	.+20     	; 0x128c <awt_service+0x25c>
    1278:	41 e0       	ldi	r20, 0x01	; 1
    127a:	50 e0       	ldi	r21, 0x00	; 0
    127c:	61 e6       	ldi	r22, 0x61	; 97
    127e:	71 e2       	ldi	r23, 0x21	; 33
    1280:	ce 01       	movw	r24, r28
    1282:	9e db       	rcall	.-2244   	; 0x9c0 <blocked_at_req>
    1284:	91 e0       	ldi	r25, 0x01	; 1
    1286:	98 27       	eor	r25, r24
    1288:	90 93 b8 24 	sts	0x24B8, r25
    128c:	82 e0       	ldi	r24, 0x02	; 2
    128e:	0e 94 c9 1b 	call	0x3792	; 0x3792 <timeout_test_and_clear_expired>
    1292:	88 23       	and	r24, r24
    1294:	09 f4       	brne	.+2      	; 0x1298 <awt_service+0x268>
    1296:	60 c0       	rjmp	.+192    	; 0x1358 <awt_service+0x328>
    1298:	80 91 a5 24 	lds	r24, 0x24A5
    129c:	90 91 a6 24 	lds	r25, 0x24A6
    12a0:	89 2b       	or	r24, r25
    12a2:	59 f0       	breq	.+22     	; 0x12ba <awt_service+0x28a>
    12a4:	80 91 ac 24 	lds	r24, 0x24AC
    12a8:	8f 5f       	subi	r24, 0xFF	; 255
    12aa:	80 93 ac 24 	sts	0x24AC, r24
    12ae:	8c 33       	cpi	r24, 0x3C	; 60
    12b0:	09 f0       	breq	.+2      	; 0x12b4 <awt_service+0x284>
    12b2:	52 c0       	rjmp	.+164    	; 0x1358 <awt_service+0x328>
    12b4:	69 e1       	ldi	r22, 0x19	; 25
    12b6:	73 e0       	ldi	r23, 0x03	; 3
    12b8:	48 c0       	rjmp	.+144    	; 0x134a <awt_service+0x31a>
    12ba:	10 92 ac 24 	sts	0x24AC, r1
    12be:	80 91 b2 24 	lds	r24, 0x24B2
    12c2:	90 91 b3 24 	lds	r25, 0x24B3
    12c6:	81 30       	cpi	r24, 0x01	; 1
    12c8:	91 05       	cpc	r25, r1
    12ca:	11 f1       	breq	.+68     	; 0x1310 <awt_service+0x2e0>
    12cc:	18 f0       	brcs	.+6      	; 0x12d4 <awt_service+0x2a4>
    12ce:	02 97       	sbiw	r24, 0x02	; 2
    12d0:	b1 f5       	brne	.+108    	; 0x133e <awt_service+0x30e>
    12d2:	0b c0       	rjmp	.+22     	; 0x12ea <awt_service+0x2ba>
    12d4:	4a e0       	ldi	r20, 0x0A	; 10
    12d6:	50 e0       	ldi	r21, 0x00	; 0
    12d8:	67 e7       	ldi	r22, 0x77	; 119
    12da:	71 e2       	ldi	r23, 0x21	; 33
    12dc:	ce 01       	movw	r24, r28
    12de:	70 db       	rcall	.-2336   	; 0x9c0 <blocked_at_req>
    12e0:	88 23       	and	r24, r24
    12e2:	41 f1       	breq	.+80     	; 0x1334 <awt_service+0x304>
    12e4:	82 e0       	ldi	r24, 0x02	; 2
    12e6:	90 e0       	ldi	r25, 0x00	; 0
    12e8:	0e c0       	rjmp	.+28     	; 0x1306 <awt_service+0x2d6>
    12ea:	4a e0       	ldi	r20, 0x0A	; 10
    12ec:	50 e0       	ldi	r21, 0x00	; 0
    12ee:	63 e8       	ldi	r22, 0x83	; 131
    12f0:	71 e2       	ldi	r23, 0x21	; 33
    12f2:	ce 01       	movw	r24, r28
    12f4:	65 db       	rcall	.-2358   	; 0x9c0 <blocked_at_req>
    12f6:	88 23       	and	r24, r24
    12f8:	e9 f0       	breq	.+58     	; 0x1334 <awt_service+0x304>
    12fa:	80 91 b1 24 	lds	r24, 0x24B1
    12fe:	81 11       	cpse	r24, r1
    1300:	12 c0       	rjmp	.+36     	; 0x1326 <awt_service+0x2f6>
    1302:	81 e0       	ldi	r24, 0x01	; 1
    1304:	90 e0       	ldi	r25, 0x00	; 0
    1306:	80 93 b2 24 	sts	0x24B2, r24
    130a:	90 93 b3 24 	sts	0x24B3, r25
    130e:	0f c0       	rjmp	.+30     	; 0x132e <awt_service+0x2fe>
    1310:	81 e0       	ldi	r24, 0x01	; 1
    1312:	80 93 a7 24 	sts	0x24A7, r24
    1316:	4a e0       	ldi	r20, 0x0A	; 10
    1318:	50 e0       	ldi	r21, 0x00	; 0
    131a:	60 e9       	ldi	r22, 0x90	; 144
    131c:	71 e2       	ldi	r23, 0x21	; 33
    131e:	ce 01       	movw	r24, r28
    1320:	4f db       	rcall	.-2402   	; 0x9c0 <blocked_at_req>
    1322:	88 23       	and	r24, r24
    1324:	39 f0       	breq	.+14     	; 0x1334 <awt_service+0x304>
    1326:	10 92 b2 24 	sts	0x24B2, r1
    132a:	10 92 b3 24 	sts	0x24B3, r1
    132e:	10 92 b7 24 	sts	0x24B7, r1
    1332:	05 c0       	rjmp	.+10     	; 0x133e <awt_service+0x30e>
    1334:	80 91 b7 24 	lds	r24, 0x24B7
    1338:	8f 5f       	subi	r24, 0xFF	; 255
    133a:	80 93 b7 24 	sts	0x24B7, r24
    133e:	80 91 b7 24 	lds	r24, 0x24B7
    1342:	88 37       	cpi	r24, 0x78	; 120
    1344:	49 f4       	brne	.+18     	; 0x1358 <awt_service+0x328>
    1346:	6f e3       	ldi	r22, 0x3F	; 63
    1348:	73 e0       	ldi	r23, 0x03	; 3
    134a:	ce 01       	movw	r24, r28
    134c:	bf dd       	rcall	.-1154   	; 0xecc <awt_reset_modem>
    134e:	e0 91 b9 24 	lds	r30, 0x24B9
    1352:	f0 91 ba 24 	lds	r31, 0x24BA
    1356:	09 95       	icall
    1358:	80 91 ab 24 	lds	r24, 0x24AB
    135c:	83 30       	cpi	r24, 0x03	; 3
    135e:	20 f4       	brcc	.+8      	; 0x1368 <awt_service+0x338>
    1360:	80 91 aa 24 	lds	r24, 0x24AA
    1364:	83 30       	cpi	r24, 0x03	; 3
    1366:	20 f0       	brcs	.+8      	; 0x1370 <awt_service+0x340>
    1368:	66 e4       	ldi	r22, 0x46	; 70
    136a:	73 e0       	ldi	r23, 0x03	; 3
    136c:	ce 01       	movw	r24, r28
    136e:	ae dd       	rcall	.-1188   	; 0xecc <awt_reset_modem>
    1370:	ce 01       	movw	r24, r28
    1372:	df 91       	pop	r29
    1374:	cf 91       	pop	r28
    1376:	1f 91       	pop	r17
    1378:	c8 cc       	rjmp	.-1648   	; 0xd0a <awt_send_any_enqueued_acks>
    137a:	df 91       	pop	r29
    137c:	cf 91       	pop	r28
    137e:	1f 91       	pop	r17
    1380:	08 95       	ret

00001382 <awt_init>:
    1382:	0f 93       	push	r16
    1384:	1f 93       	push	r17
    1386:	80 93 b9 24 	sts	0x24B9, r24
    138a:	90 93 ba 24 	sts	0x24BA, r25
    138e:	10 92 c3 24 	sts	0x24C3, r1
    1392:	10 92 c4 24 	sts	0x24C4, r1
    1396:	60 93 bb 24 	sts	0x24BB, r22
    139a:	70 93 bc 24 	sts	0x24BC, r23
    139e:	40 93 bd 24 	sts	0x24BD, r20
    13a2:	50 93 be 24 	sts	0x24BE, r21
    13a6:	00 93 c1 24 	sts	0x24C1, r16
    13aa:	10 93 c2 24 	sts	0x24C2, r17
    13ae:	20 93 bf 24 	sts	0x24BF, r18
    13b2:	30 93 c0 24 	sts	0x24C0, r19
    13b6:	10 92 c5 24 	sts	0x24C5, r1
    13ba:	10 92 c6 24 	sts	0x24C6, r1
    13be:	85 e1       	ldi	r24, 0x15	; 21
    13c0:	91 e0       	ldi	r25, 0x01	; 1
    13c2:	e4 ea       	ldi	r30, 0xA4	; 164
    13c4:	f3 e2       	ldi	r31, 0x23	; 35
    13c6:	df 01       	movw	r26, r30
    13c8:	9c 01       	movw	r18, r24
    13ca:	1d 92       	st	X+, r1
    13cc:	21 50       	subi	r18, 0x01	; 1
    13ce:	30 40       	sbci	r19, 0x00	; 0
    13d0:	e1 f7       	brne	.-8      	; 0x13ca <awt_init+0x48>
    13d2:	80 e0       	ldi	r24, 0x00	; 0
    13d4:	90 e0       	ldi	r25, 0x00	; 0
    13d6:	0e 94 1c 01 	call	0x238	; 0x238 <reset_state>
    13da:	10 92 c7 24 	sts	0x24C7, r1
    13de:	10 92 c8 24 	sts	0x24C8, r1
    13e2:	23 d6       	rcall	.+3142   	; 0x202a <_uarte0_init>
    13e4:	82 e0       	ldi	r24, 0x02	; 2
    13e6:	90 e0       	ldi	r25, 0x00	; 0
    13e8:	17 d6       	rcall	.+3118   	; 0x2018 <_uarte0_enable_interrupt>
    13ea:	c9 d6       	rcall	.+3474   	; 0x217e <MODEM_get_byte>
    13ec:	97 ff       	sbrs	r25, 7
    13ee:	fd cf       	rjmp	.-6      	; 0x13ea <awt_init+0x68>
    13f0:	14 e0       	ldi	r17, 0x04	; 4
    13f2:	24 db       	rcall	.-2488   	; 0xa3c <blocked_sync_modem.constprop.1>
    13f4:	88 23       	and	r24, r24
    13f6:	09 f4       	brne	.+2      	; 0x13fa <awt_init+0x78>
    13f8:	56 c0       	rjmp	.+172    	; 0x14a6 <awt_init+0x124>
    13fa:	10 92 b6 24 	sts	0x24B6, r1
    13fe:	42 e0       	ldi	r20, 0x02	; 2
    1400:	50 e0       	ldi	r21, 0x00	; 0
    1402:	6d e9       	ldi	r22, 0x9D	; 157
    1404:	71 e2       	ldi	r23, 0x21	; 33
    1406:	80 e0       	ldi	r24, 0x00	; 0
    1408:	90 e0       	ldi	r25, 0x00	; 0
    140a:	da da       	rcall	.-2636   	; 0x9c0 <blocked_at_req>
    140c:	81 11       	cpse	r24, r1
    140e:	05 c0       	rjmp	.+10     	; 0x141a <awt_init+0x98>
    1410:	e0 91 b9 24 	lds	r30, 0x24B9
    1414:	f0 91 ba 24 	lds	r31, 0x24BA
    1418:	09 95       	icall
    141a:	80 91 b6 24 	lds	r24, 0x24B6
    141e:	88 23       	and	r24, r24
    1420:	61 f0       	breq	.+24     	; 0x143a <awt_init+0xb8>
    1422:	42 e0       	ldi	r20, 0x02	; 2
    1424:	50 e0       	ldi	r21, 0x00	; 0
    1426:	63 ea       	ldi	r22, 0xA3	; 163
    1428:	71 e2       	ldi	r23, 0x21	; 33
    142a:	80 e0       	ldi	r24, 0x00	; 0
    142c:	90 e0       	ldi	r25, 0x00	; 0
    142e:	c8 da       	rcall	.-2672   	; 0x9c0 <blocked_at_req>
    1430:	e0 91 b9 24 	lds	r30, 0x24B9
    1434:	f0 91 ba 24 	lds	r31, 0x24BA
    1438:	09 95       	icall
    143a:	42 e0       	ldi	r20, 0x02	; 2
    143c:	50 e0       	ldi	r21, 0x00	; 0
    143e:	64 eb       	ldi	r22, 0xB4	; 180
    1440:	71 e2       	ldi	r23, 0x21	; 33
    1442:	80 e0       	ldi	r24, 0x00	; 0
    1444:	90 e0       	ldi	r25, 0x00	; 0
    1446:	bc da       	rcall	.-2696   	; 0x9c0 <blocked_at_req>
    1448:	81 11       	cpse	r24, r1
    144a:	05 c0       	rjmp	.+10     	; 0x1456 <awt_init+0xd4>
    144c:	e0 91 b9 24 	lds	r30, 0x24B9
    1450:	f0 91 ba 24 	lds	r31, 0x24BA
    1454:	09 95       	icall
    1456:	80 91 b4 24 	lds	r24, 0x24B4
    145a:	90 91 b5 24 	lds	r25, 0x24B5
    145e:	00 97       	sbiw	r24, 0x00	; 0
    1460:	09 f4       	brne	.+2      	; 0x1464 <awt_init+0xe2>
    1462:	09 c0       	rjmp	.+18     	; 0x1476 <awt_init+0xf4>
    1464:	02 97       	sbiw	r24, 0x02	; 2
    1466:	61 f4       	brne	.+24     	; 0x1480 <awt_init+0xfe>
    1468:	4d e2       	ldi	r20, 0x2D	; 45
    146a:	50 e0       	ldi	r21, 0x00	; 0
    146c:	61 ec       	ldi	r22, 0xC1	; 193
    146e:	71 e2       	ldi	r23, 0x21	; 33
    1470:	80 e0       	ldi	r24, 0x00	; 0
    1472:	90 e0       	ldi	r25, 0x00	; 0
    1474:	a5 da       	rcall	.-2742   	; 0x9c0 <blocked_at_req>
    1476:	e0 91 b9 24 	lds	r30, 0x24B9
    147a:	f0 91 ba 24 	lds	r31, 0x24BA
    147e:	09 95       	icall
    1480:	60 e1       	ldi	r22, 0x10	; 16
    1482:	70 e0       	ldi	r23, 0x00	; 0
    1484:	80 e0       	ldi	r24, 0x00	; 0
    1486:	0e 94 c3 1b 	call	0x3786	; 0x3786 <timeout_start_singleshot>
    148a:	80 e0       	ldi	r24, 0x00	; 0
    148c:	0e 94 c9 1b 	call	0x3792	; 0x3792 <timeout_test_and_clear_expired>
    1490:	88 23       	and	r24, r24
    1492:	d9 f3       	breq	.-10     	; 0x148a <awt_init+0x108>
    1494:	41 e0       	ldi	r20, 0x01	; 1
    1496:	50 e0       	ldi	r21, 0x00	; 0
    1498:	60 e9       	ldi	r22, 0x90	; 144
    149a:	71 e2       	ldi	r23, 0x21	; 33
    149c:	80 e0       	ldi	r24, 0x00	; 0
    149e:	90 e0       	ldi	r25, 0x00	; 0
    14a0:	8f da       	rcall	.-2786   	; 0x9c0 <blocked_at_req>
    14a2:	81 e0       	ldi	r24, 0x01	; 1
    14a4:	15 c0       	rjmp	.+42     	; 0x14d0 <awt_init+0x14e>
    14a6:	64 e0       	ldi	r22, 0x04	; 4
    14a8:	70 e0       	ldi	r23, 0x00	; 0
    14aa:	80 e0       	ldi	r24, 0x00	; 0
    14ac:	0e 94 c3 1b 	call	0x3786	; 0x3786 <timeout_start_singleshot>
    14b0:	80 e0       	ldi	r24, 0x00	; 0
    14b2:	0e 94 c9 1b 	call	0x3792	; 0x3792 <timeout_test_and_clear_expired>
    14b6:	88 23       	and	r24, r24
    14b8:	d9 f3       	breq	.-10     	; 0x14b0 <awt_init+0x12e>
    14ba:	41 e0       	ldi	r20, 0x01	; 1
    14bc:	50 e0       	ldi	r21, 0x00	; 0
    14be:	6f ec       	ldi	r22, 0xCF	; 207
    14c0:	71 e2       	ldi	r23, 0x21	; 33
    14c2:	80 e0       	ldi	r24, 0x00	; 0
    14c4:	90 e0       	ldi	r25, 0x00	; 0
    14c6:	7c da       	rcall	.-2824   	; 0x9c0 <blocked_at_req>
    14c8:	11 50       	subi	r17, 0x01	; 1
    14ca:	09 f0       	breq	.+2      	; 0x14ce <awt_init+0x14c>
    14cc:	92 cf       	rjmp	.-220    	; 0x13f2 <awt_init+0x70>
    14ce:	80 e0       	ldi	r24, 0x00	; 0
    14d0:	1f 91       	pop	r17
    14d2:	0f 91       	pop	r16
    14d4:	08 95       	ret

000014d6 <crc8_update>:
    14d6:	68 27       	eor	r22, r24
    14d8:	88 e0       	ldi	r24, 0x08	; 8
    14da:	2c e8       	ldi	r18, 0x8C	; 140
    14dc:	96 2f       	mov	r25, r22
    14de:	96 95       	lsr	r25
    14e0:	60 ff       	sbrs	r22, 0
    14e2:	03 c0       	rjmp	.+6      	; 0x14ea <crc8_update+0x14>
    14e4:	69 2f       	mov	r22, r25
    14e6:	62 27       	eor	r22, r18
    14e8:	01 c0       	rjmp	.+2      	; 0x14ec <crc8_update+0x16>
    14ea:	69 2f       	mov	r22, r25
    14ec:	81 50       	subi	r24, 0x01	; 1
    14ee:	b1 f7       	brne	.-20     	; 0x14dc <crc8_update+0x6>
    14f0:	86 2f       	mov	r24, r22
    14f2:	08 95       	ret

000014f4 <crc8_compute>:
    14f4:	1f 93       	push	r17
    14f6:	cf 93       	push	r28
    14f8:	df 93       	push	r29
    14fa:	ec 01       	movw	r28, r24
    14fc:	16 2f       	mov	r17, r22
    14fe:	80 e0       	ldi	r24, 0x00	; 0
    1500:	02 c0       	rjmp	.+4      	; 0x1506 <crc8_compute+0x12>
    1502:	69 91       	ld	r22, Y+
    1504:	e8 df       	rcall	.-48     	; 0x14d6 <crc8_update>
    1506:	11 50       	subi	r17, 0x01	; 1
    1508:	e0 f7       	brcc	.-8      	; 0x1502 <crc8_compute+0xe>
    150a:	df 91       	pop	r29
    150c:	cf 91       	pop	r28
    150e:	1f 91       	pop	r17
    1510:	08 95       	ret

00001512 <ds18b20_update_sensors>:
    1512:	ff 92       	push	r15
    1514:	0f 93       	push	r16
    1516:	1f 93       	push	r17
    1518:	cf 93       	push	r28
    151a:	df 93       	push	r29
    151c:	90 91 81 26 	lds	r25, 0x2681
    1520:	80 91 82 26 	lds	r24, 0x2682
    1524:	99 23       	and	r25, r25
    1526:	e1 f0       	breq	.+56     	; 0x1560 <ds18b20_update_sensors+0x4e>
    1528:	28 e0       	ldi	r18, 0x08	; 8
    152a:	82 9f       	mul	r24, r18
    152c:	c0 01       	movw	r24, r0
    152e:	11 24       	eor	r1, r1
    1530:	8c 5f       	subi	r24, 0xFC	; 252
    1532:	92 4d       	sbci	r25, 0xD2	; 210
    1534:	8c d3       	rcall	.+1816   	; 0x1c4e <ow_match>
    1536:	88 23       	and	r24, r24
    1538:	39 f0       	breq	.+14     	; 0x1548 <ds18b20_update_sensors+0x36>
    153a:	84 e4       	ldi	r24, 0x44	; 68
    153c:	2a d3       	rcall	.+1620   	; 0x1b92 <ow_write_byte_power>
    153e:	88 23       	and	r24, r24
    1540:	19 f0       	breq	.+6      	; 0x1548 <ds18b20_update_sensors+0x36>
    1542:	10 92 81 26 	sts	0x2681, r1
    1546:	81 c0       	rjmp	.+258    	; 0x164a <ds18b20_update_sensors+0x138>
    1548:	80 91 82 26 	lds	r24, 0x2682
    154c:	90 e0       	ldi	r25, 0x00	; 0
    154e:	01 96       	adiw	r24, 0x01	; 1
    1550:	60 91 84 2d 	lds	r22, 0x2D84
    1554:	70 e0       	ldi	r23, 0x00	; 0
    1556:	0e 94 c0 30 	call	0x6180	; 0x6180 <__divmodhi4>
    155a:	80 93 82 26 	sts	0x2682, r24
    155e:	75 c0       	rjmp	.+234    	; 0x164a <ds18b20_update_sensors+0x138>
    1560:	48 e0       	ldi	r20, 0x08	; 8
    1562:	84 9f       	mul	r24, r20
    1564:	c0 01       	movw	r24, r0
    1566:	11 24       	eor	r1, r1
    1568:	8c 5f       	subi	r24, 0xFC	; 252
    156a:	92 4d       	sbci	r25, 0xD2	; 210
    156c:	70 d3       	rcall	.+1760   	; 0x1c4e <ow_match>
    156e:	88 23       	and	r24, r24
    1570:	09 f4       	brne	.+2      	; 0x1574 <ds18b20_update_sensors+0x62>
    1572:	47 c0       	rjmp	.+142    	; 0x1602 <ds18b20_update_sensors+0xf0>
    1574:	8e eb       	ldi	r24, 0xBE	; 190
    1576:	0d d3       	rcall	.+1562   	; 0x1b92 <ow_write_byte_power>
    1578:	88 23       	and	r24, r24
    157a:	09 f4       	brne	.+2      	; 0x157e <ds18b20_update_sensors+0x6c>
    157c:	42 c0       	rjmp	.+132    	; 0x1602 <ds18b20_update_sensors+0xf0>
    157e:	03 e8       	ldi	r16, 0x83	; 131
    1580:	16 e2       	ldi	r17, 0x26	; 38
    1582:	c0 e0       	ldi	r28, 0x00	; 0
    1584:	d0 e0       	ldi	r29, 0x00	; 0
    1586:	f1 2c       	mov	r15, r1
    1588:	ce 01       	movw	r24, r28
    158a:	8d 57       	subi	r24, 0x7D	; 125
    158c:	99 4d       	sbci	r25, 0xD9	; 217
    158e:	0c d3       	rcall	.+1560   	; 0x1ba8 <ow_read_byte>
    1590:	88 23       	and	r24, r24
    1592:	59 f0       	breq	.+22     	; 0x15aa <ds18b20_update_sensors+0x98>
    1594:	f8 01       	movw	r30, r16
    1596:	61 91       	ld	r22, Z+
    1598:	8f 01       	movw	r16, r30
    159a:	8f 2d       	mov	r24, r15
    159c:	9c df       	rcall	.-200    	; 0x14d6 <crc8_update>
    159e:	f8 2e       	mov	r15, r24
    15a0:	21 96       	adiw	r28, 0x01	; 1
    15a2:	c9 30       	cpi	r28, 0x09	; 9
    15a4:	d1 05       	cpc	r29, r1
    15a6:	81 f7       	brne	.-32     	; 0x1588 <ds18b20_update_sensors+0x76>
    15a8:	02 c0       	rjmp	.+4      	; 0x15ae <ds18b20_update_sensors+0x9c>
    15aa:	ff 24       	eor	r15, r15
    15ac:	fa 94       	dec	r15
    15ae:	20 91 82 26 	lds	r18, 0x2682
    15b2:	30 e0       	ldi	r19, 0x00	; 0
    15b4:	f9 01       	movw	r30, r18
    15b6:	e4 57       	subi	r30, 0x74	; 116
    15b8:	f9 4d       	sbci	r31, 0xD9	; 217
    15ba:	80 81       	ld	r24, Z
    15bc:	8a 3f       	cpi	r24, 0xFA	; 250
    15be:	10 f4       	brcc	.+4      	; 0x15c4 <ds18b20_update_sensors+0xb2>
    15c0:	8f 5f       	subi	r24, 0xFF	; 255
    15c2:	80 83       	st	Z, r24
    15c4:	f1 10       	cpse	r15, r1
    15c6:	1d c0       	rjmp	.+58     	; 0x1602 <ds18b20_update_sensors+0xf0>
    15c8:	90 91 84 26 	lds	r25, 0x2684
    15cc:	80 e0       	ldi	r24, 0x00	; 0
    15ce:	40 91 83 26 	lds	r20, 0x2683
    15d2:	84 2b       	or	r24, r20
    15d4:	80 35       	cpi	r24, 0x50	; 80
    15d6:	f5 e0       	ldi	r31, 0x05	; 5
    15d8:	9f 07       	cpc	r25, r31
    15da:	99 f0       	breq	.+38     	; 0x1602 <ds18b20_update_sensors+0xf0>
    15dc:	80 36       	cpi	r24, 0x60	; 96
    15de:	4f ef       	ldi	r20, 0xFF	; 255
    15e0:	94 07       	cpc	r25, r20
    15e2:	7c f0       	brlt	.+30     	; 0x1602 <ds18b20_update_sensors+0xf0>
    15e4:	81 35       	cpi	r24, 0x51	; 81
    15e6:	e5 e0       	ldi	r30, 0x05	; 5
    15e8:	9e 07       	cpc	r25, r30
    15ea:	5c f4       	brge	.+22     	; 0x1602 <ds18b20_update_sensors+0xf0>
    15ec:	f9 01       	movw	r30, r18
    15ee:	ee 0f       	add	r30, r30
    15f0:	ff 1f       	adc	r31, r31
    15f2:	ec 52       	subi	r30, 0x2C	; 44
    15f4:	f4 4d       	sbci	r31, 0xD4	; 212
    15f6:	80 83       	st	Z, r24
    15f8:	91 83       	std	Z+1, r25	; 0x01
    15fa:	f9 01       	movw	r30, r18
    15fc:	e4 57       	subi	r30, 0x74	; 116
    15fe:	f9 4d       	sbci	r31, 0xD9	; 217
    1600:	10 82       	st	Z, r1
    1602:	40 91 84 2d 	lds	r20, 0x2D84
    1606:	80 91 82 26 	lds	r24, 0x2682
    160a:	90 e0       	ldi	r25, 0x00	; 0
    160c:	01 96       	adiw	r24, 0x01	; 1
    160e:	64 2f       	mov	r22, r20
    1610:	70 e0       	ldi	r23, 0x00	; 0
    1612:	0e 94 c0 30 	call	0x6180	; 0x6180 <__divmodhi4>
    1616:	80 93 82 26 	sts	0x2682, r24
    161a:	81 e0       	ldi	r24, 0x01	; 1
    161c:	80 93 81 26 	sts	0x2681, r24
    1620:	44 23       	and	r20, r20
    1622:	99 f0       	breq	.+38     	; 0x164a <ds18b20_update_sensors+0x138>
    1624:	8c e8       	ldi	r24, 0x8C	; 140
    1626:	96 e2       	ldi	r25, 0x26	; 38
    1628:	a4 ed       	ldi	r26, 0xD4	; 212
    162a:	bb e2       	ldi	r27, 0x2B	; 43
    162c:	fc 01       	movw	r30, r24
    162e:	20 e0       	ldi	r18, 0x00	; 0
    1630:	30 e8       	ldi	r19, 0x80	; 128
    1632:	07 c0       	rjmp	.+14     	; 0x1642 <ds18b20_update_sensors+0x130>
    1634:	51 91       	ld	r21, Z+
    1636:	53 30       	cpi	r21, 0x03	; 3
    1638:	18 f0       	brcs	.+6      	; 0x1640 <ds18b20_update_sensors+0x12e>
    163a:	2d 93       	st	X+, r18
    163c:	3c 93       	st	X, r19
    163e:	11 97       	sbiw	r26, 0x01	; 1
    1640:	12 96       	adiw	r26, 0x02	; 2
    1642:	5e 2f       	mov	r21, r30
    1644:	58 1b       	sub	r21, r24
    1646:	54 17       	cp	r21, r20
    1648:	a8 f3       	brcs	.-22     	; 0x1634 <ds18b20_update_sensors+0x122>
    164a:	df 91       	pop	r29
    164c:	cf 91       	pop	r28
    164e:	1f 91       	pop	r17
    1650:	0f 91       	pop	r16
    1652:	ff 90       	pop	r15
    1654:	08 95       	ret

00001656 <ds18b20_init>:
    1656:	10 92 d3 2b 	sts	0x2BD3, r1
    165a:	10 92 82 26 	sts	0x2682, r1
    165e:	81 e0       	ldi	r24, 0x01	; 1
    1660:	80 93 81 26 	sts	0x2681, r24
    1664:	ec e8       	ldi	r30, 0x8C	; 140
    1666:	f6 e2       	ldi	r31, 0x26	; 38
    1668:	a4 ed       	ldi	r26, 0xD4	; 212
    166a:	bb e2       	ldi	r27, 0x2B	; 43
    166c:	80 e0       	ldi	r24, 0x00	; 0
    166e:	90 e8       	ldi	r25, 0x80	; 128
    1670:	11 92       	st	Z+, r1
    1672:	8d 93       	st	X+, r24
    1674:	9d 93       	st	X+, r25
    1676:	26 e2       	ldi	r18, 0x26	; 38
    1678:	ec 39       	cpi	r30, 0x9C	; 156
    167a:	f2 07       	cpc	r31, r18
    167c:	c9 f7       	brne	.-14     	; 0x1670 <ds18b20_init+0x1a>
    167e:	08 95       	ret

00001680 <epoch_set>:
    1680:	4f 92       	push	r4
    1682:	5f 92       	push	r5
    1684:	6f 92       	push	r6
    1686:	7f 92       	push	r7
    1688:	8f 92       	push	r8
    168a:	9f 92       	push	r9
    168c:	af 92       	push	r10
    168e:	bf 92       	push	r11
    1690:	cf 92       	push	r12
    1692:	df 92       	push	r13
    1694:	ef 92       	push	r14
    1696:	ff 92       	push	r15
    1698:	1f 93       	push	r17
    169a:	cf 93       	push	r28
    169c:	df 93       	push	r29
    169e:	00 d0       	rcall	.+0      	; 0x16a0 <epoch_set+0x20>
    16a0:	00 d0       	rcall	.+0      	; 0x16a2 <epoch_set+0x22>
    16a2:	cd b7       	in	r28, 0x3d	; 61
    16a4:	de b7       	in	r29, 0x3e	; 62
    16a6:	6b 01       	movw	r12, r22
    16a8:	7c 01       	movw	r14, r24
    16aa:	1f b7       	in	r17, 0x3f	; 63
    16ac:	f8 94       	cli
    16ae:	80 91 9c 26 	lds	r24, 0x269C
    16b2:	90 91 9d 26 	lds	r25, 0x269D
    16b6:	a0 91 9e 26 	lds	r26, 0x269E
    16ba:	b0 91 9f 26 	lds	r27, 0x269F
    16be:	8c 15       	cp	r24, r12
    16c0:	9d 05       	cpc	r25, r13
    16c2:	ae 05       	cpc	r26, r14
    16c4:	bf 05       	cpc	r27, r15
    16c6:	e9 f1       	breq	.+122    	; 0x1742 <epoch_set+0xc2>
    16c8:	80 90 9c 26 	lds	r8, 0x269C
    16cc:	90 90 9d 26 	lds	r9, 0x269D
    16d0:	a0 90 9e 26 	lds	r10, 0x269E
    16d4:	b0 90 9f 26 	lds	r11, 0x269F
    16d8:	c7 01       	movw	r24, r14
    16da:	b6 01       	movw	r22, r12
    16dc:	60 5e       	subi	r22, 0xE0	; 224
    16de:	73 4e       	sbci	r23, 0xE3	; 227
    16e0:	8f 4f       	sbci	r24, 0xFF	; 255
    16e2:	9f 4f       	sbci	r25, 0xFF	; 255
    16e4:	20 e8       	ldi	r18, 0x80	; 128
    16e6:	42 2e       	mov	r4, r18
    16e8:	21 e5       	ldi	r18, 0x51	; 81
    16ea:	52 2e       	mov	r5, r18
    16ec:	66 24       	eor	r6, r6
    16ee:	63 94       	inc	r6
    16f0:	71 2c       	mov	r7, r1
    16f2:	a3 01       	movw	r20, r6
    16f4:	92 01       	movw	r18, r4
    16f6:	0e 94 d3 30 	call	0x61a6	; 0x61a6 <__udivmodsi4>
    16fa:	69 83       	std	Y+1, r22	; 0x01
    16fc:	7a 83       	std	Y+2, r23	; 0x02
    16fe:	8b 83       	std	Y+3, r24	; 0x03
    1700:	9c 83       	std	Y+4, r25	; 0x04
    1702:	20 e2       	ldi	r18, 0x20	; 32
    1704:	82 0e       	add	r8, r18
    1706:	2c e1       	ldi	r18, 0x1C	; 28
    1708:	92 1e       	adc	r9, r18
    170a:	a1 1c       	adc	r10, r1
    170c:	b1 1c       	adc	r11, r1
    170e:	c5 01       	movw	r24, r10
    1710:	b4 01       	movw	r22, r8
    1712:	a3 01       	movw	r20, r6
    1714:	92 01       	movw	r18, r4
    1716:	0e 94 d3 30 	call	0x61a6	; 0x61a6 <__udivmodsi4>
    171a:	29 81       	ldd	r18, Y+1	; 0x01
    171c:	3a 81       	ldd	r19, Y+2	; 0x02
    171e:	4b 81       	ldd	r20, Y+3	; 0x03
    1720:	5c 81       	ldd	r21, Y+4	; 0x04
    1722:	26 17       	cp	r18, r22
    1724:	37 07       	cpc	r19, r23
    1726:	48 07       	cpc	r20, r24
    1728:	59 07       	cpc	r21, r25
    172a:	18 f4       	brcc	.+6      	; 0x1732 <epoch_set+0xb2>
    172c:	81 e0       	ldi	r24, 0x01	; 1
    172e:	80 93 a0 26 	sts	0x26A0, r24
    1732:	c0 92 9c 26 	sts	0x269C, r12
    1736:	d0 92 9d 26 	sts	0x269D, r13
    173a:	e0 92 9e 26 	sts	0x269E, r14
    173e:	f0 92 9f 26 	sts	0x269F, r15
    1742:	1f bf       	out	0x3f, r17	; 63
    1744:	24 96       	adiw	r28, 0x04	; 4
    1746:	cd bf       	out	0x3d, r28	; 61
    1748:	de bf       	out	0x3e, r29	; 62
    174a:	df 91       	pop	r29
    174c:	cf 91       	pop	r28
    174e:	1f 91       	pop	r17
    1750:	ff 90       	pop	r15
    1752:	ef 90       	pop	r14
    1754:	df 90       	pop	r13
    1756:	cf 90       	pop	r12
    1758:	bf 90       	pop	r11
    175a:	af 90       	pop	r10
    175c:	9f 90       	pop	r9
    175e:	8f 90       	pop	r8
    1760:	7f 90       	pop	r7
    1762:	6f 90       	pop	r6
    1764:	5f 90       	pop	r5
    1766:	4f 90       	pop	r4
    1768:	08 95       	ret

0000176a <epoch_get>:
    176a:	0f 93       	push	r16
    176c:	1f 93       	push	r17
    176e:	8f b7       	in	r24, 0x3f	; 63
    1770:	f8 94       	cli
    1772:	00 91 9c 26 	lds	r16, 0x269C
    1776:	10 91 9d 26 	lds	r17, 0x269D
    177a:	20 91 9e 26 	lds	r18, 0x269E
    177e:	30 91 9f 26 	lds	r19, 0x269F
    1782:	8f bf       	out	0x3f, r24	; 63
    1784:	b8 01       	movw	r22, r16
    1786:	c9 01       	movw	r24, r18
    1788:	1f 91       	pop	r17
    178a:	0f 91       	pop	r16
    178c:	08 95       	ret

0000178e <epoch_inc>:
    178e:	cf 93       	push	r28
    1790:	cf b7       	in	r28, 0x3f	; 63
    1792:	f8 94       	cli
    1794:	80 91 9c 26 	lds	r24, 0x269C
    1798:	90 91 9d 26 	lds	r25, 0x269D
    179c:	a0 91 9e 26 	lds	r26, 0x269E
    17a0:	b0 91 9f 26 	lds	r27, 0x269F
    17a4:	89 2b       	or	r24, r25
    17a6:	8a 2b       	or	r24, r26
    17a8:	8b 2b       	or	r24, r27
    17aa:	c1 f1       	breq	.+112    	; 0x181c <epoch_inc+0x8e>
    17ac:	80 91 9c 26 	lds	r24, 0x269C
    17b0:	90 91 9d 26 	lds	r25, 0x269D
    17b4:	a0 91 9e 26 	lds	r26, 0x269E
    17b8:	b0 91 9f 26 	lds	r27, 0x269F
    17bc:	01 96       	adiw	r24, 0x01	; 1
    17be:	a1 1d       	adc	r26, r1
    17c0:	b1 1d       	adc	r27, r1
    17c2:	80 93 9c 26 	sts	0x269C, r24
    17c6:	90 93 9d 26 	sts	0x269D, r25
    17ca:	a0 93 9e 26 	sts	0x269E, r26
    17ce:	b0 93 9f 26 	sts	0x269F, r27
    17d2:	80 91 a0 26 	lds	r24, 0x26A0
    17d6:	81 11       	cpse	r24, r1
    17d8:	1c c0       	rjmp	.+56     	; 0x1812 <epoch_inc+0x84>
    17da:	60 91 9c 26 	lds	r22, 0x269C
    17de:	70 91 9d 26 	lds	r23, 0x269D
    17e2:	80 91 9e 26 	lds	r24, 0x269E
    17e6:	90 91 9f 26 	lds	r25, 0x269F
    17ea:	60 5e       	subi	r22, 0xE0	; 224
    17ec:	73 4e       	sbci	r23, 0xE3	; 227
    17ee:	8f 4f       	sbci	r24, 0xFF	; 255
    17f0:	9f 4f       	sbci	r25, 0xFF	; 255
    17f2:	20 e8       	ldi	r18, 0x80	; 128
    17f4:	31 e5       	ldi	r19, 0x51	; 81
    17f6:	41 e0       	ldi	r20, 0x01	; 1
    17f8:	50 e0       	ldi	r21, 0x00	; 0
    17fa:	0e 94 d3 30 	call	0x61a6	; 0x61a6 <__udivmodsi4>
    17fe:	21 e0       	ldi	r18, 0x01	; 1
    1800:	30 e0       	ldi	r19, 0x00	; 0
    1802:	67 2b       	or	r22, r23
    1804:	68 2b       	or	r22, r24
    1806:	69 2b       	or	r22, r25
    1808:	11 f0       	breq	.+4      	; 0x180e <epoch_inc+0x80>
    180a:	20 e0       	ldi	r18, 0x00	; 0
    180c:	30 e0       	ldi	r19, 0x00	; 0
    180e:	c9 01       	movw	r24, r18
    1810:	02 c0       	rjmp	.+4      	; 0x1816 <epoch_inc+0x88>
    1812:	81 e0       	ldi	r24, 0x01	; 1
    1814:	90 e0       	ldi	r25, 0x00	; 0
    1816:	81 70       	andi	r24, 0x01	; 1
    1818:	80 93 a0 26 	sts	0x26A0, r24
    181c:	cf bf       	out	0x3f, r28	; 63
    181e:	cf 91       	pop	r28
    1820:	08 95       	ret

00001822 <ds2483_write_device_configuration.constprop.2>:
    1822:	cf 93       	push	r28
    1824:	df 93       	push	r29
    1826:	cd b7       	in	r28, 0x3d	; 61
    1828:	de b7       	in	r29, 0x3e	; 62
    182a:	2b 97       	sbiw	r28, 0x0b	; 11
    182c:	cd bf       	out	0x3d, r28	; 61
    182e:	de bf       	out	0x3e, r29	; 62
    1830:	88 e1       	ldi	r24, 0x18	; 24
    1832:	89 83       	std	Y+1, r24	; 0x01
    1834:	82 ed       	ldi	r24, 0xD2	; 210
    1836:	8a 83       	std	Y+2, r24	; 0x02
    1838:	84 eb       	ldi	r24, 0xB4	; 180
    183a:	8b 83       	std	Y+3, r24	; 0x03
    183c:	82 e0       	ldi	r24, 0x02	; 2
    183e:	90 e0       	ldi	r25, 0x00	; 0
    1840:	8d 83       	std	Y+5, r24	; 0x05
    1842:	9e 83       	std	Y+6, r25	; 0x06
    1844:	1f 82       	std	Y+7, r1	; 0x07
    1846:	18 86       	std	Y+8, r1	; 0x08
    1848:	19 86       	std	Y+9, r1	; 0x09
    184a:	1a 86       	std	Y+10, r1	; 0x0a
    184c:	1b 86       	std	Y+11, r1	; 0x0b
    184e:	40 e0       	ldi	r20, 0x00	; 0
    1850:	be 01       	movw	r22, r28
    1852:	6f 5f       	subi	r22, 0xFF	; 255
    1854:	7f 4f       	sbci	r23, 0xFF	; 255
    1856:	80 e8       	ldi	r24, 0x80	; 128
    1858:	94 e0       	ldi	r25, 0x04	; 4
    185a:	0e 94 2c 19 	call	0x3258	; 0x3258 <twi_master_transfer>
    185e:	21 e0       	ldi	r18, 0x01	; 1
    1860:	89 2b       	or	r24, r25
    1862:	09 f0       	breq	.+2      	; 0x1866 <ds2483_write_device_configuration.constprop.2+0x44>
    1864:	20 e0       	ldi	r18, 0x00	; 0
    1866:	82 2f       	mov	r24, r18
    1868:	2b 96       	adiw	r28, 0x0b	; 11
    186a:	cd bf       	out	0x3d, r28	; 61
    186c:	de bf       	out	0x3e, r29	; 62
    186e:	df 91       	pop	r29
    1870:	cf 91       	pop	r28
    1872:	08 95       	ret

00001874 <ds2483_read.constprop.6>:
    1874:	cf 93       	push	r28
    1876:	df 93       	push	r29
    1878:	cd b7       	in	r28, 0x3d	; 61
    187a:	de b7       	in	r29, 0x3e	; 62
    187c:	2b 97       	sbiw	r28, 0x0b	; 11
    187e:	cd bf       	out	0x3d, r28	; 61
    1880:	de bf       	out	0x3e, r29	; 62
    1882:	28 e1       	ldi	r18, 0x18	; 24
    1884:	29 83       	std	Y+1, r18	; 0x01
    1886:	1a 82       	std	Y+2, r1	; 0x02
    1888:	1d 82       	std	Y+5, r1	; 0x05
    188a:	1e 82       	std	Y+6, r1	; 0x06
    188c:	8f 83       	std	Y+7, r24	; 0x07
    188e:	98 87       	std	Y+8, r25	; 0x08
    1890:	81 e0       	ldi	r24, 0x01	; 1
    1892:	90 e0       	ldi	r25, 0x00	; 0
    1894:	89 87       	std	Y+9, r24	; 0x09
    1896:	9a 87       	std	Y+10, r25	; 0x0a
    1898:	1b 86       	std	Y+11, r1	; 0x0b
    189a:	41 e0       	ldi	r20, 0x01	; 1
    189c:	be 01       	movw	r22, r28
    189e:	6f 5f       	subi	r22, 0xFF	; 255
    18a0:	7f 4f       	sbci	r23, 0xFF	; 255
    18a2:	80 e8       	ldi	r24, 0x80	; 128
    18a4:	94 e0       	ldi	r25, 0x04	; 4
    18a6:	0e 94 2c 19 	call	0x3258	; 0x3258 <twi_master_transfer>
    18aa:	21 e0       	ldi	r18, 0x01	; 1
    18ac:	89 2b       	or	r24, r25
    18ae:	09 f0       	breq	.+2      	; 0x18b2 <ds2483_read.constprop.6+0x3e>
    18b0:	20 e0       	ldi	r18, 0x00	; 0
    18b2:	82 2f       	mov	r24, r18
    18b4:	2b 96       	adiw	r28, 0x0b	; 11
    18b6:	cd bf       	out	0x3d, r28	; 61
    18b8:	de bf       	out	0x3e, r29	; 62
    18ba:	df 91       	pop	r29
    18bc:	cf 91       	pop	r28
    18be:	08 95       	ret

000018c0 <ds2483_1wire_write_byte>:
    18c0:	0f 93       	push	r16
    18c2:	1f 93       	push	r17
    18c4:	cf 93       	push	r28
    18c6:	df 93       	push	r29
    18c8:	cd b7       	in	r28, 0x3d	; 61
    18ca:	de b7       	in	r29, 0x3e	; 62
    18cc:	2c 97       	sbiw	r28, 0x0c	; 12
    18ce:	cd bf       	out	0x3d, r28	; 61
    18d0:	de bf       	out	0x3e, r29	; 62
    18d2:	98 e1       	ldi	r25, 0x18	; 24
    18d4:	99 83       	std	Y+1, r25	; 0x01
    18d6:	95 ea       	ldi	r25, 0xA5	; 165
    18d8:	9a 83       	std	Y+2, r25	; 0x02
    18da:	8b 83       	std	Y+3, r24	; 0x03
    18dc:	82 e0       	ldi	r24, 0x02	; 2
    18de:	90 e0       	ldi	r25, 0x00	; 0
    18e0:	8d 83       	std	Y+5, r24	; 0x05
    18e2:	9e 83       	std	Y+6, r25	; 0x06
    18e4:	8e 01       	movw	r16, r28
    18e6:	04 5f       	subi	r16, 0xF4	; 244
    18e8:	1f 4f       	sbci	r17, 0xFF	; 255
    18ea:	0f 83       	std	Y+7, r16	; 0x07
    18ec:	18 87       	std	Y+8, r17	; 0x08
    18ee:	81 e0       	ldi	r24, 0x01	; 1
    18f0:	90 e0       	ldi	r25, 0x00	; 0
    18f2:	89 87       	std	Y+9, r24	; 0x09
    18f4:	9a 87       	std	Y+10, r25	; 0x0a
    18f6:	1b 86       	std	Y+11, r1	; 0x0b
    18f8:	41 e0       	ldi	r20, 0x01	; 1
    18fa:	be 01       	movw	r22, r28
    18fc:	6f 5f       	subi	r22, 0xFF	; 255
    18fe:	7f 4f       	sbci	r23, 0xFF	; 255
    1900:	80 e8       	ldi	r24, 0x80	; 128
    1902:	94 e0       	ldi	r25, 0x04	; 4
    1904:	0e 94 2c 19 	call	0x3258	; 0x3258 <twi_master_transfer>
    1908:	89 2b       	or	r24, r25
    190a:	19 f0       	breq	.+6      	; 0x1912 <ds2483_1wire_write_byte+0x52>
    190c:	07 c0       	rjmp	.+14     	; 0x191c <ds2483_1wire_write_byte+0x5c>
    190e:	c8 01       	movw	r24, r16
    1910:	b1 df       	rcall	.-158    	; 0x1874 <ds2483_read.constprop.6>
    1912:	8c 85       	ldd	r24, Y+12	; 0x0c
    1914:	80 fd       	sbrc	r24, 0
    1916:	fb cf       	rjmp	.-10     	; 0x190e <ds2483_1wire_write_byte+0x4e>
    1918:	81 e0       	ldi	r24, 0x01	; 1
    191a:	01 c0       	rjmp	.+2      	; 0x191e <ds2483_1wire_write_byte+0x5e>
    191c:	80 e0       	ldi	r24, 0x00	; 0
    191e:	2c 96       	adiw	r28, 0x0c	; 12
    1920:	cd bf       	out	0x3d, r28	; 61
    1922:	de bf       	out	0x3e, r29	; 62
    1924:	df 91       	pop	r29
    1926:	cf 91       	pop	r28
    1928:	1f 91       	pop	r17
    192a:	0f 91       	pop	r16
    192c:	08 95       	ret

0000192e <ds2483_1wire_reset>:
    192e:	0f 93       	push	r16
    1930:	1f 93       	push	r17
    1932:	cf 93       	push	r28
    1934:	df 93       	push	r29
    1936:	cd b7       	in	r28, 0x3d	; 61
    1938:	de b7       	in	r29, 0x3e	; 62
    193a:	2c 97       	sbiw	r28, 0x0c	; 12
    193c:	cd bf       	out	0x3d, r28	; 61
    193e:	de bf       	out	0x3e, r29	; 62
    1940:	88 e1       	ldi	r24, 0x18	; 24
    1942:	89 83       	std	Y+1, r24	; 0x01
    1944:	84 eb       	ldi	r24, 0xB4	; 180
    1946:	8a 83       	std	Y+2, r24	; 0x02
    1948:	81 e0       	ldi	r24, 0x01	; 1
    194a:	90 e0       	ldi	r25, 0x00	; 0
    194c:	8d 83       	std	Y+5, r24	; 0x05
    194e:	9e 83       	std	Y+6, r25	; 0x06
    1950:	1f 82       	std	Y+7, r1	; 0x07
    1952:	18 86       	std	Y+8, r1	; 0x08
    1954:	19 86       	std	Y+9, r1	; 0x09
    1956:	1a 86       	std	Y+10, r1	; 0x0a
    1958:	1b 86       	std	Y+11, r1	; 0x0b
    195a:	40 e0       	ldi	r20, 0x00	; 0
    195c:	be 01       	movw	r22, r28
    195e:	6f 5f       	subi	r22, 0xFF	; 255
    1960:	7f 4f       	sbci	r23, 0xFF	; 255
    1962:	80 e8       	ldi	r24, 0x80	; 128
    1964:	94 e0       	ldi	r25, 0x04	; 4
    1966:	0e 94 2c 19 	call	0x3258	; 0x3258 <twi_master_transfer>
    196a:	89 2b       	or	r24, r25
    196c:	a1 f4       	brne	.+40     	; 0x1996 <ds2483_1wire_reset+0x68>
    196e:	ce 01       	movw	r24, r28
    1970:	0c 96       	adiw	r24, 0x0c	; 12
    1972:	80 df       	rcall	.-256    	; 0x1874 <ds2483_read.constprop.6>
    1974:	8c 85       	ldd	r24, Y+12	; 0x0c
    1976:	80 fd       	sbrc	r24, 0
    1978:	fa cf       	rjmp	.-12     	; 0x196e <ds2483_1wire_reset+0x40>
    197a:	81 ff       	sbrs	r24, 1
    197c:	07 c0       	rjmp	.+14     	; 0x198c <ds2483_1wire_reset+0x5e>
    197e:	86 95       	lsr	r24
    1980:	86 95       	lsr	r24
    1982:	91 e0       	ldi	r25, 0x01	; 1
    1984:	89 27       	eor	r24, r25
    1986:	08 2f       	mov	r16, r24
    1988:	01 70       	andi	r16, 0x01	; 1
    198a:	02 c0       	rjmp	.+4      	; 0x1990 <ds2483_1wire_reset+0x62>
    198c:	00 e0       	ldi	r16, 0x00	; 0
    198e:	10 e0       	ldi	r17, 0x00	; 0
    1990:	80 2f       	mov	r24, r16
    1992:	81 70       	andi	r24, 0x01	; 1
    1994:	01 c0       	rjmp	.+2      	; 0x1998 <ds2483_1wire_reset+0x6a>
    1996:	80 e0       	ldi	r24, 0x00	; 0
    1998:	2c 96       	adiw	r28, 0x0c	; 12
    199a:	cd bf       	out	0x3d, r28	; 61
    199c:	de bf       	out	0x3e, r29	; 62
    199e:	df 91       	pop	r29
    19a0:	cf 91       	pop	r28
    19a2:	1f 91       	pop	r17
    19a4:	0f 91       	pop	r16
    19a6:	08 95       	ret

000019a8 <OWSearch>:
    19a8:	6f 92       	push	r6
    19aa:	7f 92       	push	r7
    19ac:	8f 92       	push	r8
    19ae:	9f 92       	push	r9
    19b0:	af 92       	push	r10
    19b2:	bf 92       	push	r11
    19b4:	cf 92       	push	r12
    19b6:	df 92       	push	r13
    19b8:	ef 92       	push	r14
    19ba:	ff 92       	push	r15
    19bc:	0f 93       	push	r16
    19be:	1f 93       	push	r17
    19c0:	cf 93       	push	r28
    19c2:	df 93       	push	r29
    19c4:	cd b7       	in	r28, 0x3d	; 61
    19c6:	de b7       	in	r29, 0x3e	; 62
    19c8:	2d 97       	sbiw	r28, 0x0d	; 13
    19ca:	cd bf       	out	0x3d, r28	; 61
    19cc:	de bf       	out	0x3e, r29	; 62
    19ce:	10 92 ab 26 	sts	0x26AB, r1
    19d2:	80 91 aa 26 	lds	r24, 0x26AA
    19d6:	81 11       	cpse	r24, r1
    19d8:	bf c0       	rjmp	.+382    	; 0x1b58 <OWSearch+0x1b0>
    19da:	88 e1       	ldi	r24, 0x18	; 24
    19dc:	89 83       	std	Y+1, r24	; 0x01
    19de:	81 ee       	ldi	r24, 0xE1	; 225
    19e0:	8a 83       	std	Y+2, r24	; 0x02
    19e2:	80 ef       	ldi	r24, 0xF0	; 240
    19e4:	8b 83       	std	Y+3, r24	; 0x03
    19e6:	82 e0       	ldi	r24, 0x02	; 2
    19e8:	90 e0       	ldi	r25, 0x00	; 0
    19ea:	8d 83       	std	Y+5, r24	; 0x05
    19ec:	9e 83       	std	Y+6, r25	; 0x06
    19ee:	1f 82       	std	Y+7, r1	; 0x07
    19f0:	18 86       	std	Y+8, r1	; 0x08
    19f2:	19 86       	std	Y+9, r1	; 0x09
    19f4:	1a 86       	std	Y+10, r1	; 0x0a
    19f6:	1b 86       	std	Y+11, r1	; 0x0b
    19f8:	40 e0       	ldi	r20, 0x00	; 0
    19fa:	be 01       	movw	r22, r28
    19fc:	6f 5f       	subi	r22, 0xFF	; 255
    19fe:	7f 4f       	sbci	r23, 0xFF	; 255
    1a00:	80 e8       	ldi	r24, 0x80	; 128
    1a02:	94 e0       	ldi	r25, 0x04	; 4
    1a04:	0e 94 2c 19 	call	0x3258	; 0x3258 <twi_master_transfer>
    1a08:	ce 01       	movw	r24, r28
    1a0a:	0c 96       	adiw	r24, 0x0c	; 12
    1a0c:	33 df       	rcall	.-410    	; 0x1874 <ds2483_read.constprop.6>
    1a0e:	8c 85       	ldd	r24, Y+12	; 0x0c
    1a10:	80 fd       	sbrc	r24, 0
    1a12:	fa cf       	rjmp	.-12     	; 0x1a08 <OWSearch+0x60>
    1a14:	8c df       	rcall	.-232    	; 0x192e <ds2483_1wire_reset>
    1a16:	81 11       	cpse	r24, r1
    1a18:	05 c0       	rjmp	.+10     	; 0x1a24 <OWSearch+0x7c>
    1a1a:	10 92 a9 26 	sts	0x26A9, r1
    1a1e:	10 92 aa 26 	sts	0x26AA, r1
    1a22:	a5 c0       	rjmp	.+330    	; 0x1b6e <OWSearch+0x1c6>
    1a24:	fe de       	rcall	.-516    	; 0x1822 <ds2483_write_device_configuration.constprop.2>
    1a26:	80 ef       	ldi	r24, 0xF0	; 240
    1a28:	4b df       	rcall	.-362    	; 0x18c0 <ds2483_1wire_write_byte>
    1a2a:	66 24       	eor	r6, r6
    1a2c:	63 94       	inc	r6
    1a2e:	71 2c       	mov	r7, r1
    1a30:	a1 2c       	mov	r10, r1
    1a32:	bb 24       	eor	r11, r11
    1a34:	b3 94       	inc	r11
    1a36:	88 e1       	ldi	r24, 0x18	; 24
    1a38:	98 2e       	mov	r9, r24
    1a3a:	98 e7       	ldi	r25, 0x78	; 120
    1a3c:	89 2e       	mov	r8, r25
    1a3e:	22 e0       	ldi	r18, 0x02	; 2
    1a40:	e2 2e       	mov	r14, r18
    1a42:	f1 2c       	mov	r15, r1
    1a44:	8e 01       	movw	r16, r28
    1a46:	04 5f       	subi	r16, 0xF4	; 244
    1a48:	1f 4f       	sbci	r17, 0xFF	; 255
    1a4a:	cc 24       	eor	r12, r12
    1a4c:	c3 94       	inc	r12
    1a4e:	d1 2c       	mov	r13, r1
    1a50:	2b 2d       	mov	r18, r11
    1a52:	30 e0       	ldi	r19, 0x00	; 0
    1a54:	80 91 a9 26 	lds	r24, 0x26A9
    1a58:	99 27       	eor	r25, r25
    1a5a:	87 fd       	sbrc	r24, 7
    1a5c:	90 95       	com	r25
    1a5e:	28 17       	cp	r18, r24
    1a60:	39 07       	cpc	r19, r25
    1a62:	4c f4       	brge	.+18     	; 0x1a76 <OWSearch+0xce>
    1a64:	e7 2d       	mov	r30, r7
    1a66:	f0 e0       	ldi	r31, 0x00	; 0
    1a68:	ef 55       	subi	r30, 0x5F	; 95
    1a6a:	f9 4d       	sbci	r31, 0xD9	; 217
    1a6c:	80 81       	ld	r24, Z
    1a6e:	86 21       	and	r24, r6
    1a70:	41 e0       	ldi	r20, 0x01	; 1
    1a72:	31 f4       	brne	.+12     	; 0x1a80 <OWSearch+0xd8>
    1a74:	04 c0       	rjmp	.+8      	; 0x1a7e <OWSearch+0xd6>
    1a76:	41 e0       	ldi	r20, 0x01	; 1
    1a78:	28 17       	cp	r18, r24
    1a7a:	39 07       	cpc	r19, r25
    1a7c:	09 f0       	breq	.+2      	; 0x1a80 <OWSearch+0xd8>
    1a7e:	40 e0       	ldi	r20, 0x00	; 0
    1a80:	4d 87       	std	Y+13, r20	; 0x0d
    1a82:	cf de       	rcall	.-610    	; 0x1822 <ds2483_write_device_configuration.constprop.2>
    1a84:	1c 86       	std	Y+12, r1	; 0x0c
    1a86:	99 82       	std	Y+1, r9	; 0x01
    1a88:	8a 82       	std	Y+2, r8	; 0x02
    1a8a:	4d 85       	ldd	r20, Y+13	; 0x0d
    1a8c:	44 23       	and	r20, r20
    1a8e:	11 f0       	breq	.+4      	; 0x1a94 <OWSearch+0xec>
    1a90:	80 e8       	ldi	r24, 0x80	; 128
    1a92:	01 c0       	rjmp	.+2      	; 0x1a96 <OWSearch+0xee>
    1a94:	80 e0       	ldi	r24, 0x00	; 0
    1a96:	8b 83       	std	Y+3, r24	; 0x03
    1a98:	ed 82       	std	Y+5, r14	; 0x05
    1a9a:	fe 82       	std	Y+6, r15	; 0x06
    1a9c:	0f 83       	std	Y+7, r16	; 0x07
    1a9e:	18 87       	std	Y+8, r17	; 0x08
    1aa0:	c9 86       	std	Y+9, r12	; 0x09
    1aa2:	da 86       	std	Y+10, r13	; 0x0a
    1aa4:	1b 86       	std	Y+11, r1	; 0x0b
    1aa6:	41 e0       	ldi	r20, 0x01	; 1
    1aa8:	be 01       	movw	r22, r28
    1aaa:	6f 5f       	subi	r22, 0xFF	; 255
    1aac:	7f 4f       	sbci	r23, 0xFF	; 255
    1aae:	80 e8       	ldi	r24, 0x80	; 128
    1ab0:	94 e0       	ldi	r25, 0x04	; 4
    1ab2:	0e 94 2c 19 	call	0x3258	; 0x3258 <twi_master_transfer>
    1ab6:	89 2b       	or	r24, r25
    1ab8:	69 f0       	breq	.+26     	; 0x1ad4 <OWSearch+0x12c>
    1aba:	8c 85       	ldd	r24, Y+12	; 0x0c
    1abc:	86 fb       	bst	r24, 6
    1abe:	22 27       	eor	r18, r18
    1ac0:	20 f9       	bld	r18, 0
    1ac2:	98 2f       	mov	r25, r24
    1ac4:	99 1f       	adc	r25, r25
    1ac6:	99 27       	eor	r25, r25
    1ac8:	99 1f       	adc	r25, r25
    1aca:	85 fd       	sbrc	r24, 5
    1acc:	07 c0       	rjmp	.+14     	; 0x1adc <OWSearch+0x134>
    1ace:	09 c0       	rjmp	.+18     	; 0x1ae2 <OWSearch+0x13a>
    1ad0:	c8 01       	movw	r24, r16
    1ad2:	d0 de       	rcall	.-608    	; 0x1874 <ds2483_read.constprop.6>
    1ad4:	8c 85       	ldd	r24, Y+12	; 0x0c
    1ad6:	80 fd       	sbrc	r24, 0
    1ad8:	fb cf       	rjmp	.-10     	; 0x1ad0 <OWSearch+0x128>
    1ada:	ef cf       	rjmp	.-34     	; 0x1aba <OWSearch+0x112>
    1adc:	22 23       	and	r18, r18
    1ade:	31 f0       	breq	.+12     	; 0x1aec <OWSearch+0x144>
    1ae0:	2c c0       	rjmp	.+88     	; 0x1b3a <OWSearch+0x192>
    1ae2:	21 11       	cpse	r18, r1
    1ae4:	03 c0       	rjmp	.+6      	; 0x1aec <OWSearch+0x144>
    1ae6:	99 23       	and	r25, r25
    1ae8:	51 f0       	breq	.+20     	; 0x1afe <OWSearch+0x156>
    1aea:	02 c0       	rjmp	.+4      	; 0x1af0 <OWSearch+0x148>
    1aec:	99 23       	and	r25, r25
    1aee:	41 f0       	breq	.+16     	; 0x1b00 <OWSearch+0x158>
    1af0:	e7 2d       	mov	r30, r7
    1af2:	f0 e0       	ldi	r31, 0x00	; 0
    1af4:	ef 55       	subi	r30, 0x5F	; 95
    1af6:	f9 4d       	sbci	r31, 0xD9	; 217
    1af8:	80 81       	ld	r24, Z
    1afa:	86 29       	or	r24, r6
    1afc:	09 c0       	rjmp	.+18     	; 0x1b10 <OWSearch+0x168>
    1afe:	ab 2c       	mov	r10, r11
    1b00:	e7 2d       	mov	r30, r7
    1b02:	f0 e0       	ldi	r31, 0x00	; 0
    1b04:	ef 55       	subi	r30, 0x5F	; 95
    1b06:	f9 4d       	sbci	r31, 0xD9	; 217
    1b08:	96 2d       	mov	r25, r6
    1b0a:	90 95       	com	r25
    1b0c:	80 81       	ld	r24, Z
    1b0e:	89 23       	and	r24, r25
    1b10:	80 83       	st	Z, r24
    1b12:	b3 94       	inc	r11
    1b14:	66 0c       	add	r6, r6
    1b16:	69 f4       	brne	.+26     	; 0x1b32 <OWSearch+0x18a>
    1b18:	e7 2d       	mov	r30, r7
    1b1a:	f0 e0       	ldi	r31, 0x00	; 0
    1b1c:	ef 55       	subi	r30, 0x5F	; 95
    1b1e:	f9 4d       	sbci	r31, 0xD9	; 217
    1b20:	60 81       	ld	r22, Z
    1b22:	80 91 ab 26 	lds	r24, 0x26AB
    1b26:	d7 dc       	rcall	.-1618   	; 0x14d6 <crc8_update>
    1b28:	80 93 ab 26 	sts	0x26AB, r24
    1b2c:	73 94       	inc	r7
    1b2e:	66 24       	eor	r6, r6
    1b30:	63 94       	inc	r6
    1b32:	87 e0       	ldi	r24, 0x07	; 7
    1b34:	87 15       	cp	r24, r7
    1b36:	08 f0       	brcs	.+2      	; 0x1b3a <OWSearch+0x192>
    1b38:	8b cf       	rjmp	.-234    	; 0x1a50 <OWSearch+0xa8>
    1b3a:	80 e4       	ldi	r24, 0x40	; 64
    1b3c:	8b 15       	cp	r24, r11
    1b3e:	60 f4       	brcc	.+24     	; 0x1b58 <OWSearch+0x1b0>
    1b40:	80 91 ab 26 	lds	r24, 0x26AB
    1b44:	81 11       	cpse	r24, r1
    1b46:	08 c0       	rjmp	.+16     	; 0x1b58 <OWSearch+0x1b0>
    1b48:	a0 92 a9 26 	sts	0x26A9, r10
    1b4c:	a1 10       	cpse	r10, r1
    1b4e:	0a c0       	rjmp	.+20     	; 0x1b64 <OWSearch+0x1bc>
    1b50:	81 e0       	ldi	r24, 0x01	; 1
    1b52:	80 93 aa 26 	sts	0x26AA, r24
    1b56:	06 c0       	rjmp	.+12     	; 0x1b64 <OWSearch+0x1bc>
    1b58:	10 92 a9 26 	sts	0x26A9, r1
    1b5c:	10 92 aa 26 	sts	0x26AA, r1
    1b60:	80 e0       	ldi	r24, 0x00	; 0
    1b62:	05 c0       	rjmp	.+10     	; 0x1b6e <OWSearch+0x1c6>
    1b64:	80 91 a1 26 	lds	r24, 0x26A1
    1b68:	88 23       	and	r24, r24
    1b6a:	b1 f3       	breq	.-20     	; 0x1b58 <OWSearch+0x1b0>
    1b6c:	81 e0       	ldi	r24, 0x01	; 1
    1b6e:	2d 96       	adiw	r28, 0x0d	; 13
    1b70:	cd bf       	out	0x3d, r28	; 61
    1b72:	de bf       	out	0x3e, r29	; 62
    1b74:	df 91       	pop	r29
    1b76:	cf 91       	pop	r28
    1b78:	1f 91       	pop	r17
    1b7a:	0f 91       	pop	r16
    1b7c:	ff 90       	pop	r15
    1b7e:	ef 90       	pop	r14
    1b80:	df 90       	pop	r13
    1b82:	cf 90       	pop	r12
    1b84:	bf 90       	pop	r11
    1b86:	af 90       	pop	r10
    1b88:	9f 90       	pop	r9
    1b8a:	8f 90       	pop	r8
    1b8c:	7f 90       	pop	r7
    1b8e:	6f 90       	pop	r6
    1b90:	08 95       	ret

00001b92 <ow_write_byte_power>:
    1b92:	cf 93       	push	r28
    1b94:	c8 2f       	mov	r28, r24
    1b96:	45 de       	rcall	.-886    	; 0x1822 <ds2483_write_device_configuration.constprop.2>
    1b98:	88 23       	and	r24, r24
    1b9a:	19 f0       	breq	.+6      	; 0x1ba2 <ow_write_byte_power+0x10>
    1b9c:	8c 2f       	mov	r24, r28
    1b9e:	cf 91       	pop	r28
    1ba0:	8f ce       	rjmp	.-738    	; 0x18c0 <ds2483_1wire_write_byte>
    1ba2:	80 e0       	ldi	r24, 0x00	; 0
    1ba4:	cf 91       	pop	r28
    1ba6:	08 95       	ret

00001ba8 <ow_read_byte>:
    1ba8:	ef 92       	push	r14
    1baa:	ff 92       	push	r15
    1bac:	0f 93       	push	r16
    1bae:	1f 93       	push	r17
    1bb0:	cf 93       	push	r28
    1bb2:	df 93       	push	r29
    1bb4:	cd b7       	in	r28, 0x3d	; 61
    1bb6:	de b7       	in	r29, 0x3e	; 62
    1bb8:	67 97       	sbiw	r28, 0x17	; 23
    1bba:	cd bf       	out	0x3d, r28	; 61
    1bbc:	de bf       	out	0x3e, r29	; 62
    1bbe:	7c 01       	movw	r14, r24
    1bc0:	88 e1       	ldi	r24, 0x18	; 24
    1bc2:	8c 87       	std	Y+12, r24	; 0x0c
    1bc4:	86 e9       	ldi	r24, 0x96	; 150
    1bc6:	8d 87       	std	Y+13, r24	; 0x0d
    1bc8:	21 e0       	ldi	r18, 0x01	; 1
    1bca:	30 e0       	ldi	r19, 0x00	; 0
    1bcc:	28 8b       	std	Y+16, r18	; 0x10
    1bce:	39 8b       	std	Y+17, r19	; 0x11
    1bd0:	8e 01       	movw	r16, r28
    1bd2:	09 5e       	subi	r16, 0xE9	; 233
    1bd4:	1f 4f       	sbci	r17, 0xFF	; 255
    1bd6:	0a 8b       	std	Y+18, r16	; 0x12
    1bd8:	1b 8b       	std	Y+19, r17	; 0x13
    1bda:	2c 8b       	std	Y+20, r18	; 0x14
    1bdc:	3d 8b       	std	Y+21, r19	; 0x15
    1bde:	1e 8a       	std	Y+22, r1	; 0x16
    1be0:	41 e0       	ldi	r20, 0x01	; 1
    1be2:	be 01       	movw	r22, r28
    1be4:	64 5f       	subi	r22, 0xF4	; 244
    1be6:	7f 4f       	sbci	r23, 0xFF	; 255
    1be8:	80 e8       	ldi	r24, 0x80	; 128
    1bea:	94 e0       	ldi	r25, 0x04	; 4
    1bec:	0e 94 2c 19 	call	0x3258	; 0x3258 <twi_master_transfer>
    1bf0:	89 2b       	or	r24, r25
    1bf2:	19 f0       	breq	.+6      	; 0x1bfa <ow_read_byte+0x52>
    1bf4:	20 c0       	rjmp	.+64     	; 0x1c36 <ow_read_byte+0x8e>
    1bf6:	c8 01       	movw	r24, r16
    1bf8:	3d de       	rcall	.-902    	; 0x1874 <ds2483_read.constprop.6>
    1bfa:	8f 89       	ldd	r24, Y+23	; 0x17
    1bfc:	80 fd       	sbrc	r24, 0
    1bfe:	fb cf       	rjmp	.-10     	; 0x1bf6 <ow_read_byte+0x4e>
    1c00:	88 e1       	ldi	r24, 0x18	; 24
    1c02:	89 83       	std	Y+1, r24	; 0x01
    1c04:	81 ee       	ldi	r24, 0xE1	; 225
    1c06:	8a 83       	std	Y+2, r24	; 0x02
    1c08:	8b 83       	std	Y+3, r24	; 0x03
    1c0a:	82 e0       	ldi	r24, 0x02	; 2
    1c0c:	90 e0       	ldi	r25, 0x00	; 0
    1c0e:	8d 83       	std	Y+5, r24	; 0x05
    1c10:	9e 83       	std	Y+6, r25	; 0x06
    1c12:	ef 82       	std	Y+7, r14	; 0x07
    1c14:	f8 86       	std	Y+8, r15	; 0x08
    1c16:	81 e0       	ldi	r24, 0x01	; 1
    1c18:	90 e0       	ldi	r25, 0x00	; 0
    1c1a:	89 87       	std	Y+9, r24	; 0x09
    1c1c:	9a 87       	std	Y+10, r25	; 0x0a
    1c1e:	1b 86       	std	Y+11, r1	; 0x0b
    1c20:	41 e0       	ldi	r20, 0x01	; 1
    1c22:	be 01       	movw	r22, r28
    1c24:	6f 5f       	subi	r22, 0xFF	; 255
    1c26:	7f 4f       	sbci	r23, 0xFF	; 255
    1c28:	80 e8       	ldi	r24, 0x80	; 128
    1c2a:	94 e0       	ldi	r25, 0x04	; 4
    1c2c:	0e 94 2c 19 	call	0x3258	; 0x3258 <twi_master_transfer>
    1c30:	21 e0       	ldi	r18, 0x01	; 1
    1c32:	89 2b       	or	r24, r25
    1c34:	09 f0       	breq	.+2      	; 0x1c38 <ow_read_byte+0x90>
    1c36:	20 e0       	ldi	r18, 0x00	; 0
    1c38:	82 2f       	mov	r24, r18
    1c3a:	67 96       	adiw	r28, 0x17	; 23
    1c3c:	cd bf       	out	0x3d, r28	; 61
    1c3e:	de bf       	out	0x3e, r29	; 62
    1c40:	df 91       	pop	r29
    1c42:	cf 91       	pop	r28
    1c44:	1f 91       	pop	r17
    1c46:	0f 91       	pop	r16
    1c48:	ff 90       	pop	r15
    1c4a:	ef 90       	pop	r14
    1c4c:	08 95       	ret

00001c4e <ow_match>:
    1c4e:	0f 93       	push	r16
    1c50:	1f 93       	push	r17
    1c52:	cf 93       	push	r28
    1c54:	df 93       	push	r29
    1c56:	18 2f       	mov	r17, r24
    1c58:	09 2f       	mov	r16, r25
    1c5a:	69 de       	rcall	.-814    	; 0x192e <ds2483_1wire_reset>
    1c5c:	81 11       	cpse	r24, r1
    1c5e:	02 c0       	rjmp	.+4      	; 0x1c64 <ow_match+0x16>
    1c60:	80 e0       	ldi	r24, 0x00	; 0
    1c62:	0e c0       	rjmp	.+28     	; 0x1c80 <ow_match+0x32>
    1c64:	85 e5       	ldi	r24, 0x55	; 85
    1c66:	2c de       	rcall	.-936    	; 0x18c0 <ds2483_1wire_write_byte>
    1c68:	88 23       	and	r24, r24
    1c6a:	d1 f3       	breq	.-12     	; 0x1c60 <ow_match+0x12>
    1c6c:	c1 2f       	mov	r28, r17
    1c6e:	d0 2f       	mov	r29, r16
    1c70:	18 e0       	ldi	r17, 0x08	; 8
    1c72:	89 91       	ld	r24, Y+
    1c74:	25 de       	rcall	.-950    	; 0x18c0 <ds2483_1wire_write_byte>
    1c76:	88 23       	and	r24, r24
    1c78:	99 f3       	breq	.-26     	; 0x1c60 <ow_match+0x12>
    1c7a:	11 50       	subi	r17, 0x01	; 1
    1c7c:	d1 f7       	brne	.-12     	; 0x1c72 <ow_match+0x24>
    1c7e:	81 e0       	ldi	r24, 0x01	; 1
    1c80:	df 91       	pop	r29
    1c82:	cf 91       	pop	r28
    1c84:	1f 91       	pop	r17
    1c86:	0f 91       	pop	r16
    1c88:	08 95       	ret

00001c8a <ow_detect_sensors>:
    1c8a:	cf 92       	push	r12
    1c8c:	df 92       	push	r13
    1c8e:	ef 92       	push	r14
    1c90:	ff 92       	push	r15
    1c92:	0f 93       	push	r16
    1c94:	1f 93       	push	r17
    1c96:	cf 93       	push	r28
    1c98:	df 93       	push	r29
    1c9a:	cd b7       	in	r28, 0x3d	; 61
    1c9c:	de b7       	in	r29, 0x3e	; 62
    1c9e:	2c 97       	sbiw	r28, 0x0c	; 12
    1ca0:	cd bf       	out	0x3d, r28	; 61
    1ca2:	de bf       	out	0x3e, r29	; 62
    1ca4:	10 92 84 2d 	sts	0x2D84, r1
    1ca8:	88 e1       	ldi	r24, 0x18	; 24
    1caa:	89 83       	std	Y+1, r24	; 0x01
    1cac:	80 ef       	ldi	r24, 0xF0	; 240
    1cae:	8a 83       	std	Y+2, r24	; 0x02
    1cb0:	81 e0       	ldi	r24, 0x01	; 1
    1cb2:	90 e0       	ldi	r25, 0x00	; 0
    1cb4:	8d 83       	std	Y+5, r24	; 0x05
    1cb6:	9e 83       	std	Y+6, r25	; 0x06
    1cb8:	1f 82       	std	Y+7, r1	; 0x07
    1cba:	18 86       	std	Y+8, r1	; 0x08
    1cbc:	19 86       	std	Y+9, r1	; 0x09
    1cbe:	1a 86       	std	Y+10, r1	; 0x0a
    1cc0:	1b 86       	std	Y+11, r1	; 0x0b
    1cc2:	40 e0       	ldi	r20, 0x00	; 0
    1cc4:	be 01       	movw	r22, r28
    1cc6:	6f 5f       	subi	r22, 0xFF	; 255
    1cc8:	7f 4f       	sbci	r23, 0xFF	; 255
    1cca:	80 e8       	ldi	r24, 0x80	; 128
    1ccc:	94 e0       	ldi	r25, 0x04	; 4
    1cce:	0e 94 2c 19 	call	0x3258	; 0x3258 <twi_master_transfer>
    1cd2:	89 2b       	or	r24, r25
    1cd4:	51 f4       	brne	.+20     	; 0x1cea <ow_detect_sensors+0x60>
    1cd6:	1c 86       	std	Y+12, r1	; 0x0c
    1cd8:	ce 01       	movw	r24, r28
    1cda:	0c 96       	adiw	r24, 0x0c	; 12
    1cdc:	cb dd       	rcall	.-1130   	; 0x1874 <ds2483_read.constprop.6>
    1cde:	8c 85       	ldd	r24, Y+12	; 0x0c
    1ce0:	80 fd       	sbrc	r24, 0
    1ce2:	f9 cf       	rjmp	.-14     	; 0x1cd6 <ow_detect_sensors+0x4c>
    1ce4:	87 7f       	andi	r24, 0xF7	; 247
    1ce6:	80 31       	cpi	r24, 0x10	; 16
    1ce8:	19 f0       	breq	.+6      	; 0x1cf0 <ow_detect_sensors+0x66>
    1cea:	80 91 84 2d 	lds	r24, 0x2D84
    1cee:	6c c0       	rjmp	.+216    	; 0x1dc8 <ow_detect_sensors+0x13e>
    1cf0:	98 dd       	rcall	.-1232   	; 0x1822 <ds2483_write_device_configuration.constprop.2>
    1cf2:	88 23       	and	r24, r24
    1cf4:	d1 f3       	breq	.-12     	; 0x1cea <ow_detect_sensors+0x60>
    1cf6:	10 91 84 2d 	lds	r17, 0x2D84
    1cfa:	10 92 a9 26 	sts	0x26A9, r1
    1cfe:	10 92 aa 26 	sts	0x26AA, r1
    1d02:	52 de       	rcall	.-860    	; 0x19a8 <OWSearch>
    1d04:	88 23       	and	r24, r24
    1d06:	89 f3       	breq	.-30     	; 0x1cea <ow_detect_sensors+0x60>
    1d08:	28 e0       	ldi	r18, 0x08	; 8
    1d0a:	12 9f       	mul	r17, r18
    1d0c:	d0 01       	movw	r26, r0
    1d0e:	11 24       	eor	r1, r1
    1d10:	ac 5f       	subi	r26, 0xFC	; 252
    1d12:	b2 4d       	sbci	r27, 0xD2	; 210
    1d14:	88 e0       	ldi	r24, 0x08	; 8
    1d16:	e1 ea       	ldi	r30, 0xA1	; 161
    1d18:	f6 e2       	ldi	r31, 0x26	; 38
    1d1a:	01 90       	ld	r0, Z+
    1d1c:	0d 92       	st	X+, r0
    1d1e:	8a 95       	dec	r24
    1d20:	e1 f7       	brne	.-8      	; 0x1d1a <ow_detect_sensors+0x90>
    1d22:	08 e0       	ldi	r16, 0x08	; 8
    1d24:	10 91 84 2d 	lds	r17, 0x2D84
    1d28:	1f 5f       	subi	r17, 0xFF	; 255
    1d2a:	10 93 84 2d 	sts	0x2D84, r17
    1d2e:	10 31       	cpi	r17, 0x10	; 16
    1d30:	48 f0       	brcs	.+18     	; 0x1d44 <ow_detect_sensors+0xba>
    1d32:	f0 90 84 2d 	lds	r15, 0x2D84
    1d36:	44 e0       	ldi	r20, 0x04	; 4
    1d38:	5d e2       	ldi	r21, 0x2D	; 45
    1d3a:	80 e0       	ldi	r24, 0x00	; 0
    1d3c:	90 e0       	ldi	r25, 0x00	; 0
    1d3e:	61 e1       	ldi	r22, 0x11	; 17
    1d40:	e6 2e       	mov	r14, r22
    1d42:	3f c0       	rjmp	.+126    	; 0x1dc2 <ow_detect_sensors+0x138>
    1d44:	31 de       	rcall	.-926    	; 0x19a8 <OWSearch>
    1d46:	88 23       	and	r24, r24
    1d48:	a1 f3       	breq	.-24     	; 0x1d32 <ow_detect_sensors+0xa8>
    1d4a:	38 e0       	ldi	r19, 0x08	; 8
    1d4c:	13 9f       	mul	r17, r19
    1d4e:	d0 01       	movw	r26, r0
    1d50:	11 24       	eor	r1, r1
    1d52:	ac 5f       	subi	r26, 0xFC	; 252
    1d54:	b2 4d       	sbci	r27, 0xD2	; 210
    1d56:	e1 ea       	ldi	r30, 0xA1	; 161
    1d58:	f6 e2       	ldi	r31, 0x26	; 38
    1d5a:	80 2f       	mov	r24, r16
    1d5c:	01 90       	ld	r0, Z+
    1d5e:	0d 92       	st	X+, r0
    1d60:	8a 95       	dec	r24
    1d62:	e1 f7       	brne	.-8      	; 0x1d5c <ow_detect_sensors+0xd2>
    1d64:	df cf       	rjmp	.-66     	; 0x1d24 <ow_detect_sensors+0x9a>
    1d66:	e8 9e       	mul	r14, r24
    1d68:	60 01       	movw	r12, r0
    1d6a:	e9 9e       	mul	r14, r25
    1d6c:	d0 0c       	add	r13, r0
    1d6e:	11 24       	eor	r1, r1
    1d70:	e4 ef       	ldi	r30, 0xF4	; 244
    1d72:	fb e2       	ldi	r31, 0x2B	; 43
    1d74:	ce 0e       	add	r12, r30
    1d76:	df 1e       	adc	r13, r31
    1d78:	d6 01       	movw	r26, r12
    1d7a:	20 e0       	ldi	r18, 0x00	; 0
    1d7c:	30 e0       	ldi	r19, 0x00	; 0
    1d7e:	ba 01       	movw	r22, r20
    1d80:	62 0f       	add	r22, r18
    1d82:	73 1f       	adc	r23, r19
    1d84:	fb 01       	movw	r30, r22
    1d86:	60 81       	ld	r22, Z
    1d88:	06 2f       	mov	r16, r22
    1d8a:	02 95       	swap	r16
    1d8c:	0f 70       	andi	r16, 0x0F	; 15
    1d8e:	10 e0       	ldi	r17, 0x00	; 0
    1d90:	03 52       	subi	r16, 0x23	; 35
    1d92:	1e 4d       	sbci	r17, 0xDE	; 222
    1d94:	f8 01       	movw	r30, r16
    1d96:	70 81       	ld	r23, Z
    1d98:	7c 93       	st	X, r23
    1d9a:	6f 70       	andi	r22, 0x0F	; 15
    1d9c:	70 e0       	ldi	r23, 0x00	; 0
    1d9e:	63 52       	subi	r22, 0x23	; 35
    1da0:	7e 4d       	sbci	r23, 0xDE	; 222
    1da2:	fb 01       	movw	r30, r22
    1da4:	60 81       	ld	r22, Z
    1da6:	11 96       	adiw	r26, 0x01	; 1
    1da8:	6c 93       	st	X, r22
    1daa:	11 97       	sbiw	r26, 0x01	; 1
    1dac:	12 96       	adiw	r26, 0x02	; 2
    1dae:	2f 5f       	subi	r18, 0xFF	; 255
    1db0:	3f 4f       	sbci	r19, 0xFF	; 255
    1db2:	28 30       	cpi	r18, 0x08	; 8
    1db4:	31 05       	cpc	r19, r1
    1db6:	19 f7       	brne	.-58     	; 0x1d7e <ow_detect_sensors+0xf4>
    1db8:	f6 01       	movw	r30, r12
    1dba:	10 8a       	std	Z+16, r1	; 0x10
    1dbc:	01 96       	adiw	r24, 0x01	; 1
    1dbe:	48 5f       	subi	r20, 0xF8	; 248
    1dc0:	5f 4f       	sbci	r21, 0xFF	; 255
    1dc2:	8f 15       	cp	r24, r15
    1dc4:	80 f2       	brcs	.-96     	; 0x1d66 <ow_detect_sensors+0xdc>
    1dc6:	91 cf       	rjmp	.-222    	; 0x1cea <ow_detect_sensors+0x60>
    1dc8:	2c 96       	adiw	r28, 0x0c	; 12
    1dca:	cd bf       	out	0x3d, r28	; 61
    1dcc:	de bf       	out	0x3e, r29	; 62
    1dce:	df 91       	pop	r29
    1dd0:	cf 91       	pop	r28
    1dd2:	1f 91       	pop	r17
    1dd4:	0f 91       	pop	r16
    1dd6:	ff 90       	pop	r15
    1dd8:	ef 90       	pop	r14
    1dda:	df 90       	pop	r13
    1ddc:	cf 90       	pop	r12
    1dde:	08 95       	ret

00001de0 <__vector_28>:
    1de0:	1f 92       	push	r1
    1de2:	0f 92       	push	r0
    1de4:	0f b6       	in	r0, 0x3f	; 63
    1de6:	0f 92       	push	r0
    1de8:	11 24       	eor	r1, r1
    1dea:	2f 93       	push	r18
    1dec:	8f 93       	push	r24
    1dee:	9f 93       	push	r25
    1df0:	ef 93       	push	r30
    1df2:	ff 93       	push	r31
    1df4:	90 91 b0 08 	lds	r25, 0x08B0
    1df8:	80 91 3c 27 	lds	r24, 0x273C
    1dfc:	8f 5f       	subi	r24, 0xFF	; 255
    1dfe:	8f 70       	andi	r24, 0x0F	; 15
    1e00:	20 91 3d 27 	lds	r18, 0x273D
    1e04:	82 17       	cp	r24, r18
    1e06:	41 f0       	breq	.+16     	; 0x1e18 <__vector_28+0x38>
    1e08:	e0 91 3c 27 	lds	r30, 0x273C
    1e0c:	f0 e0       	ldi	r31, 0x00	; 0
    1e0e:	e4 55       	subi	r30, 0x54	; 84
    1e10:	f9 4d       	sbci	r31, 0xD9	; 217
    1e12:	90 83       	st	Z, r25
    1e14:	80 93 3c 27 	sts	0x273C, r24
    1e18:	ff 91       	pop	r31
    1e1a:	ef 91       	pop	r30
    1e1c:	9f 91       	pop	r25
    1e1e:	8f 91       	pop	r24
    1e20:	2f 91       	pop	r18
    1e22:	0f 90       	pop	r0
    1e24:	0f be       	out	0x3f, r0	; 63
    1e26:	0f 90       	pop	r0
    1e28:	1f 90       	pop	r1
    1e2a:	18 95       	reti

00001e2c <__vector_30>:
    1e2c:	1f 92       	push	r1
    1e2e:	0f 92       	push	r0
    1e30:	0f b6       	in	r0, 0x3f	; 63
    1e32:	0f 92       	push	r0
    1e34:	11 24       	eor	r1, r1
    1e36:	0f 90       	pop	r0
    1e38:	0f be       	out	0x3f, r0	; 63
    1e3a:	0f 90       	pop	r0
    1e3c:	1f 90       	pop	r1
    1e3e:	18 95       	reti

00001e40 <__vector_29>:
    1e40:	1f 92       	push	r1
    1e42:	0f 92       	push	r0
    1e44:	0f b6       	in	r0, 0x3f	; 63
    1e46:	0f 92       	push	r0
    1e48:	11 24       	eor	r1, r1
    1e4a:	8f 93       	push	r24
    1e4c:	9f 93       	push	r25
    1e4e:	ef 93       	push	r30
    1e50:	ff 93       	push	r31
    1e52:	90 91 3e 27 	lds	r25, 0x273E
    1e56:	80 91 3f 27 	lds	r24, 0x273F
    1e5a:	98 13       	cpse	r25, r24
    1e5c:	06 c0       	rjmp	.+12     	; 0x1e6a <__vector_29+0x2a>
    1e5e:	80 91 b3 08 	lds	r24, 0x08B3
    1e62:	8c 7f       	andi	r24, 0xFC	; 252
    1e64:	80 93 b3 08 	sts	0x08B3, r24
    1e68:	0e c0       	rjmp	.+28     	; 0x1e86 <__vector_29+0x46>
    1e6a:	e0 91 3f 27 	lds	r30, 0x273F
    1e6e:	f0 e0       	ldi	r31, 0x00	; 0
    1e70:	e4 55       	subi	r30, 0x54	; 84
    1e72:	f9 4d       	sbci	r31, 0xD9	; 217
    1e74:	80 89       	ldd	r24, Z+16	; 0x10
    1e76:	80 93 b0 08 	sts	0x08B0, r24
    1e7a:	80 91 3f 27 	lds	r24, 0x273F
    1e7e:	8f 5f       	subi	r24, 0xFF	; 255
    1e80:	8f 77       	andi	r24, 0x7F	; 127
    1e82:	80 93 3f 27 	sts	0x273F, r24
    1e86:	ff 91       	pop	r31
    1e88:	ef 91       	pop	r30
    1e8a:	9f 91       	pop	r25
    1e8c:	8f 91       	pop	r24
    1e8e:	0f 90       	pop	r0
    1e90:	0f be       	out	0x3f, r0	; 63
    1e92:	0f 90       	pop	r0
    1e94:	1f 90       	pop	r1
    1e96:	18 95       	reti

00001e98 <_uartc1_enable_interrupt>:
    1e98:	e0 eb       	ldi	r30, 0xB0	; 176
    1e9a:	f8 e0       	ldi	r31, 0x08	; 8
    1e9c:	93 81       	ldd	r25, Z+3	; 0x03
    1e9e:	82 95       	swap	r24
    1ea0:	80 7f       	andi	r24, 0xF0	; 240
    1ea2:	9f 7c       	andi	r25, 0xCF	; 207
    1ea4:	89 2b       	or	r24, r25
    1ea6:	83 83       	std	Z+3, r24	; 0x03
    1ea8:	08 95       	ret

00001eaa <_uartc1_init>:
    1eaa:	cf 93       	push	r28
    1eac:	df 93       	push	r29
    1eae:	cd b7       	in	r28, 0x3d	; 61
    1eb0:	de b7       	in	r29, 0x3e	; 62
    1eb2:	29 97       	sbiw	r28, 0x09	; 9
    1eb4:	cd bf       	out	0x3d, r28	; 61
    1eb6:	de bf       	out	0x3e, r29	; 62
    1eb8:	89 e0       	ldi	r24, 0x09	; 9
    1eba:	e0 e0       	ldi	r30, 0x00	; 0
    1ebc:	f0 e2       	ldi	r31, 0x20	; 32
    1ebe:	de 01       	movw	r26, r28
    1ec0:	11 96       	adiw	r26, 0x01	; 1
    1ec2:	01 90       	ld	r0, Z+
    1ec4:	0d 92       	st	X+, r0
    1ec6:	8a 95       	dec	r24
    1ec8:	e1 f7       	brne	.-8      	; 0x1ec2 <_uartc1_init+0x18>
    1eca:	10 92 3d 27 	sts	0x273D, r1
    1ece:	10 92 3c 27 	sts	0x273C, r1
    1ed2:	10 92 3f 27 	sts	0x273F, r1
    1ed6:	10 92 3e 27 	sts	0x273E, r1
    1eda:	be 01       	movw	r22, r28
    1edc:	6f 5f       	subi	r22, 0xFF	; 255
    1ede:	7f 4f       	sbci	r23, 0xFF	; 255
    1ee0:	80 eb       	ldi	r24, 0xB0	; 176
    1ee2:	98 e0       	ldi	r25, 0x08	; 8
    1ee4:	0e 94 63 1a 	call	0x34c6	; 0x34c6 <usart_init_rs232>
    1ee8:	e0 eb       	ldi	r30, 0xB0	; 176
    1eea:	f8 e0       	ldi	r31, 0x08	; 8
    1eec:	83 81       	ldd	r24, Z+3	; 0x03
    1eee:	8f 7c       	andi	r24, 0xCF	; 207
    1ef0:	83 83       	std	Z+3, r24	; 0x03
    1ef2:	83 81       	ldd	r24, Z+3	; 0x03
    1ef4:	83 7f       	andi	r24, 0xF3	; 243
    1ef6:	83 83       	std	Z+3, r24	; 0x03
    1ef8:	83 81       	ldd	r24, Z+3	; 0x03
    1efa:	8c 7f       	andi	r24, 0xFC	; 252
    1efc:	81 60       	ori	r24, 0x01	; 1
    1efe:	83 83       	std	Z+3, r24	; 0x03
    1f00:	29 96       	adiw	r28, 0x09	; 9
    1f02:	cd bf       	out	0x3d, r28	; 61
    1f04:	de bf       	out	0x3e, r29	; 62
    1f06:	df 91       	pop	r29
    1f08:	cf 91       	pop	r28
    1f0a:	08 95       	ret

00001f0c <_uartc1_putc>:
    1f0c:	cf 93       	push	r28
    1f0e:	c8 2f       	mov	r28, r24
    1f10:	68 e0       	ldi	r22, 0x08	; 8
    1f12:	70 e0       	ldi	r23, 0x00	; 0
    1f14:	81 e0       	ldi	r24, 0x01	; 1
    1f16:	0e 94 c3 1b 	call	0x3786	; 0x3786 <timeout_start_singleshot>
    1f1a:	02 c0       	rjmp	.+4      	; 0x1f20 <_uartc1_putc+0x14>
    1f1c:	0e 94 b1 25 	call	0x4b62	; 0x4b62 <reset_avr>
    1f20:	90 91 3e 27 	lds	r25, 0x273E
    1f24:	9f 5f       	subi	r25, 0xFF	; 255
    1f26:	9f 77       	andi	r25, 0x7F	; 127
    1f28:	80 91 3f 27 	lds	r24, 0x273F
    1f2c:	98 17       	cp	r25, r24
    1f2e:	91 f0       	breq	.+36     	; 0x1f54 <_uartc1_putc+0x48>
    1f30:	e0 91 3e 27 	lds	r30, 0x273E
    1f34:	f0 e0       	ldi	r31, 0x00	; 0
    1f36:	e4 55       	subi	r30, 0x54	; 84
    1f38:	f9 4d       	sbci	r31, 0xD9	; 217
    1f3a:	c0 8b       	std	Z+16, r28	; 0x10
    1f3c:	90 93 3e 27 	sts	0x273E, r25
    1f40:	80 91 b3 08 	lds	r24, 0x08B3
    1f44:	8c 7f       	andi	r24, 0xFC	; 252
    1f46:	81 60       	ori	r24, 0x01	; 1
    1f48:	80 93 b3 08 	sts	0x08B3, r24
    1f4c:	81 e0       	ldi	r24, 0x01	; 1
    1f4e:	cf 91       	pop	r28
    1f50:	0c 94 e9 1b 	jmp	0x37d2	; 0x37d2 <timeout_stop>
    1f54:	81 e0       	ldi	r24, 0x01	; 1
    1f56:	0e 94 c9 1b 	call	0x3792	; 0x3792 <timeout_test_and_clear_expired>
    1f5a:	88 23       	and	r24, r24
    1f5c:	09 f3       	breq	.-62     	; 0x1f20 <_uartc1_putc+0x14>
    1f5e:	de cf       	rjmp	.-68     	; 0x1f1c <_uartc1_putc+0x10>

00001f60 <__vector_58>:
    1f60:	1f 92       	push	r1
    1f62:	0f 92       	push	r0
    1f64:	0f b6       	in	r0, 0x3f	; 63
    1f66:	0f 92       	push	r0
    1f68:	11 24       	eor	r1, r1
    1f6a:	2f 93       	push	r18
    1f6c:	8f 93       	push	r24
    1f6e:	9f 93       	push	r25
    1f70:	ef 93       	push	r30
    1f72:	ff 93       	push	r31
    1f74:	90 91 a0 0a 	lds	r25, 0x0AA0
    1f78:	80 91 40 28 	lds	r24, 0x2840
    1f7c:	8f 5f       	subi	r24, 0xFF	; 255
    1f7e:	8f 77       	andi	r24, 0x7F	; 127
    1f80:	20 91 41 28 	lds	r18, 0x2841
    1f84:	82 17       	cp	r24, r18
    1f86:	41 f0       	breq	.+16     	; 0x1f98 <__vector_58+0x38>
    1f88:	e0 91 40 28 	lds	r30, 0x2840
    1f8c:	f0 e0       	ldi	r31, 0x00	; 0
    1f8e:	e0 5c       	subi	r30, 0xC0	; 192
    1f90:	f8 4d       	sbci	r31, 0xD8	; 216
    1f92:	90 83       	st	Z, r25
    1f94:	80 93 40 28 	sts	0x2840, r24
    1f98:	ff 91       	pop	r31
    1f9a:	ef 91       	pop	r30
    1f9c:	9f 91       	pop	r25
    1f9e:	8f 91       	pop	r24
    1fa0:	2f 91       	pop	r18
    1fa2:	0f 90       	pop	r0
    1fa4:	0f be       	out	0x3f, r0	; 63
    1fa6:	0f 90       	pop	r0
    1fa8:	1f 90       	pop	r1
    1faa:	18 95       	reti

00001fac <__vector_60>:
    1fac:	1f 92       	push	r1
    1fae:	0f 92       	push	r0
    1fb0:	0f b6       	in	r0, 0x3f	; 63
    1fb2:	0f 92       	push	r0
    1fb4:	11 24       	eor	r1, r1
    1fb6:	0f 90       	pop	r0
    1fb8:	0f be       	out	0x3f, r0	; 63
    1fba:	0f 90       	pop	r0
    1fbc:	1f 90       	pop	r1
    1fbe:	18 95       	reti

00001fc0 <__vector_59>:
    1fc0:	1f 92       	push	r1
    1fc2:	0f 92       	push	r0
    1fc4:	0f b6       	in	r0, 0x3f	; 63
    1fc6:	0f 92       	push	r0
    1fc8:	11 24       	eor	r1, r1
    1fca:	8f 93       	push	r24
    1fcc:	9f 93       	push	r25
    1fce:	ef 93       	push	r30
    1fd0:	ff 93       	push	r31
    1fd2:	90 91 42 28 	lds	r25, 0x2842
    1fd6:	80 91 43 28 	lds	r24, 0x2843
    1fda:	98 13       	cpse	r25, r24
    1fdc:	06 c0       	rjmp	.+12     	; 0x1fea <__vector_59+0x2a>
    1fde:	80 91 a3 0a 	lds	r24, 0x0AA3
    1fe2:	8c 7f       	andi	r24, 0xFC	; 252
    1fe4:	80 93 a3 0a 	sts	0x0AA3, r24
    1fe8:	0e c0       	rjmp	.+28     	; 0x2006 <__vector_59+0x46>
    1fea:	e0 91 43 28 	lds	r30, 0x2843
    1fee:	f0 e0       	ldi	r31, 0x00	; 0
    1ff0:	e0 54       	subi	r30, 0x40	; 64
    1ff2:	f8 4d       	sbci	r31, 0xD8	; 216
    1ff4:	80 81       	ld	r24, Z
    1ff6:	80 93 a0 0a 	sts	0x0AA0, r24
    1ffa:	80 91 43 28 	lds	r24, 0x2843
    1ffe:	8f 5f       	subi	r24, 0xFF	; 255
    2000:	8f 77       	andi	r24, 0x7F	; 127
    2002:	80 93 43 28 	sts	0x2843, r24
    2006:	ff 91       	pop	r31
    2008:	ef 91       	pop	r30
    200a:	9f 91       	pop	r25
    200c:	8f 91       	pop	r24
    200e:	0f 90       	pop	r0
    2010:	0f be       	out	0x3f, r0	; 63
    2012:	0f 90       	pop	r0
    2014:	1f 90       	pop	r1
    2016:	18 95       	reti

00002018 <_uarte0_enable_interrupt>:
    2018:	e0 ea       	ldi	r30, 0xA0	; 160
    201a:	fa e0       	ldi	r31, 0x0A	; 10
    201c:	93 81       	ldd	r25, Z+3	; 0x03
    201e:	82 95       	swap	r24
    2020:	80 7f       	andi	r24, 0xF0	; 240
    2022:	9f 7c       	andi	r25, 0xCF	; 207
    2024:	89 2b       	or	r24, r25
    2026:	83 83       	std	Z+3, r24	; 0x03
    2028:	08 95       	ret

0000202a <_uarte0_init>:
    202a:	cf 93       	push	r28
    202c:	df 93       	push	r29
    202e:	cd b7       	in	r28, 0x3d	; 61
    2030:	de b7       	in	r29, 0x3e	; 62
    2032:	29 97       	sbiw	r28, 0x09	; 9
    2034:	cd bf       	out	0x3d, r28	; 61
    2036:	de bf       	out	0x3e, r29	; 62
    2038:	89 e0       	ldi	r24, 0x09	; 9
    203a:	e9 e0       	ldi	r30, 0x09	; 9
    203c:	f0 e2       	ldi	r31, 0x20	; 32
    203e:	de 01       	movw	r26, r28
    2040:	11 96       	adiw	r26, 0x01	; 1
    2042:	01 90       	ld	r0, Z+
    2044:	0d 92       	st	X+, r0
    2046:	8a 95       	dec	r24
    2048:	e1 f7       	brne	.-8      	; 0x2042 <_uarte0_init+0x18>
    204a:	10 92 41 28 	sts	0x2841, r1
    204e:	10 92 40 28 	sts	0x2840, r1
    2052:	10 92 43 28 	sts	0x2843, r1
    2056:	10 92 42 28 	sts	0x2842, r1
    205a:	be 01       	movw	r22, r28
    205c:	6f 5f       	subi	r22, 0xFF	; 255
    205e:	7f 4f       	sbci	r23, 0xFF	; 255
    2060:	80 ea       	ldi	r24, 0xA0	; 160
    2062:	9a e0       	ldi	r25, 0x0A	; 10
    2064:	0e 94 63 1a 	call	0x34c6	; 0x34c6 <usart_init_rs232>
    2068:	e0 ea       	ldi	r30, 0xA0	; 160
    206a:	fa e0       	ldi	r31, 0x0A	; 10
    206c:	83 81       	ldd	r24, Z+3	; 0x03
    206e:	8f 7c       	andi	r24, 0xCF	; 207
    2070:	83 83       	std	Z+3, r24	; 0x03
    2072:	83 81       	ldd	r24, Z+3	; 0x03
    2074:	83 7f       	andi	r24, 0xF3	; 243
    2076:	83 83       	std	Z+3, r24	; 0x03
    2078:	83 81       	ldd	r24, Z+3	; 0x03
    207a:	8c 7f       	andi	r24, 0xFC	; 252
    207c:	81 60       	ori	r24, 0x01	; 1
    207e:	83 83       	std	Z+3, r24	; 0x03
    2080:	29 96       	adiw	r28, 0x09	; 9
    2082:	cd bf       	out	0x3d, r28	; 61
    2084:	de bf       	out	0x3e, r29	; 62
    2086:	df 91       	pop	r29
    2088:	cf 91       	pop	r28
    208a:	08 95       	ret

0000208c <_uarte0_getc>:
    208c:	90 91 41 28 	lds	r25, 0x2841
    2090:	80 91 40 28 	lds	r24, 0x2840
    2094:	98 17       	cp	r25, r24
    2096:	71 f0       	breq	.+28     	; 0x20b4 <_uarte0_getc+0x28>
    2098:	e0 91 41 28 	lds	r30, 0x2841
    209c:	f0 e0       	ldi	r31, 0x00	; 0
    209e:	e0 5c       	subi	r30, 0xC0	; 192
    20a0:	f8 4d       	sbci	r31, 0xD8	; 216
    20a2:	20 81       	ld	r18, Z
    20a4:	80 91 41 28 	lds	r24, 0x2841
    20a8:	8f 5f       	subi	r24, 0xFF	; 255
    20aa:	8f 77       	andi	r24, 0x7F	; 127
    20ac:	80 93 41 28 	sts	0x2841, r24
    20b0:	30 e0       	ldi	r19, 0x00	; 0
    20b2:	02 c0       	rjmp	.+4      	; 0x20b8 <_uarte0_getc+0x2c>
    20b4:	2f ef       	ldi	r18, 0xFF	; 255
    20b6:	3f ef       	ldi	r19, 0xFF	; 255
    20b8:	c9 01       	movw	r24, r18
    20ba:	08 95       	ret

000020bc <_uarte0_putc>:
    20bc:	cf 93       	push	r28
    20be:	c8 2f       	mov	r28, r24
    20c0:	68 e0       	ldi	r22, 0x08	; 8
    20c2:	70 e0       	ldi	r23, 0x00	; 0
    20c4:	81 e0       	ldi	r24, 0x01	; 1
    20c6:	0e 94 c3 1b 	call	0x3786	; 0x3786 <timeout_start_singleshot>
    20ca:	02 c0       	rjmp	.+4      	; 0x20d0 <_uarte0_putc+0x14>
    20cc:	0e 94 b1 25 	call	0x4b62	; 0x4b62 <reset_avr>
    20d0:	90 91 42 28 	lds	r25, 0x2842
    20d4:	9f 5f       	subi	r25, 0xFF	; 255
    20d6:	9f 77       	andi	r25, 0x7F	; 127
    20d8:	80 91 43 28 	lds	r24, 0x2843
    20dc:	98 17       	cp	r25, r24
    20de:	91 f0       	breq	.+36     	; 0x2104 <_uarte0_putc+0x48>
    20e0:	e0 91 42 28 	lds	r30, 0x2842
    20e4:	f0 e0       	ldi	r31, 0x00	; 0
    20e6:	e0 54       	subi	r30, 0x40	; 64
    20e8:	f8 4d       	sbci	r31, 0xD8	; 216
    20ea:	c0 83       	st	Z, r28
    20ec:	90 93 42 28 	sts	0x2842, r25
    20f0:	80 91 a3 0a 	lds	r24, 0x0AA3
    20f4:	8c 7f       	andi	r24, 0xFC	; 252
    20f6:	81 60       	ori	r24, 0x01	; 1
    20f8:	80 93 a3 0a 	sts	0x0AA3, r24
    20fc:	81 e0       	ldi	r24, 0x01	; 1
    20fe:	cf 91       	pop	r28
    2100:	0c 94 e9 1b 	jmp	0x37d2	; 0x37d2 <timeout_stop>
    2104:	81 e0       	ldi	r24, 0x01	; 1
    2106:	0e 94 c9 1b 	call	0x3792	; 0x3792 <timeout_test_and_clear_expired>
    210a:	88 23       	and	r24, r24
    210c:	09 f3       	breq	.-62     	; 0x20d0 <_uarte0_putc+0x14>
    210e:	de cf       	rjmp	.-68     	; 0x20cc <_uarte0_putc+0x10>

00002110 <DEBUG_puts>:
    2110:	cf 93       	push	r28
    2112:	df 93       	push	r29
    2114:	ec 01       	movw	r28, r24
    2116:	01 c0       	rjmp	.+2      	; 0x211a <DEBUG_puts+0xa>
    2118:	f9 de       	rcall	.-526    	; 0x1f0c <_uartc1_putc>
    211a:	89 91       	ld	r24, Y+
    211c:	81 11       	cpse	r24, r1
    211e:	fc cf       	rjmp	.-8      	; 0x2118 <DEBUG_puts+0x8>
    2120:	df 91       	pop	r29
    2122:	cf 91       	pop	r28
    2124:	08 95       	ret

00002126 <DEBUG_putcrlf>:
    2126:	00 97       	sbiw	r24, 0x00	; 0
    2128:	09 f0       	breq	.+2      	; 0x212c <DEBUG_putcrlf+0x6>
    212a:	f2 df       	rcall	.-28     	; 0x2110 <DEBUG_puts>
    212c:	8e ee       	ldi	r24, 0xEE	; 238
    212e:	91 e2       	ldi	r25, 0x21	; 33
    2130:	ef cf       	rjmp	.-34     	; 0x2110 <DEBUG_puts>

00002132 <DEBUG_putu>:
    2132:	cf 92       	push	r12
    2134:	df 92       	push	r13
    2136:	ef 92       	push	r14
    2138:	ff 92       	push	r15
    213a:	6b 01       	movw	r12, r22
    213c:	7c 01       	movw	r14, r24
    213e:	8a e0       	ldi	r24, 0x0A	; 10
    2140:	c8 16       	cp	r12, r24
    2142:	d1 04       	cpc	r13, r1
    2144:	e1 04       	cpc	r14, r1
    2146:	f1 04       	cpc	r15, r1
    2148:	58 f0       	brcs	.+22     	; 0x2160 <DEBUG_putu+0x2e>
    214a:	c7 01       	movw	r24, r14
    214c:	b6 01       	movw	r22, r12
    214e:	2a e0       	ldi	r18, 0x0A	; 10
    2150:	30 e0       	ldi	r19, 0x00	; 0
    2152:	40 e0       	ldi	r20, 0x00	; 0
    2154:	50 e0       	ldi	r21, 0x00	; 0
    2156:	0e 94 d3 30 	call	0x61a6	; 0x61a6 <__udivmodsi4>
    215a:	ca 01       	movw	r24, r20
    215c:	b9 01       	movw	r22, r18
    215e:	e9 df       	rcall	.-46     	; 0x2132 <DEBUG_putu>
    2160:	c7 01       	movw	r24, r14
    2162:	b6 01       	movw	r22, r12
    2164:	2a e0       	ldi	r18, 0x0A	; 10
    2166:	30 e0       	ldi	r19, 0x00	; 0
    2168:	40 e0       	ldi	r20, 0x00	; 0
    216a:	50 e0       	ldi	r21, 0x00	; 0
    216c:	0e 94 d3 30 	call	0x61a6	; 0x61a6 <__udivmodsi4>
    2170:	86 2f       	mov	r24, r22
    2172:	80 5d       	subi	r24, 0xD0	; 208
    2174:	ff 90       	pop	r15
    2176:	ef 90       	pop	r14
    2178:	df 90       	pop	r13
    217a:	cf 90       	pop	r12
    217c:	c7 ce       	rjmp	.-626    	; 0x1f0c <_uartc1_putc>

0000217e <MODEM_get_byte>:
    217e:	cf 93       	push	r28
    2180:	df 93       	push	r29
    2182:	84 df       	rcall	.-248    	; 0x208c <_uarte0_getc>
    2184:	ec 01       	movw	r28, r24
    2186:	97 ff       	sbrs	r25, 7
    2188:	c1 de       	rcall	.-638    	; 0x1f0c <_uartc1_putc>
    218a:	ce 01       	movw	r24, r28
    218c:	df 91       	pop	r29
    218e:	cf 91       	pop	r28
    2190:	08 95       	ret

00002192 <MODEM_raw_putb>:
    2192:	cf 93       	push	r28
    2194:	c8 2f       	mov	r28, r24
    2196:	92 df       	rcall	.-220    	; 0x20bc <_uarte0_putc>
    2198:	8c 2f       	mov	r24, r28
    219a:	cf 91       	pop	r28
    219c:	b7 ce       	rjmp	.-658    	; 0x1f0c <_uartc1_putc>

0000219e <MODEM_raw_puts>:
    219e:	cf 93       	push	r28
    21a0:	df 93       	push	r29
    21a2:	ec 01       	movw	r28, r24
    21a4:	01 c0       	rjmp	.+2      	; 0x21a8 <MODEM_raw_puts+0xa>
    21a6:	f5 df       	rcall	.-22     	; 0x2192 <MODEM_raw_putb>
    21a8:	89 91       	ld	r24, Y+
    21aa:	81 11       	cpse	r24, r1
    21ac:	fc cf       	rjmp	.-8      	; 0x21a6 <MODEM_raw_puts+0x8>
    21ae:	df 91       	pop	r29
    21b0:	cf 91       	pop	r28
    21b2:	08 95       	ret

000021b4 <MODEM_crc_putb>:
    21b4:	cf 93       	push	r28
    21b6:	df 93       	push	r29
    21b8:	c6 2f       	mov	r28, r22
    21ba:	8d d9       	rcall	.-3302   	; 0x14d6 <crc8_update>
    21bc:	d8 2f       	mov	r29, r24
    21be:	8c 2f       	mov	r24, r28
    21c0:	e8 df       	rcall	.-48     	; 0x2192 <MODEM_raw_putb>
    21c2:	8d 2f       	mov	r24, r29
    21c4:	df 91       	pop	r29
    21c6:	cf 91       	pop	r28
    21c8:	08 95       	ret

000021ca <MODEM_crc_puts>:
    21ca:	cf 93       	push	r28
    21cc:	df 93       	push	r29
    21ce:	eb 01       	movw	r28, r22
    21d0:	01 c0       	rjmp	.+2      	; 0x21d4 <MODEM_crc_puts+0xa>
    21d2:	f0 df       	rcall	.-32     	; 0x21b4 <MODEM_crc_putb>
    21d4:	69 91       	ld	r22, Y+
    21d6:	61 11       	cpse	r22, r1
    21d8:	fc cf       	rjmp	.-8      	; 0x21d2 <MODEM_crc_puts+0x8>
    21da:	df 91       	pop	r29
    21dc:	cf 91       	pop	r28
    21de:	08 95       	ret

000021e0 <ioport_configure_pin>:
    21e0:	ab 01       	movw	r20, r22
    21e2:	98 2f       	mov	r25, r24
    21e4:	96 95       	lsr	r25
    21e6:	96 95       	lsr	r25
    21e8:	96 95       	lsr	r25
    21ea:	87 70       	andi	r24, 0x07	; 7
    21ec:	61 e0       	ldi	r22, 0x01	; 1
    21ee:	70 e0       	ldi	r23, 0x00	; 0
    21f0:	01 c0       	rjmp	.+2      	; 0x21f4 <ioport_configure_pin+0x14>
    21f2:	66 0f       	add	r22, r22
    21f4:	8a 95       	dec	r24
    21f6:	ea f7       	brpl	.-6      	; 0x21f2 <ioport_configure_pin+0x12>
    21f8:	20 e2       	ldi	r18, 0x20	; 32
    21fa:	92 9f       	mul	r25, r18
    21fc:	c0 01       	movw	r24, r0
    21fe:	11 24       	eor	r1, r1
    2200:	9a 5f       	subi	r25, 0xFA	; 250
    2202:	9a c0       	rjmp	.+308    	; 0x2338 <ioport_configure_port_pin>

00002204 <board_init>:
    2204:	63 e0       	ldi	r22, 0x03	; 3
    2206:	70 e0       	ldi	r23, 0x00	; 0
    2208:	8b e0       	ldi	r24, 0x0B	; 11
    220a:	ea df       	rcall	.-44     	; 0x21e0 <ioport_configure_pin>
    220c:	63 e0       	ldi	r22, 0x03	; 3
    220e:	70 e0       	ldi	r23, 0x00	; 0
    2210:	85 e0       	ldi	r24, 0x05	; 5
    2212:	e6 df       	rcall	.-52     	; 0x21e0 <ioport_configure_pin>
    2214:	63 e0       	ldi	r22, 0x03	; 3
    2216:	70 e0       	ldi	r23, 0x00	; 0
    2218:	83 e2       	ldi	r24, 0x23	; 35
    221a:	e2 df       	rcall	.-60     	; 0x21e0 <ioport_configure_pin>
    221c:	60 e0       	ldi	r22, 0x00	; 0
    221e:	70 e0       	ldi	r23, 0x00	; 0
    2220:	82 e2       	ldi	r24, 0x22	; 34
    2222:	de df       	rcall	.-68     	; 0x21e0 <ioport_configure_pin>
    2224:	63 e0       	ldi	r22, 0x03	; 3
    2226:	70 e0       	ldi	r23, 0x00	; 0
    2228:	83 e2       	ldi	r24, 0x23	; 35
    222a:	da df       	rcall	.-76     	; 0x21e0 <ioport_configure_pin>
    222c:	60 e0       	ldi	r22, 0x00	; 0
    222e:	70 e0       	ldi	r23, 0x00	; 0
    2230:	82 e2       	ldi	r24, 0x22	; 34
    2232:	d6 df       	rcall	.-84     	; 0x21e0 <ioport_configure_pin>
    2234:	63 e0       	ldi	r22, 0x03	; 3
    2236:	70 e0       	ldi	r23, 0x00	; 0
    2238:	87 e1       	ldi	r24, 0x17	; 23
    223a:	d2 df       	rcall	.-92     	; 0x21e0 <ioport_configure_pin>
    223c:	60 e0       	ldi	r22, 0x00	; 0
    223e:	70 e0       	ldi	r23, 0x00	; 0
    2240:	86 e1       	ldi	r24, 0x16	; 22
    2242:	ce df       	rcall	.-100    	; 0x21e0 <ioport_configure_pin>
    2244:	63 e0       	ldi	r22, 0x03	; 3
    2246:	70 e0       	ldi	r23, 0x00	; 0
    2248:	89 e0       	ldi	r24, 0x09	; 9
    224a:	ca df       	rcall	.-108    	; 0x21e0 <ioport_configure_pin>
    224c:	63 e0       	ldi	r22, 0x03	; 3
    224e:	70 e0       	ldi	r23, 0x00	; 0
    2250:	86 e0       	ldi	r24, 0x06	; 6
    2252:	c6 df       	rcall	.-116    	; 0x21e0 <ioport_configure_pin>
    2254:	61 e0       	ldi	r22, 0x01	; 1
    2256:	70 e0       	ldi	r23, 0x00	; 0
    2258:	88 e1       	ldi	r24, 0x18	; 24
    225a:	c2 df       	rcall	.-124    	; 0x21e0 <ioport_configure_pin>
    225c:	61 e0       	ldi	r22, 0x01	; 1
    225e:	70 e0       	ldi	r23, 0x00	; 0
    2260:	89 e1       	ldi	r24, 0x19	; 25
    2262:	be df       	rcall	.-132    	; 0x21e0 <ioport_configure_pin>
    2264:	63 e0       	ldi	r22, 0x03	; 3
    2266:	70 e0       	ldi	r23, 0x00	; 0
    2268:	8b e1       	ldi	r24, 0x1B	; 27
    226a:	ba df       	rcall	.-140    	; 0x21e0 <ioport_configure_pin>
    226c:	60 e0       	ldi	r22, 0x00	; 0
    226e:	70 e0       	ldi	r23, 0x00	; 0
    2270:	82 e1       	ldi	r24, 0x12	; 18
    2272:	b6 df       	rcall	.-148    	; 0x21e0 <ioport_configure_pin>
    2274:	60 e0       	ldi	r22, 0x00	; 0
    2276:	70 e0       	ldi	r23, 0x00	; 0
    2278:	8a e1       	ldi	r24, 0x1A	; 26
    227a:	b2 df       	rcall	.-156    	; 0x21e0 <ioport_configure_pin>
    227c:	60 e0       	ldi	r22, 0x00	; 0
    227e:	70 e0       	ldi	r23, 0x00	; 0
    2280:	8a e0       	ldi	r24, 0x0A	; 10
    2282:	ae df       	rcall	.-164    	; 0x21e0 <ioport_configure_pin>
    2284:	60 e0       	ldi	r22, 0x00	; 0
    2286:	70 e0       	ldi	r23, 0x00	; 0
    2288:	82 e0       	ldi	r24, 0x02	; 2
    228a:	aa cf       	rjmp	.-172    	; 0x21e0 <ioport_configure_pin>

0000228c <osc_enable_internal>:
    228c:	9f b7       	in	r25, 0x3f	; 63
    228e:	f8 94       	cli
    2290:	e0 e5       	ldi	r30, 0x50	; 80
    2292:	f0 e0       	ldi	r31, 0x00	; 0
    2294:	20 81       	ld	r18, Z
    2296:	82 2b       	or	r24, r18
    2298:	80 83       	st	Z, r24
    229a:	9f bf       	out	0x3f, r25	; 63
    229c:	08 95       	ret

0000229e <osc_wait_ready>:
    229e:	90 91 51 00 	lds	r25, 0x0051
    22a2:	98 23       	and	r25, r24
    22a4:	e1 f3       	breq	.-8      	; 0x229e <osc_wait_ready>
    22a6:	08 95       	ret

000022a8 <osc_enable_autocalibration.constprop.2>:
    22a8:	9f b7       	in	r25, 0x3f	; 63
    22aa:	f8 94       	cli
    22ac:	e0 e5       	ldi	r30, 0x50	; 80
    22ae:	f0 e0       	ldi	r31, 0x00	; 0
    22b0:	86 81       	ldd	r24, Z+6	; 0x06
    22b2:	89 7f       	andi	r24, 0xF9	; 249
    22b4:	86 83       	std	Z+6, r24	; 0x06
    22b6:	86 81       	ldd	r24, Z+6	; 0x06
    22b8:	86 83       	std	Z+6, r24	; 0x06
    22ba:	e0 e6       	ldi	r30, 0x60	; 96
    22bc:	f0 e0       	ldi	r31, 0x00	; 0
    22be:	80 81       	ld	r24, Z
    22c0:	81 60       	ori	r24, 0x01	; 1
    22c2:	80 83       	st	Z, r24
    22c4:	9f bf       	out	0x3f, r25	; 63
    22c6:	08 95       	ret

000022c8 <sysclk_init>:
    22c8:	8f ef       	ldi	r24, 0xFF	; 255
    22ca:	80 93 70 00 	sts	0x0070, r24
    22ce:	80 93 71 00 	sts	0x0071, r24
    22d2:	80 93 72 00 	sts	0x0072, r24
    22d6:	80 93 73 00 	sts	0x0073, r24
    22da:	80 93 74 00 	sts	0x0074, r24
    22de:	80 93 75 00 	sts	0x0075, r24
    22e2:	80 93 76 00 	sts	0x0076, r24
    22e6:	82 e0       	ldi	r24, 0x02	; 2
    22e8:	d1 df       	rcall	.-94     	; 0x228c <osc_enable_internal>
    22ea:	82 e0       	ldi	r24, 0x02	; 2
    22ec:	d8 df       	rcall	.-80     	; 0x229e <osc_wait_ready>
    22ee:	84 e0       	ldi	r24, 0x04	; 4
    22f0:	cd df       	rcall	.-102    	; 0x228c <osc_enable_internal>
    22f2:	84 e0       	ldi	r24, 0x04	; 4
    22f4:	d4 df       	rcall	.-88     	; 0x229e <osc_wait_ready>
    22f6:	d8 df       	rcall	.-80     	; 0x22a8 <osc_enable_autocalibration.constprop.2>
    22f8:	61 e0       	ldi	r22, 0x01	; 1
    22fa:	80 e4       	ldi	r24, 0x40	; 64
    22fc:	90 e0       	ldi	r25, 0x00	; 0
    22fe:	3e d0       	rcall	.+124    	; 0x237c <ccp_write_io>
    2300:	9f b7       	in	r25, 0x3f	; 63
    2302:	f8 94       	cli
    2304:	e0 e5       	ldi	r30, 0x50	; 80
    2306:	f0 e0       	ldi	r31, 0x00	; 0
    2308:	80 81       	ld	r24, Z
    230a:	8e 7f       	andi	r24, 0xFE	; 254
    230c:	80 83       	st	Z, r24
    230e:	9f bf       	out	0x3f, r25	; 63
    2310:	84 e0       	ldi	r24, 0x04	; 4
    2312:	bc df       	rcall	.-136    	; 0x228c <osc_enable_internal>
    2314:	84 e0       	ldi	r24, 0x04	; 4
    2316:	c3 df       	rcall	.-122    	; 0x229e <osc_wait_ready>
    2318:	85 e0       	ldi	r24, 0x05	; 5
    231a:	e0 e4       	ldi	r30, 0x40	; 64
    231c:	f0 e0       	ldi	r31, 0x00	; 0
    231e:	83 83       	std	Z+3, r24	; 0x03
    2320:	08 95       	ret

00002322 <sysclk_enable_module>:
    2322:	2f b7       	in	r18, 0x3f	; 63
    2324:	f8 94       	cli
    2326:	fc 01       	movw	r30, r24
    2328:	e0 59       	subi	r30, 0x90	; 144
    232a:	ff 4f       	sbci	r31, 0xFF	; 255
    232c:	60 95       	com	r22
    232e:	80 81       	ld	r24, Z
    2330:	86 23       	and	r24, r22
    2332:	80 83       	st	Z, r24
    2334:	2f bf       	out	0x3f, r18	; 63
    2336:	08 95       	ret

00002338 <ioport_configure_port_pin>:
    2338:	fc 01       	movw	r30, r24
    233a:	80 e0       	ldi	r24, 0x00	; 0
    233c:	90 e0       	ldi	r25, 0x00	; 0
    233e:	26 2f       	mov	r18, r22
    2340:	30 e0       	ldi	r19, 0x00	; 0
    2342:	d9 01       	movw	r26, r18
    2344:	08 2e       	mov	r0, r24
    2346:	02 c0       	rjmp	.+4      	; 0x234c <ioport_configure_port_pin+0x14>
    2348:	b5 95       	asr	r27
    234a:	a7 95       	ror	r26
    234c:	0a 94       	dec	r0
    234e:	e2 f7       	brpl	.-8      	; 0x2348 <ioport_configure_port_pin+0x10>
    2350:	a0 ff       	sbrs	r26, 0
    2352:	05 c0       	rjmp	.+10     	; 0x235e <ioport_configure_port_pin+0x26>
    2354:	df 01       	movw	r26, r30
    2356:	a8 0f       	add	r26, r24
    2358:	b9 1f       	adc	r27, r25
    235a:	50 96       	adiw	r26, 0x10	; 16
    235c:	5c 93       	st	X, r21
    235e:	01 96       	adiw	r24, 0x01	; 1
    2360:	88 30       	cpi	r24, 0x08	; 8
    2362:	91 05       	cpc	r25, r1
    2364:	71 f7       	brne	.-36     	; 0x2342 <ioport_configure_port_pin+0xa>
    2366:	40 ff       	sbrs	r20, 0
    2368:	07 c0       	rjmp	.+14     	; 0x2378 <ioport_configure_port_pin+0x40>
    236a:	41 ff       	sbrs	r20, 1
    236c:	02 c0       	rjmp	.+4      	; 0x2372 <ioport_configure_port_pin+0x3a>
    236e:	65 83       	std	Z+5, r22	; 0x05
    2370:	01 c0       	rjmp	.+2      	; 0x2374 <ioport_configure_port_pin+0x3c>
    2372:	66 83       	std	Z+6, r22	; 0x06
    2374:	61 83       	std	Z+1, r22	; 0x01
    2376:	08 95       	ret
    2378:	62 83       	std	Z+2, r22	; 0x02
    237a:	08 95       	ret

0000237c <ccp_write_io>:

	PUBLIC_FUNCTION(ccp_write_io)

#if defined(__GNUC__)

	out     RAMPZ, r1               // Reset bits 23:16 of Z
    237c:	1b be       	out	0x3b, r1	; 59
	movw    r30, r24                // Load addr into Z
    237e:	fc 01       	movw	r30, r24
	ldi     r18, CCP_IOREG          // Load magic CCP value
    2380:	28 ed       	ldi	r18, 0xD8	; 216
	out     CCP, r18                // Start CCP handshake
    2382:	24 bf       	out	0x34, r18	; 52
	st      Z, r22                  // Write value to I/O register
    2384:	60 83       	st	Z, r22
	ret                             // Return to caller
    2386:	08 95       	ret

00002388 <nvm_wait_until_ready>:
    2388:	80 91 cf 01 	lds	r24, 0x01CF
    238c:	87 fd       	sbrc	r24, 7
    238e:	fc cf       	rjmp	.-8      	; 0x2388 <nvm_wait_until_ready>
    2390:	08 95       	ret

00002392 <nvm_issue_command>:
    2392:	1f 93       	push	r17
    2394:	cf 93       	push	r28
    2396:	df 93       	push	r29
    2398:	c0 ec       	ldi	r28, 0xC0	; 192
    239a:	d1 e0       	ldi	r29, 0x01	; 1
    239c:	1a 85       	ldd	r17, Y+10	; 0x0a
    239e:	8a 87       	std	Y+10, r24	; 0x0a
    23a0:	61 e0       	ldi	r22, 0x01	; 1
    23a2:	8b ec       	ldi	r24, 0xCB	; 203
    23a4:	91 e0       	ldi	r25, 0x01	; 1
    23a6:	ea df       	rcall	.-44     	; 0x237c <ccp_write_io>
    23a8:	1a 87       	std	Y+10, r17	; 0x0a
    23aa:	df 91       	pop	r29
    23ac:	cf 91       	pop	r28
    23ae:	1f 91       	pop	r17
    23b0:	08 95       	ret

000023b2 <nvm_eeprom_read_buffer>:
    23b2:	ef 92       	push	r14
    23b4:	ff 92       	push	r15
    23b6:	0f 93       	push	r16
    23b8:	1f 93       	push	r17
    23ba:	cf 93       	push	r28
    23bc:	df 93       	push	r29
    23be:	00 d0       	rcall	.+0      	; 0x23c0 <nvm_eeprom_read_buffer+0xe>
    23c0:	00 d0       	rcall	.+0      	; 0x23c2 <nvm_eeprom_read_buffer+0x10>
    23c2:	cd b7       	in	r28, 0x3d	; 61
    23c4:	de b7       	in	r29, 0x3e	; 62
    23c6:	8c 01       	movw	r16, r24
    23c8:	cb 01       	movw	r24, r22
    23ca:	4b 83       	std	Y+3, r20	; 0x03
    23cc:	5c 83       	std	Y+4, r21	; 0x04
    23ce:	69 83       	std	Y+1, r22	; 0x01
    23d0:	9a 83       	std	Y+2, r25	; 0x02
    23d2:	da df       	rcall	.-76     	; 0x2388 <nvm_wait_until_ready>
    23d4:	8c ec       	ldi	r24, 0xCC	; 204
    23d6:	e8 2e       	mov	r14, r24
    23d8:	ff 24       	eor	r15, r15
    23da:	f3 94       	inc	r15
    23dc:	f7 01       	movw	r30, r14
    23de:	20 81       	ld	r18, Z
    23e0:	28 60       	ori	r18, 0x08	; 8
    23e2:	20 83       	st	Z, r18
    23e4:	98 01       	movw	r18, r16
    23e6:	30 5f       	subi	r19, 0xF0	; 240
    23e8:	4b 81       	ldd	r20, Y+3	; 0x03
    23ea:	5c 81       	ldd	r21, Y+4	; 0x04
    23ec:	b9 01       	movw	r22, r18
    23ee:	89 81       	ldd	r24, Y+1	; 0x01
    23f0:	9a 81       	ldd	r25, Y+2	; 0x02
    23f2:	0e 94 35 32 	call	0x646a	; 0x646a <memcpy>
    23f6:	f7 01       	movw	r30, r14
    23f8:	80 81       	ld	r24, Z
    23fa:	87 7f       	andi	r24, 0xF7	; 247
    23fc:	80 83       	st	Z, r24
    23fe:	24 96       	adiw	r28, 0x04	; 4
    2400:	cd bf       	out	0x3d, r28	; 61
    2402:	de bf       	out	0x3e, r29	; 62
    2404:	df 91       	pop	r29
    2406:	cf 91       	pop	r28
    2408:	1f 91       	pop	r17
    240a:	0f 91       	pop	r16
    240c:	ff 90       	pop	r15
    240e:	ef 90       	pop	r14
    2410:	08 95       	ret

00002412 <nvm_eeprom_flush_buffer>:
    2412:	ba df       	rcall	.-140    	; 0x2388 <nvm_wait_until_ready>
    2414:	80 91 cf 01 	lds	r24, 0x01CF
    2418:	81 ff       	sbrs	r24, 1
    241a:	07 c0       	rjmp	.+14     	; 0x242a <nvm_eeprom_flush_buffer+0x18>
    241c:	86 e3       	ldi	r24, 0x36	; 54
    241e:	80 93 ca 01 	sts	0x01CA, r24
    2422:	61 e0       	ldi	r22, 0x01	; 1
    2424:	8b ec       	ldi	r24, 0xCB	; 203
    2426:	91 e0       	ldi	r25, 0x01	; 1
    2428:	a9 cf       	rjmp	.-174    	; 0x237c <ccp_write_io>
    242a:	08 95       	ret

0000242c <nvm_eeprom_load_byte_to_buffer>:
    242c:	cf 93       	push	r28
    242e:	df 93       	push	r29
    2430:	00 d0       	rcall	.+0      	; 0x2432 <nvm_eeprom_load_byte_to_buffer+0x6>
    2432:	cd b7       	in	r28, 0x3d	; 61
    2434:	de b7       	in	r29, 0x3e	; 62
    2436:	6a 83       	std	Y+2, r22	; 0x02
    2438:	89 83       	std	Y+1, r24	; 0x01
    243a:	a6 df       	rcall	.-180    	; 0x2388 <nvm_wait_until_ready>
    243c:	2c ec       	ldi	r18, 0xCC	; 204
    243e:	31 e0       	ldi	r19, 0x01	; 1
    2440:	d9 01       	movw	r26, r18
    2442:	9c 91       	ld	r25, X
    2444:	98 60       	ori	r25, 0x08	; 8
    2446:	9c 93       	st	X, r25
    2448:	89 81       	ldd	r24, Y+1	; 0x01
    244a:	a8 2f       	mov	r26, r24
    244c:	b0 e0       	ldi	r27, 0x00	; 0
    244e:	b0 5f       	subi	r27, 0xF0	; 240
    2450:	6a 81       	ldd	r22, Y+2	; 0x02
    2452:	6c 93       	st	X, r22
    2454:	f9 01       	movw	r30, r18
    2456:	80 81       	ld	r24, Z
    2458:	87 7f       	andi	r24, 0xF7	; 247
    245a:	80 83       	st	Z, r24
    245c:	0f 90       	pop	r0
    245e:	0f 90       	pop	r0
    2460:	df 91       	pop	r29
    2462:	cf 91       	pop	r28
    2464:	08 95       	ret

00002466 <nvm_eeprom_write_byte>:
    2466:	ef 92       	push	r14
    2468:	ff 92       	push	r15
    246a:	0f 93       	push	r16
    246c:	1f 93       	push	r17
    246e:	cf 93       	push	r28
    2470:	df 93       	push	r29
    2472:	00 d0       	rcall	.+0      	; 0x2474 <nvm_eeprom_write_byte+0xe>
    2474:	cd b7       	in	r28, 0x3d	; 61
    2476:	de b7       	in	r29, 0x3e	; 62
    2478:	18 2f       	mov	r17, r24
    247a:	20 ec       	ldi	r18, 0xC0	; 192
    247c:	e2 2e       	mov	r14, r18
    247e:	ff 24       	eor	r15, r15
    2480:	f3 94       	inc	r15
    2482:	f7 01       	movw	r30, r14
    2484:	02 85       	ldd	r16, Z+10	; 0x0a
    2486:	69 83       	std	Y+1, r22	; 0x01
    2488:	9a 83       	std	Y+2, r25	; 0x02
    248a:	c3 df       	rcall	.-122    	; 0x2412 <nvm_eeprom_flush_buffer>
    248c:	7d df       	rcall	.-262    	; 0x2388 <nvm_wait_until_ready>
    248e:	69 81       	ldd	r22, Y+1	; 0x01
    2490:	81 2f       	mov	r24, r17
    2492:	cc df       	rcall	.-104    	; 0x242c <nvm_eeprom_load_byte_to_buffer>
    2494:	f7 01       	movw	r30, r14
    2496:	12 82       	std	Z+2, r1	; 0x02
    2498:	9a 81       	ldd	r25, Y+2	; 0x02
    249a:	91 83       	std	Z+1, r25	; 0x01
    249c:	10 83       	st	Z, r17
    249e:	85 e3       	ldi	r24, 0x35	; 53
    24a0:	82 87       	std	Z+10, r24	; 0x0a
    24a2:	61 e0       	ldi	r22, 0x01	; 1
    24a4:	8b ec       	ldi	r24, 0xCB	; 203
    24a6:	91 e0       	ldi	r25, 0x01	; 1
    24a8:	69 df       	rcall	.-302    	; 0x237c <ccp_write_io>
    24aa:	f7 01       	movw	r30, r14
    24ac:	02 87       	std	Z+10, r16	; 0x0a
    24ae:	0f 90       	pop	r0
    24b0:	0f 90       	pop	r0
    24b2:	df 91       	pop	r29
    24b4:	cf 91       	pop	r28
    24b6:	1f 91       	pop	r17
    24b8:	0f 91       	pop	r16
    24ba:	ff 90       	pop	r15
    24bc:	ef 90       	pop	r14
    24be:	08 95       	ret

000024c0 <nvm_eeprom_load_page_to_buffer>:
    24c0:	1f 93       	push	r17
    24c2:	cf 93       	push	r28
    24c4:	df 93       	push	r29
    24c6:	ec 01       	movw	r28, r24
    24c8:	5f df       	rcall	.-322    	; 0x2388 <nvm_wait_until_ready>
    24ca:	10 e0       	ldi	r17, 0x00	; 0
    24cc:	69 91       	ld	r22, Y+
    24ce:	81 2f       	mov	r24, r17
    24d0:	ad df       	rcall	.-166    	; 0x242c <nvm_eeprom_load_byte_to_buffer>
    24d2:	1f 5f       	subi	r17, 0xFF	; 255
    24d4:	10 32       	cpi	r17, 0x20	; 32
    24d6:	d1 f7       	brne	.-12     	; 0x24cc <nvm_eeprom_load_page_to_buffer+0xc>
    24d8:	df 91       	pop	r29
    24da:	cf 91       	pop	r28
    24dc:	1f 91       	pop	r17
    24de:	08 95       	ret

000024e0 <nvm_eeprom_atomic_write_page>:
    24e0:	cf 93       	push	r28
    24e2:	df 93       	push	r29
    24e4:	1f 92       	push	r1
    24e6:	cd b7       	in	r28, 0x3d	; 61
    24e8:	de b7       	in	r29, 0x3e	; 62
    24ea:	89 83       	std	Y+1, r24	; 0x01
    24ec:	4d df       	rcall	.-358    	; 0x2388 <nvm_wait_until_ready>
    24ee:	89 81       	ldd	r24, Y+1	; 0x01
    24f0:	20 e2       	ldi	r18, 0x20	; 32
    24f2:	82 9f       	mul	r24, r18
    24f4:	c0 01       	movw	r24, r0
    24f6:	11 24       	eor	r1, r1
    24f8:	e0 ec       	ldi	r30, 0xC0	; 192
    24fa:	f1 e0       	ldi	r31, 0x01	; 1
    24fc:	12 82       	std	Z+2, r1	; 0x02
    24fe:	91 83       	std	Z+1, r25	; 0x01
    2500:	80 83       	st	Z, r24
    2502:	85 e3       	ldi	r24, 0x35	; 53
    2504:	90 e0       	ldi	r25, 0x00	; 0
    2506:	0f 90       	pop	r0
    2508:	df 91       	pop	r29
    250a:	cf 91       	pop	r28
    250c:	42 cf       	rjmp	.-380    	; 0x2392 <nvm_issue_command>

0000250e <nvm_eeprom_erase_and_write_buffer>:
    250e:	cf 92       	push	r12
    2510:	df 92       	push	r13
    2512:	ef 92       	push	r14
    2514:	ff 92       	push	r15
    2516:	0f 93       	push	r16
    2518:	1f 93       	push	r17
    251a:	cf 93       	push	r28
    251c:	df 93       	push	r29
    251e:	ec 01       	movw	r28, r24
    2520:	7b 01       	movw	r14, r22
    2522:	8a 01       	movw	r16, r20
    2524:	24 c0       	rjmp	.+72     	; 0x256e <nvm_eeprom_erase_and_write_buffer+0x60>
    2526:	ce 01       	movw	r24, r28
    2528:	8f 71       	andi	r24, 0x1F	; 31
    252a:	99 27       	eor	r25, r25
    252c:	89 2b       	or	r24, r25
    252e:	99 f4       	brne	.+38     	; 0x2556 <nvm_eeprom_erase_and_write_buffer+0x48>
    2530:	00 32       	cpi	r16, 0x20	; 32
    2532:	11 05       	cpc	r17, r1
    2534:	80 f0       	brcs	.+32     	; 0x2556 <nvm_eeprom_erase_and_write_buffer+0x48>
    2536:	c7 01       	movw	r24, r14
    2538:	c3 df       	rcall	.-122    	; 0x24c0 <nvm_eeprom_load_page_to_buffer>
    253a:	ce 01       	movw	r24, r28
    253c:	35 e0       	ldi	r19, 0x05	; 5
    253e:	96 95       	lsr	r25
    2540:	87 95       	ror	r24
    2542:	3a 95       	dec	r19
    2544:	e1 f7       	brne	.-8      	; 0x253e <nvm_eeprom_erase_and_write_buffer+0x30>
    2546:	cc df       	rcall	.-104    	; 0x24e0 <nvm_eeprom_atomic_write_page>
    2548:	a0 96       	adiw	r28, 0x20	; 32
    254a:	80 e2       	ldi	r24, 0x20	; 32
    254c:	e8 0e       	add	r14, r24
    254e:	f1 1c       	adc	r15, r1
    2550:	00 52       	subi	r16, 0x20	; 32
    2552:	11 09       	sbc	r17, r1
    2554:	0c c0       	rjmp	.+24     	; 0x256e <nvm_eeprom_erase_and_write_buffer+0x60>
    2556:	6e 01       	movw	r12, r28
    2558:	ef ef       	ldi	r30, 0xFF	; 255
    255a:	ce 1a       	sub	r12, r30
    255c:	de 0a       	sbc	r13, r30
    255e:	f7 01       	movw	r30, r14
    2560:	61 91       	ld	r22, Z+
    2562:	7f 01       	movw	r14, r30
    2564:	ce 01       	movw	r24, r28
    2566:	7f df       	rcall	.-258    	; 0x2466 <nvm_eeprom_write_byte>
    2568:	01 50       	subi	r16, 0x01	; 1
    256a:	11 09       	sbc	r17, r1
    256c:	e6 01       	movw	r28, r12
    256e:	01 15       	cp	r16, r1
    2570:	11 05       	cpc	r17, r1
    2572:	c9 f6       	brne	.-78     	; 0x2526 <nvm_eeprom_erase_and_write_buffer+0x18>
    2574:	df 91       	pop	r29
    2576:	cf 91       	pop	r28
    2578:	1f 91       	pop	r17
    257a:	0f 91       	pop	r16
    257c:	ff 90       	pop	r15
    257e:	ef 90       	pop	r14
    2580:	df 90       	pop	r13
    2582:	cf 90       	pop	r12
    2584:	08 95       	ret

00002586 <nvm_eeprom_fill_buffer_with_value>:
    2586:	cf 93       	push	r28
    2588:	df 93       	push	r29
    258a:	d8 2f       	mov	r29, r24
    258c:	42 df       	rcall	.-380    	; 0x2412 <nvm_eeprom_flush_buffer>
    258e:	fc de       	rcall	.-520    	; 0x2388 <nvm_wait_until_ready>
    2590:	c0 e0       	ldi	r28, 0x00	; 0
    2592:	6d 2f       	mov	r22, r29
    2594:	8c 2f       	mov	r24, r28
    2596:	4a df       	rcall	.-364    	; 0x242c <nvm_eeprom_load_byte_to_buffer>
    2598:	cf 5f       	subi	r28, 0xFF	; 255
    259a:	c0 32       	cpi	r28, 0x20	; 32
    259c:	d1 f7       	brne	.-12     	; 0x2592 <nvm_eeprom_fill_buffer_with_value+0xc>
    259e:	df 91       	pop	r29
    25a0:	cf 91       	pop	r28
    25a2:	08 95       	ret

000025a4 <nvm_eeprom_erase_bytes_in_all_pages>:
    25a4:	f1 de       	rcall	.-542    	; 0x2388 <nvm_wait_until_ready>
    25a6:	80 e3       	ldi	r24, 0x30	; 48
    25a8:	90 e0       	ldi	r25, 0x00	; 0
    25aa:	f3 ce       	rjmp	.-538    	; 0x2392 <nvm_issue_command>

000025ac <nvm_eeprom_erase_all>:
    25ac:	8f ef       	ldi	r24, 0xFF	; 255
    25ae:	eb df       	rcall	.-42     	; 0x2586 <nvm_eeprom_fill_buffer_with_value>
    25b0:	f9 cf       	rjmp	.-14     	; 0x25a4 <nvm_eeprom_erase_bytes_in_all_pages>

000025b2 <rtc_set_time>:
    25b2:	10 92 00 04 	sts	0x0400, r1
    25b6:	20 91 01 04 	lds	r18, 0x0401
    25ba:	20 fd       	sbrc	r18, 0
    25bc:	fc cf       	rjmp	.-8      	; 0x25b6 <rtc_set_time+0x4>
    25be:	60 93 08 04 	sts	0x0408, r22
    25c2:	70 93 09 04 	sts	0x0409, r23
    25c6:	80 93 8b 2d 	sts	0x2D8B, r24
    25ca:	90 93 8c 2d 	sts	0x2D8C, r25
    25ce:	81 e0       	ldi	r24, 0x01	; 1
    25d0:	80 93 00 04 	sts	0x0400, r24
    25d4:	08 95       	ret

000025d6 <rtc_set_alarm>:
    25d6:	21 e0       	ldi	r18, 0x01	; 1
    25d8:	20 93 02 04 	sts	0x0402, r18
    25dc:	60 93 0c 04 	sts	0x040C, r22
    25e0:	70 93 0d 04 	sts	0x040D, r23
    25e4:	60 93 8f 2d 	sts	0x2D8F, r22
    25e8:	70 93 90 2d 	sts	0x2D90, r23
    25ec:	80 93 8d 2d 	sts	0x2D8D, r24
    25f0:	90 93 8e 2d 	sts	0x2D8E, r25
    25f4:	80 91 01 04 	lds	r24, 0x0401
    25f8:	80 fd       	sbrc	r24, 0
    25fa:	fc cf       	rjmp	.-8      	; 0x25f4 <rtc_set_alarm+0x1e>
    25fc:	82 e0       	ldi	r24, 0x02	; 2
    25fe:	80 93 03 04 	sts	0x0403, r24
    2602:	85 e0       	ldi	r24, 0x05	; 5
    2604:	80 93 02 04 	sts	0x0402, r24
    2608:	08 95       	ret

0000260a <rtc_set_callback>:
    260a:	80 93 91 2d 	sts	0x2D91, r24
    260e:	90 93 92 2d 	sts	0x2D92, r25
    2612:	08 95       	ret

00002614 <rtc_init>:
    2614:	64 e0       	ldi	r22, 0x04	; 4
    2616:	80 e0       	ldi	r24, 0x00	; 0
    2618:	90 e0       	ldi	r25, 0x00	; 0
    261a:	83 de       	rcall	.-762    	; 0x2322 <sysclk_enable_module>
    261c:	e0 e0       	ldi	r30, 0x00	; 0
    261e:	f4 e0       	ldi	r31, 0x04	; 4
    2620:	8f ef       	ldi	r24, 0xFF	; 255
    2622:	9f ef       	ldi	r25, 0xFF	; 255
    2624:	82 87       	std	Z+10, r24	; 0x0a
    2626:	93 87       	std	Z+11, r25	; 0x0b
    2628:	10 86       	std	Z+8, r1	; 0x08
    262a:	11 86       	std	Z+9, r1	; 0x09
    262c:	9f b7       	in	r25, 0x3f	; 63
    262e:	f8 94       	cli
    2630:	a8 e8       	ldi	r26, 0x88	; 136
    2632:	bd e2       	ldi	r27, 0x2D	; 45
    2634:	8c 91       	ld	r24, X
    2636:	8f 5f       	subi	r24, 0xFF	; 255
    2638:	8c 93       	st	X, r24
    263a:	9f bf       	out	0x3f, r25	; 63
    263c:	81 e0       	ldi	r24, 0x01	; 1
    263e:	82 83       	std	Z+2, r24	; 0x02
    2640:	80 83       	st	Z, r24
    2642:	08 95       	ret

00002644 <__vector_10>:
    2644:	1f 92       	push	r1
    2646:	0f 92       	push	r0
    2648:	0f b6       	in	r0, 0x3f	; 63
    264a:	0f 92       	push	r0
    264c:	11 24       	eor	r1, r1
    264e:	8f 93       	push	r24
    2650:	9f 93       	push	r25
    2652:	ef 93       	push	r30
    2654:	ff 93       	push	r31
    2656:	eb e8       	ldi	r30, 0x8B	; 139
    2658:	fd e2       	ldi	r31, 0x2D	; 45
    265a:	80 81       	ld	r24, Z
    265c:	91 81       	ldd	r25, Z+1	; 0x01
    265e:	01 96       	adiw	r24, 0x01	; 1
    2660:	80 83       	st	Z, r24
    2662:	91 83       	std	Z+1, r25	; 0x01
    2664:	ff 91       	pop	r31
    2666:	ef 91       	pop	r30
    2668:	9f 91       	pop	r25
    266a:	8f 91       	pop	r24
    266c:	0f 90       	pop	r0
    266e:	0f be       	out	0x3f, r0	; 63
    2670:	0f 90       	pop	r0
    2672:	1f 90       	pop	r1
    2674:	18 95       	reti

00002676 <__vector_11>:
    2676:	1f 92       	push	r1
    2678:	0f 92       	push	r0
    267a:	0f b6       	in	r0, 0x3f	; 63
    267c:	0f 92       	push	r0
    267e:	11 24       	eor	r1, r1
    2680:	cf 92       	push	r12
    2682:	df 92       	push	r13
    2684:	ef 92       	push	r14
    2686:	ff 92       	push	r15
    2688:	0f 93       	push	r16
    268a:	1f 93       	push	r17
    268c:	2f 93       	push	r18
    268e:	3f 93       	push	r19
    2690:	4f 93       	push	r20
    2692:	5f 93       	push	r21
    2694:	6f 93       	push	r22
    2696:	7f 93       	push	r23
    2698:	8f 93       	push	r24
    269a:	9f 93       	push	r25
    269c:	af 93       	push	r26
    269e:	bf 93       	push	r27
    26a0:	ef 93       	push	r30
    26a2:	ff 93       	push	r31
    26a4:	60 91 8b 2d 	lds	r22, 0x2D8B
    26a8:	70 91 8c 2d 	lds	r23, 0x2D8C
    26ac:	00 91 8d 2d 	lds	r16, 0x2D8D
    26b0:	10 91 8e 2d 	lds	r17, 0x2D8E
    26b4:	60 17       	cp	r22, r16
    26b6:	71 07       	cpc	r23, r17
    26b8:	98 f1       	brcs	.+102    	; 0x2720 <__vector_11+0xaa>
    26ba:	81 e0       	ldi	r24, 0x01	; 1
    26bc:	80 93 02 04 	sts	0x0402, r24
    26c0:	e0 91 91 2d 	lds	r30, 0x2D91
    26c4:	f0 91 92 2d 	lds	r31, 0x2D92
    26c8:	30 97       	sbiw	r30, 0x00	; 0
    26ca:	51 f1       	breq	.+84     	; 0x2720 <__vector_11+0xaa>
    26cc:	c0 90 08 04 	lds	r12, 0x0408
    26d0:	d0 90 09 04 	lds	r13, 0x0409
    26d4:	cb 01       	movw	r24, r22
    26d6:	a0 e0       	ldi	r26, 0x00	; 0
    26d8:	b0 e0       	ldi	r27, 0x00	; 0
    26da:	77 27       	eor	r23, r23
    26dc:	66 27       	eor	r22, r22
    26de:	e1 2c       	mov	r14, r1
    26e0:	f1 2c       	mov	r15, r1
    26e2:	6c 29       	or	r22, r12
    26e4:	7d 29       	or	r23, r13
    26e6:	8e 29       	or	r24, r14
    26e8:	9f 29       	or	r25, r15
    26ea:	20 e0       	ldi	r18, 0x00	; 0
    26ec:	30 e0       	ldi	r19, 0x00	; 0
    26ee:	98 01       	movw	r18, r16
    26f0:	11 27       	eor	r17, r17
    26f2:	00 27       	eor	r16, r16
    26f4:	c0 90 8f 2d 	lds	r12, 0x2D8F
    26f8:	d0 90 90 2d 	lds	r13, 0x2D90
    26fc:	e1 2c       	mov	r14, r1
    26fe:	f1 2c       	mov	r15, r1
    2700:	0c 29       	or	r16, r12
    2702:	1d 29       	or	r17, r13
    2704:	2e 29       	or	r18, r14
    2706:	3f 29       	or	r19, r15
    2708:	06 17       	cp	r16, r22
    270a:	17 07       	cpc	r17, r23
    270c:	28 07       	cpc	r18, r24
    270e:	39 07       	cpc	r19, r25
    2710:	30 f0       	brcs	.+12     	; 0x271e <__vector_11+0xa8>
    2712:	c9 01       	movw	r24, r18
    2714:	b8 01       	movw	r22, r16
    2716:	6f 5f       	subi	r22, 0xFF	; 255
    2718:	7f 4f       	sbci	r23, 0xFF	; 255
    271a:	8f 4f       	sbci	r24, 0xFF	; 255
    271c:	9f 4f       	sbci	r25, 0xFF	; 255
    271e:	09 95       	icall
    2720:	ff 91       	pop	r31
    2722:	ef 91       	pop	r30
    2724:	bf 91       	pop	r27
    2726:	af 91       	pop	r26
    2728:	9f 91       	pop	r25
    272a:	8f 91       	pop	r24
    272c:	7f 91       	pop	r23
    272e:	6f 91       	pop	r22
    2730:	5f 91       	pop	r21
    2732:	4f 91       	pop	r20
    2734:	3f 91       	pop	r19
    2736:	2f 91       	pop	r18
    2738:	1f 91       	pop	r17
    273a:	0f 91       	pop	r16
    273c:	ff 90       	pop	r15
    273e:	ef 90       	pop	r14
    2740:	df 90       	pop	r13
    2742:	cf 90       	pop	r12
    2744:	0f 90       	pop	r0
    2746:	0f be       	out	0x3f, r0	; 63
    2748:	0f 90       	pop	r0
    274a:	1f 90       	pop	r1
    274c:	18 95       	reti

0000274e <__vector_14>:
    274e:	1f 92       	push	r1
    2750:	0f 92       	push	r0
    2752:	0f b6       	in	r0, 0x3f	; 63
    2754:	0f 92       	push	r0
    2756:	11 24       	eor	r1, r1
    2758:	2f 93       	push	r18
    275a:	3f 93       	push	r19
    275c:	4f 93       	push	r20
    275e:	5f 93       	push	r21
    2760:	6f 93       	push	r22
    2762:	7f 93       	push	r23
    2764:	8f 93       	push	r24
    2766:	9f 93       	push	r25
    2768:	af 93       	push	r26
    276a:	bf 93       	push	r27
    276c:	ef 93       	push	r30
    276e:	ff 93       	push	r31
    2770:	e0 91 44 28 	lds	r30, 0x2844
    2774:	f0 91 45 28 	lds	r31, 0x2845
    2778:	30 97       	sbiw	r30, 0x00	; 0
    277a:	09 f0       	breq	.+2      	; 0x277e <__vector_14+0x30>
    277c:	09 95       	icall
    277e:	ff 91       	pop	r31
    2780:	ef 91       	pop	r30
    2782:	bf 91       	pop	r27
    2784:	af 91       	pop	r26
    2786:	9f 91       	pop	r25
    2788:	8f 91       	pop	r24
    278a:	7f 91       	pop	r23
    278c:	6f 91       	pop	r22
    278e:	5f 91       	pop	r21
    2790:	4f 91       	pop	r20
    2792:	3f 91       	pop	r19
    2794:	2f 91       	pop	r18
    2796:	0f 90       	pop	r0
    2798:	0f be       	out	0x3f, r0	; 63
    279a:	0f 90       	pop	r0
    279c:	1f 90       	pop	r1
    279e:	18 95       	reti

000027a0 <__vector_15>:
    27a0:	1f 92       	push	r1
    27a2:	0f 92       	push	r0
    27a4:	0f b6       	in	r0, 0x3f	; 63
    27a6:	0f 92       	push	r0
    27a8:	11 24       	eor	r1, r1
    27aa:	2f 93       	push	r18
    27ac:	3f 93       	push	r19
    27ae:	4f 93       	push	r20
    27b0:	5f 93       	push	r21
    27b2:	6f 93       	push	r22
    27b4:	7f 93       	push	r23
    27b6:	8f 93       	push	r24
    27b8:	9f 93       	push	r25
    27ba:	af 93       	push	r26
    27bc:	bf 93       	push	r27
    27be:	ef 93       	push	r30
    27c0:	ff 93       	push	r31
    27c2:	e0 91 46 28 	lds	r30, 0x2846
    27c6:	f0 91 47 28 	lds	r31, 0x2847
    27ca:	30 97       	sbiw	r30, 0x00	; 0
    27cc:	09 f0       	breq	.+2      	; 0x27d0 <__vector_15+0x30>
    27ce:	09 95       	icall
    27d0:	ff 91       	pop	r31
    27d2:	ef 91       	pop	r30
    27d4:	bf 91       	pop	r27
    27d6:	af 91       	pop	r26
    27d8:	9f 91       	pop	r25
    27da:	8f 91       	pop	r24
    27dc:	7f 91       	pop	r23
    27de:	6f 91       	pop	r22
    27e0:	5f 91       	pop	r21
    27e2:	4f 91       	pop	r20
    27e4:	3f 91       	pop	r19
    27e6:	2f 91       	pop	r18
    27e8:	0f 90       	pop	r0
    27ea:	0f be       	out	0x3f, r0	; 63
    27ec:	0f 90       	pop	r0
    27ee:	1f 90       	pop	r1
    27f0:	18 95       	reti

000027f2 <__vector_16>:
    27f2:	1f 92       	push	r1
    27f4:	0f 92       	push	r0
    27f6:	0f b6       	in	r0, 0x3f	; 63
    27f8:	0f 92       	push	r0
    27fa:	11 24       	eor	r1, r1
    27fc:	2f 93       	push	r18
    27fe:	3f 93       	push	r19
    2800:	4f 93       	push	r20
    2802:	5f 93       	push	r21
    2804:	6f 93       	push	r22
    2806:	7f 93       	push	r23
    2808:	8f 93       	push	r24
    280a:	9f 93       	push	r25
    280c:	af 93       	push	r26
    280e:	bf 93       	push	r27
    2810:	ef 93       	push	r30
    2812:	ff 93       	push	r31
    2814:	e0 91 48 28 	lds	r30, 0x2848
    2818:	f0 91 49 28 	lds	r31, 0x2849
    281c:	30 97       	sbiw	r30, 0x00	; 0
    281e:	09 f0       	breq	.+2      	; 0x2822 <__vector_16+0x30>
    2820:	09 95       	icall
    2822:	ff 91       	pop	r31
    2824:	ef 91       	pop	r30
    2826:	bf 91       	pop	r27
    2828:	af 91       	pop	r26
    282a:	9f 91       	pop	r25
    282c:	8f 91       	pop	r24
    282e:	7f 91       	pop	r23
    2830:	6f 91       	pop	r22
    2832:	5f 91       	pop	r21
    2834:	4f 91       	pop	r20
    2836:	3f 91       	pop	r19
    2838:	2f 91       	pop	r18
    283a:	0f 90       	pop	r0
    283c:	0f be       	out	0x3f, r0	; 63
    283e:	0f 90       	pop	r0
    2840:	1f 90       	pop	r1
    2842:	18 95       	reti

00002844 <__vector_17>:
    2844:	1f 92       	push	r1
    2846:	0f 92       	push	r0
    2848:	0f b6       	in	r0, 0x3f	; 63
    284a:	0f 92       	push	r0
    284c:	11 24       	eor	r1, r1
    284e:	2f 93       	push	r18
    2850:	3f 93       	push	r19
    2852:	4f 93       	push	r20
    2854:	5f 93       	push	r21
    2856:	6f 93       	push	r22
    2858:	7f 93       	push	r23
    285a:	8f 93       	push	r24
    285c:	9f 93       	push	r25
    285e:	af 93       	push	r26
    2860:	bf 93       	push	r27
    2862:	ef 93       	push	r30
    2864:	ff 93       	push	r31
    2866:	e0 91 4a 28 	lds	r30, 0x284A
    286a:	f0 91 4b 28 	lds	r31, 0x284B
    286e:	30 97       	sbiw	r30, 0x00	; 0
    2870:	09 f0       	breq	.+2      	; 0x2874 <__vector_17+0x30>
    2872:	09 95       	icall
    2874:	ff 91       	pop	r31
    2876:	ef 91       	pop	r30
    2878:	bf 91       	pop	r27
    287a:	af 91       	pop	r26
    287c:	9f 91       	pop	r25
    287e:	8f 91       	pop	r24
    2880:	7f 91       	pop	r23
    2882:	6f 91       	pop	r22
    2884:	5f 91       	pop	r21
    2886:	4f 91       	pop	r20
    2888:	3f 91       	pop	r19
    288a:	2f 91       	pop	r18
    288c:	0f 90       	pop	r0
    288e:	0f be       	out	0x3f, r0	; 63
    2890:	0f 90       	pop	r0
    2892:	1f 90       	pop	r1
    2894:	18 95       	reti

00002896 <__vector_18>:
    2896:	1f 92       	push	r1
    2898:	0f 92       	push	r0
    289a:	0f b6       	in	r0, 0x3f	; 63
    289c:	0f 92       	push	r0
    289e:	11 24       	eor	r1, r1
    28a0:	2f 93       	push	r18
    28a2:	3f 93       	push	r19
    28a4:	4f 93       	push	r20
    28a6:	5f 93       	push	r21
    28a8:	6f 93       	push	r22
    28aa:	7f 93       	push	r23
    28ac:	8f 93       	push	r24
    28ae:	9f 93       	push	r25
    28b0:	af 93       	push	r26
    28b2:	bf 93       	push	r27
    28b4:	ef 93       	push	r30
    28b6:	ff 93       	push	r31
    28b8:	e0 91 4c 28 	lds	r30, 0x284C
    28bc:	f0 91 4d 28 	lds	r31, 0x284D
    28c0:	30 97       	sbiw	r30, 0x00	; 0
    28c2:	09 f0       	breq	.+2      	; 0x28c6 <__vector_18+0x30>
    28c4:	09 95       	icall
    28c6:	ff 91       	pop	r31
    28c8:	ef 91       	pop	r30
    28ca:	bf 91       	pop	r27
    28cc:	af 91       	pop	r26
    28ce:	9f 91       	pop	r25
    28d0:	8f 91       	pop	r24
    28d2:	7f 91       	pop	r23
    28d4:	6f 91       	pop	r22
    28d6:	5f 91       	pop	r21
    28d8:	4f 91       	pop	r20
    28da:	3f 91       	pop	r19
    28dc:	2f 91       	pop	r18
    28de:	0f 90       	pop	r0
    28e0:	0f be       	out	0x3f, r0	; 63
    28e2:	0f 90       	pop	r0
    28e4:	1f 90       	pop	r1
    28e6:	18 95       	reti

000028e8 <__vector_19>:
    28e8:	1f 92       	push	r1
    28ea:	0f 92       	push	r0
    28ec:	0f b6       	in	r0, 0x3f	; 63
    28ee:	0f 92       	push	r0
    28f0:	11 24       	eor	r1, r1
    28f2:	2f 93       	push	r18
    28f4:	3f 93       	push	r19
    28f6:	4f 93       	push	r20
    28f8:	5f 93       	push	r21
    28fa:	6f 93       	push	r22
    28fc:	7f 93       	push	r23
    28fe:	8f 93       	push	r24
    2900:	9f 93       	push	r25
    2902:	af 93       	push	r26
    2904:	bf 93       	push	r27
    2906:	ef 93       	push	r30
    2908:	ff 93       	push	r31
    290a:	e0 91 4e 28 	lds	r30, 0x284E
    290e:	f0 91 4f 28 	lds	r31, 0x284F
    2912:	30 97       	sbiw	r30, 0x00	; 0
    2914:	09 f0       	breq	.+2      	; 0x2918 <__vector_19+0x30>
    2916:	09 95       	icall
    2918:	ff 91       	pop	r31
    291a:	ef 91       	pop	r30
    291c:	bf 91       	pop	r27
    291e:	af 91       	pop	r26
    2920:	9f 91       	pop	r25
    2922:	8f 91       	pop	r24
    2924:	7f 91       	pop	r23
    2926:	6f 91       	pop	r22
    2928:	5f 91       	pop	r21
    292a:	4f 91       	pop	r20
    292c:	3f 91       	pop	r19
    292e:	2f 91       	pop	r18
    2930:	0f 90       	pop	r0
    2932:	0f be       	out	0x3f, r0	; 63
    2934:	0f 90       	pop	r0
    2936:	1f 90       	pop	r1
    2938:	18 95       	reti

0000293a <__vector_20>:
    293a:	1f 92       	push	r1
    293c:	0f 92       	push	r0
    293e:	0f b6       	in	r0, 0x3f	; 63
    2940:	0f 92       	push	r0
    2942:	11 24       	eor	r1, r1
    2944:	2f 93       	push	r18
    2946:	3f 93       	push	r19
    2948:	4f 93       	push	r20
    294a:	5f 93       	push	r21
    294c:	6f 93       	push	r22
    294e:	7f 93       	push	r23
    2950:	8f 93       	push	r24
    2952:	9f 93       	push	r25
    2954:	af 93       	push	r26
    2956:	bf 93       	push	r27
    2958:	ef 93       	push	r30
    295a:	ff 93       	push	r31
    295c:	e0 91 50 28 	lds	r30, 0x2850
    2960:	f0 91 51 28 	lds	r31, 0x2851
    2964:	30 97       	sbiw	r30, 0x00	; 0
    2966:	09 f0       	breq	.+2      	; 0x296a <__vector_20+0x30>
    2968:	09 95       	icall
    296a:	ff 91       	pop	r31
    296c:	ef 91       	pop	r30
    296e:	bf 91       	pop	r27
    2970:	af 91       	pop	r26
    2972:	9f 91       	pop	r25
    2974:	8f 91       	pop	r24
    2976:	7f 91       	pop	r23
    2978:	6f 91       	pop	r22
    297a:	5f 91       	pop	r21
    297c:	4f 91       	pop	r20
    297e:	3f 91       	pop	r19
    2980:	2f 91       	pop	r18
    2982:	0f 90       	pop	r0
    2984:	0f be       	out	0x3f, r0	; 63
    2986:	0f 90       	pop	r0
    2988:	1f 90       	pop	r1
    298a:	18 95       	reti

0000298c <__vector_21>:
    298c:	1f 92       	push	r1
    298e:	0f 92       	push	r0
    2990:	0f b6       	in	r0, 0x3f	; 63
    2992:	0f 92       	push	r0
    2994:	11 24       	eor	r1, r1
    2996:	2f 93       	push	r18
    2998:	3f 93       	push	r19
    299a:	4f 93       	push	r20
    299c:	5f 93       	push	r21
    299e:	6f 93       	push	r22
    29a0:	7f 93       	push	r23
    29a2:	8f 93       	push	r24
    29a4:	9f 93       	push	r25
    29a6:	af 93       	push	r26
    29a8:	bf 93       	push	r27
    29aa:	ef 93       	push	r30
    29ac:	ff 93       	push	r31
    29ae:	e0 91 52 28 	lds	r30, 0x2852
    29b2:	f0 91 53 28 	lds	r31, 0x2853
    29b6:	30 97       	sbiw	r30, 0x00	; 0
    29b8:	09 f0       	breq	.+2      	; 0x29bc <__vector_21+0x30>
    29ba:	09 95       	icall
    29bc:	ff 91       	pop	r31
    29be:	ef 91       	pop	r30
    29c0:	bf 91       	pop	r27
    29c2:	af 91       	pop	r26
    29c4:	9f 91       	pop	r25
    29c6:	8f 91       	pop	r24
    29c8:	7f 91       	pop	r23
    29ca:	6f 91       	pop	r22
    29cc:	5f 91       	pop	r21
    29ce:	4f 91       	pop	r20
    29d0:	3f 91       	pop	r19
    29d2:	2f 91       	pop	r18
    29d4:	0f 90       	pop	r0
    29d6:	0f be       	out	0x3f, r0	; 63
    29d8:	0f 90       	pop	r0
    29da:	1f 90       	pop	r1
    29dc:	18 95       	reti

000029de <__vector_22>:
    29de:	1f 92       	push	r1
    29e0:	0f 92       	push	r0
    29e2:	0f b6       	in	r0, 0x3f	; 63
    29e4:	0f 92       	push	r0
    29e6:	11 24       	eor	r1, r1
    29e8:	2f 93       	push	r18
    29ea:	3f 93       	push	r19
    29ec:	4f 93       	push	r20
    29ee:	5f 93       	push	r21
    29f0:	6f 93       	push	r22
    29f2:	7f 93       	push	r23
    29f4:	8f 93       	push	r24
    29f6:	9f 93       	push	r25
    29f8:	af 93       	push	r26
    29fa:	bf 93       	push	r27
    29fc:	ef 93       	push	r30
    29fe:	ff 93       	push	r31
    2a00:	e0 91 54 28 	lds	r30, 0x2854
    2a04:	f0 91 55 28 	lds	r31, 0x2855
    2a08:	30 97       	sbiw	r30, 0x00	; 0
    2a0a:	09 f0       	breq	.+2      	; 0x2a0e <__vector_22+0x30>
    2a0c:	09 95       	icall
    2a0e:	ff 91       	pop	r31
    2a10:	ef 91       	pop	r30
    2a12:	bf 91       	pop	r27
    2a14:	af 91       	pop	r26
    2a16:	9f 91       	pop	r25
    2a18:	8f 91       	pop	r24
    2a1a:	7f 91       	pop	r23
    2a1c:	6f 91       	pop	r22
    2a1e:	5f 91       	pop	r21
    2a20:	4f 91       	pop	r20
    2a22:	3f 91       	pop	r19
    2a24:	2f 91       	pop	r18
    2a26:	0f 90       	pop	r0
    2a28:	0f be       	out	0x3f, r0	; 63
    2a2a:	0f 90       	pop	r0
    2a2c:	1f 90       	pop	r1
    2a2e:	18 95       	reti

00002a30 <__vector_23>:
    2a30:	1f 92       	push	r1
    2a32:	0f 92       	push	r0
    2a34:	0f b6       	in	r0, 0x3f	; 63
    2a36:	0f 92       	push	r0
    2a38:	11 24       	eor	r1, r1
    2a3a:	2f 93       	push	r18
    2a3c:	3f 93       	push	r19
    2a3e:	4f 93       	push	r20
    2a40:	5f 93       	push	r21
    2a42:	6f 93       	push	r22
    2a44:	7f 93       	push	r23
    2a46:	8f 93       	push	r24
    2a48:	9f 93       	push	r25
    2a4a:	af 93       	push	r26
    2a4c:	bf 93       	push	r27
    2a4e:	ef 93       	push	r30
    2a50:	ff 93       	push	r31
    2a52:	e0 91 56 28 	lds	r30, 0x2856
    2a56:	f0 91 57 28 	lds	r31, 0x2857
    2a5a:	30 97       	sbiw	r30, 0x00	; 0
    2a5c:	09 f0       	breq	.+2      	; 0x2a60 <__vector_23+0x30>
    2a5e:	09 95       	icall
    2a60:	ff 91       	pop	r31
    2a62:	ef 91       	pop	r30
    2a64:	bf 91       	pop	r27
    2a66:	af 91       	pop	r26
    2a68:	9f 91       	pop	r25
    2a6a:	8f 91       	pop	r24
    2a6c:	7f 91       	pop	r23
    2a6e:	6f 91       	pop	r22
    2a70:	5f 91       	pop	r21
    2a72:	4f 91       	pop	r20
    2a74:	3f 91       	pop	r19
    2a76:	2f 91       	pop	r18
    2a78:	0f 90       	pop	r0
    2a7a:	0f be       	out	0x3f, r0	; 63
    2a7c:	0f 90       	pop	r0
    2a7e:	1f 90       	pop	r1
    2a80:	18 95       	reti

00002a82 <__vector_77>:
    2a82:	1f 92       	push	r1
    2a84:	0f 92       	push	r0
    2a86:	0f b6       	in	r0, 0x3f	; 63
    2a88:	0f 92       	push	r0
    2a8a:	11 24       	eor	r1, r1
    2a8c:	2f 93       	push	r18
    2a8e:	3f 93       	push	r19
    2a90:	4f 93       	push	r20
    2a92:	5f 93       	push	r21
    2a94:	6f 93       	push	r22
    2a96:	7f 93       	push	r23
    2a98:	8f 93       	push	r24
    2a9a:	9f 93       	push	r25
    2a9c:	af 93       	push	r26
    2a9e:	bf 93       	push	r27
    2aa0:	ef 93       	push	r30
    2aa2:	ff 93       	push	r31
    2aa4:	e0 91 58 28 	lds	r30, 0x2858
    2aa8:	f0 91 59 28 	lds	r31, 0x2859
    2aac:	30 97       	sbiw	r30, 0x00	; 0
    2aae:	09 f0       	breq	.+2      	; 0x2ab2 <__vector_77+0x30>
    2ab0:	09 95       	icall
    2ab2:	ff 91       	pop	r31
    2ab4:	ef 91       	pop	r30
    2ab6:	bf 91       	pop	r27
    2ab8:	af 91       	pop	r26
    2aba:	9f 91       	pop	r25
    2abc:	8f 91       	pop	r24
    2abe:	7f 91       	pop	r23
    2ac0:	6f 91       	pop	r22
    2ac2:	5f 91       	pop	r21
    2ac4:	4f 91       	pop	r20
    2ac6:	3f 91       	pop	r19
    2ac8:	2f 91       	pop	r18
    2aca:	0f 90       	pop	r0
    2acc:	0f be       	out	0x3f, r0	; 63
    2ace:	0f 90       	pop	r0
    2ad0:	1f 90       	pop	r1
    2ad2:	18 95       	reti

00002ad4 <__vector_78>:
    2ad4:	1f 92       	push	r1
    2ad6:	0f 92       	push	r0
    2ad8:	0f b6       	in	r0, 0x3f	; 63
    2ada:	0f 92       	push	r0
    2adc:	11 24       	eor	r1, r1
    2ade:	2f 93       	push	r18
    2ae0:	3f 93       	push	r19
    2ae2:	4f 93       	push	r20
    2ae4:	5f 93       	push	r21
    2ae6:	6f 93       	push	r22
    2ae8:	7f 93       	push	r23
    2aea:	8f 93       	push	r24
    2aec:	9f 93       	push	r25
    2aee:	af 93       	push	r26
    2af0:	bf 93       	push	r27
    2af2:	ef 93       	push	r30
    2af4:	ff 93       	push	r31
    2af6:	e0 91 5a 28 	lds	r30, 0x285A
    2afa:	f0 91 5b 28 	lds	r31, 0x285B
    2afe:	30 97       	sbiw	r30, 0x00	; 0
    2b00:	09 f0       	breq	.+2      	; 0x2b04 <__vector_78+0x30>
    2b02:	09 95       	icall
    2b04:	ff 91       	pop	r31
    2b06:	ef 91       	pop	r30
    2b08:	bf 91       	pop	r27
    2b0a:	af 91       	pop	r26
    2b0c:	9f 91       	pop	r25
    2b0e:	8f 91       	pop	r24
    2b10:	7f 91       	pop	r23
    2b12:	6f 91       	pop	r22
    2b14:	5f 91       	pop	r21
    2b16:	4f 91       	pop	r20
    2b18:	3f 91       	pop	r19
    2b1a:	2f 91       	pop	r18
    2b1c:	0f 90       	pop	r0
    2b1e:	0f be       	out	0x3f, r0	; 63
    2b20:	0f 90       	pop	r0
    2b22:	1f 90       	pop	r1
    2b24:	18 95       	reti

00002b26 <__vector_79>:
    2b26:	1f 92       	push	r1
    2b28:	0f 92       	push	r0
    2b2a:	0f b6       	in	r0, 0x3f	; 63
    2b2c:	0f 92       	push	r0
    2b2e:	11 24       	eor	r1, r1
    2b30:	2f 93       	push	r18
    2b32:	3f 93       	push	r19
    2b34:	4f 93       	push	r20
    2b36:	5f 93       	push	r21
    2b38:	6f 93       	push	r22
    2b3a:	7f 93       	push	r23
    2b3c:	8f 93       	push	r24
    2b3e:	9f 93       	push	r25
    2b40:	af 93       	push	r26
    2b42:	bf 93       	push	r27
    2b44:	ef 93       	push	r30
    2b46:	ff 93       	push	r31
    2b48:	e0 91 5c 28 	lds	r30, 0x285C
    2b4c:	f0 91 5d 28 	lds	r31, 0x285D
    2b50:	30 97       	sbiw	r30, 0x00	; 0
    2b52:	09 f0       	breq	.+2      	; 0x2b56 <__vector_79+0x30>
    2b54:	09 95       	icall
    2b56:	ff 91       	pop	r31
    2b58:	ef 91       	pop	r30
    2b5a:	bf 91       	pop	r27
    2b5c:	af 91       	pop	r26
    2b5e:	9f 91       	pop	r25
    2b60:	8f 91       	pop	r24
    2b62:	7f 91       	pop	r23
    2b64:	6f 91       	pop	r22
    2b66:	5f 91       	pop	r21
    2b68:	4f 91       	pop	r20
    2b6a:	3f 91       	pop	r19
    2b6c:	2f 91       	pop	r18
    2b6e:	0f 90       	pop	r0
    2b70:	0f be       	out	0x3f, r0	; 63
    2b72:	0f 90       	pop	r0
    2b74:	1f 90       	pop	r1
    2b76:	18 95       	reti

00002b78 <__vector_80>:
    2b78:	1f 92       	push	r1
    2b7a:	0f 92       	push	r0
    2b7c:	0f b6       	in	r0, 0x3f	; 63
    2b7e:	0f 92       	push	r0
    2b80:	11 24       	eor	r1, r1
    2b82:	2f 93       	push	r18
    2b84:	3f 93       	push	r19
    2b86:	4f 93       	push	r20
    2b88:	5f 93       	push	r21
    2b8a:	6f 93       	push	r22
    2b8c:	7f 93       	push	r23
    2b8e:	8f 93       	push	r24
    2b90:	9f 93       	push	r25
    2b92:	af 93       	push	r26
    2b94:	bf 93       	push	r27
    2b96:	ef 93       	push	r30
    2b98:	ff 93       	push	r31
    2b9a:	e0 91 5e 28 	lds	r30, 0x285E
    2b9e:	f0 91 5f 28 	lds	r31, 0x285F
    2ba2:	30 97       	sbiw	r30, 0x00	; 0
    2ba4:	09 f0       	breq	.+2      	; 0x2ba8 <__vector_80+0x30>
    2ba6:	09 95       	icall
    2ba8:	ff 91       	pop	r31
    2baa:	ef 91       	pop	r30
    2bac:	bf 91       	pop	r27
    2bae:	af 91       	pop	r26
    2bb0:	9f 91       	pop	r25
    2bb2:	8f 91       	pop	r24
    2bb4:	7f 91       	pop	r23
    2bb6:	6f 91       	pop	r22
    2bb8:	5f 91       	pop	r21
    2bba:	4f 91       	pop	r20
    2bbc:	3f 91       	pop	r19
    2bbe:	2f 91       	pop	r18
    2bc0:	0f 90       	pop	r0
    2bc2:	0f be       	out	0x3f, r0	; 63
    2bc4:	0f 90       	pop	r0
    2bc6:	1f 90       	pop	r1
    2bc8:	18 95       	reti

00002bca <__vector_81>:
    2bca:	1f 92       	push	r1
    2bcc:	0f 92       	push	r0
    2bce:	0f b6       	in	r0, 0x3f	; 63
    2bd0:	0f 92       	push	r0
    2bd2:	11 24       	eor	r1, r1
    2bd4:	2f 93       	push	r18
    2bd6:	3f 93       	push	r19
    2bd8:	4f 93       	push	r20
    2bda:	5f 93       	push	r21
    2bdc:	6f 93       	push	r22
    2bde:	7f 93       	push	r23
    2be0:	8f 93       	push	r24
    2be2:	9f 93       	push	r25
    2be4:	af 93       	push	r26
    2be6:	bf 93       	push	r27
    2be8:	ef 93       	push	r30
    2bea:	ff 93       	push	r31
    2bec:	e0 91 60 28 	lds	r30, 0x2860
    2bf0:	f0 91 61 28 	lds	r31, 0x2861
    2bf4:	30 97       	sbiw	r30, 0x00	; 0
    2bf6:	09 f0       	breq	.+2      	; 0x2bfa <__vector_81+0x30>
    2bf8:	09 95       	icall
    2bfa:	ff 91       	pop	r31
    2bfc:	ef 91       	pop	r30
    2bfe:	bf 91       	pop	r27
    2c00:	af 91       	pop	r26
    2c02:	9f 91       	pop	r25
    2c04:	8f 91       	pop	r24
    2c06:	7f 91       	pop	r23
    2c08:	6f 91       	pop	r22
    2c0a:	5f 91       	pop	r21
    2c0c:	4f 91       	pop	r20
    2c0e:	3f 91       	pop	r19
    2c10:	2f 91       	pop	r18
    2c12:	0f 90       	pop	r0
    2c14:	0f be       	out	0x3f, r0	; 63
    2c16:	0f 90       	pop	r0
    2c18:	1f 90       	pop	r1
    2c1a:	18 95       	reti

00002c1c <__vector_82>:
    2c1c:	1f 92       	push	r1
    2c1e:	0f 92       	push	r0
    2c20:	0f b6       	in	r0, 0x3f	; 63
    2c22:	0f 92       	push	r0
    2c24:	11 24       	eor	r1, r1
    2c26:	2f 93       	push	r18
    2c28:	3f 93       	push	r19
    2c2a:	4f 93       	push	r20
    2c2c:	5f 93       	push	r21
    2c2e:	6f 93       	push	r22
    2c30:	7f 93       	push	r23
    2c32:	8f 93       	push	r24
    2c34:	9f 93       	push	r25
    2c36:	af 93       	push	r26
    2c38:	bf 93       	push	r27
    2c3a:	ef 93       	push	r30
    2c3c:	ff 93       	push	r31
    2c3e:	e0 91 62 28 	lds	r30, 0x2862
    2c42:	f0 91 63 28 	lds	r31, 0x2863
    2c46:	30 97       	sbiw	r30, 0x00	; 0
    2c48:	09 f0       	breq	.+2      	; 0x2c4c <__vector_82+0x30>
    2c4a:	09 95       	icall
    2c4c:	ff 91       	pop	r31
    2c4e:	ef 91       	pop	r30
    2c50:	bf 91       	pop	r27
    2c52:	af 91       	pop	r26
    2c54:	9f 91       	pop	r25
    2c56:	8f 91       	pop	r24
    2c58:	7f 91       	pop	r23
    2c5a:	6f 91       	pop	r22
    2c5c:	5f 91       	pop	r21
    2c5e:	4f 91       	pop	r20
    2c60:	3f 91       	pop	r19
    2c62:	2f 91       	pop	r18
    2c64:	0f 90       	pop	r0
    2c66:	0f be       	out	0x3f, r0	; 63
    2c68:	0f 90       	pop	r0
    2c6a:	1f 90       	pop	r1
    2c6c:	18 95       	reti

00002c6e <__vector_83>:
    2c6e:	1f 92       	push	r1
    2c70:	0f 92       	push	r0
    2c72:	0f b6       	in	r0, 0x3f	; 63
    2c74:	0f 92       	push	r0
    2c76:	11 24       	eor	r1, r1
    2c78:	2f 93       	push	r18
    2c7a:	3f 93       	push	r19
    2c7c:	4f 93       	push	r20
    2c7e:	5f 93       	push	r21
    2c80:	6f 93       	push	r22
    2c82:	7f 93       	push	r23
    2c84:	8f 93       	push	r24
    2c86:	9f 93       	push	r25
    2c88:	af 93       	push	r26
    2c8a:	bf 93       	push	r27
    2c8c:	ef 93       	push	r30
    2c8e:	ff 93       	push	r31
    2c90:	e0 91 64 28 	lds	r30, 0x2864
    2c94:	f0 91 65 28 	lds	r31, 0x2865
    2c98:	30 97       	sbiw	r30, 0x00	; 0
    2c9a:	09 f0       	breq	.+2      	; 0x2c9e <__vector_83+0x30>
    2c9c:	09 95       	icall
    2c9e:	ff 91       	pop	r31
    2ca0:	ef 91       	pop	r30
    2ca2:	bf 91       	pop	r27
    2ca4:	af 91       	pop	r26
    2ca6:	9f 91       	pop	r25
    2ca8:	8f 91       	pop	r24
    2caa:	7f 91       	pop	r23
    2cac:	6f 91       	pop	r22
    2cae:	5f 91       	pop	r21
    2cb0:	4f 91       	pop	r20
    2cb2:	3f 91       	pop	r19
    2cb4:	2f 91       	pop	r18
    2cb6:	0f 90       	pop	r0
    2cb8:	0f be       	out	0x3f, r0	; 63
    2cba:	0f 90       	pop	r0
    2cbc:	1f 90       	pop	r1
    2cbe:	18 95       	reti

00002cc0 <__vector_84>:
    2cc0:	1f 92       	push	r1
    2cc2:	0f 92       	push	r0
    2cc4:	0f b6       	in	r0, 0x3f	; 63
    2cc6:	0f 92       	push	r0
    2cc8:	11 24       	eor	r1, r1
    2cca:	2f 93       	push	r18
    2ccc:	3f 93       	push	r19
    2cce:	4f 93       	push	r20
    2cd0:	5f 93       	push	r21
    2cd2:	6f 93       	push	r22
    2cd4:	7f 93       	push	r23
    2cd6:	8f 93       	push	r24
    2cd8:	9f 93       	push	r25
    2cda:	af 93       	push	r26
    2cdc:	bf 93       	push	r27
    2cde:	ef 93       	push	r30
    2ce0:	ff 93       	push	r31
    2ce2:	e0 91 66 28 	lds	r30, 0x2866
    2ce6:	f0 91 67 28 	lds	r31, 0x2867
    2cea:	30 97       	sbiw	r30, 0x00	; 0
    2cec:	09 f0       	breq	.+2      	; 0x2cf0 <__vector_84+0x30>
    2cee:	09 95       	icall
    2cf0:	ff 91       	pop	r31
    2cf2:	ef 91       	pop	r30
    2cf4:	bf 91       	pop	r27
    2cf6:	af 91       	pop	r26
    2cf8:	9f 91       	pop	r25
    2cfa:	8f 91       	pop	r24
    2cfc:	7f 91       	pop	r23
    2cfe:	6f 91       	pop	r22
    2d00:	5f 91       	pop	r21
    2d02:	4f 91       	pop	r20
    2d04:	3f 91       	pop	r19
    2d06:	2f 91       	pop	r18
    2d08:	0f 90       	pop	r0
    2d0a:	0f be       	out	0x3f, r0	; 63
    2d0c:	0f 90       	pop	r0
    2d0e:	1f 90       	pop	r1
    2d10:	18 95       	reti

00002d12 <__vector_85>:
    2d12:	1f 92       	push	r1
    2d14:	0f 92       	push	r0
    2d16:	0f b6       	in	r0, 0x3f	; 63
    2d18:	0f 92       	push	r0
    2d1a:	11 24       	eor	r1, r1
    2d1c:	2f 93       	push	r18
    2d1e:	3f 93       	push	r19
    2d20:	4f 93       	push	r20
    2d22:	5f 93       	push	r21
    2d24:	6f 93       	push	r22
    2d26:	7f 93       	push	r23
    2d28:	8f 93       	push	r24
    2d2a:	9f 93       	push	r25
    2d2c:	af 93       	push	r26
    2d2e:	bf 93       	push	r27
    2d30:	ef 93       	push	r30
    2d32:	ff 93       	push	r31
    2d34:	e0 91 68 28 	lds	r30, 0x2868
    2d38:	f0 91 69 28 	lds	r31, 0x2869
    2d3c:	30 97       	sbiw	r30, 0x00	; 0
    2d3e:	09 f0       	breq	.+2      	; 0x2d42 <__vector_85+0x30>
    2d40:	09 95       	icall
    2d42:	ff 91       	pop	r31
    2d44:	ef 91       	pop	r30
    2d46:	bf 91       	pop	r27
    2d48:	af 91       	pop	r26
    2d4a:	9f 91       	pop	r25
    2d4c:	8f 91       	pop	r24
    2d4e:	7f 91       	pop	r23
    2d50:	6f 91       	pop	r22
    2d52:	5f 91       	pop	r21
    2d54:	4f 91       	pop	r20
    2d56:	3f 91       	pop	r19
    2d58:	2f 91       	pop	r18
    2d5a:	0f 90       	pop	r0
    2d5c:	0f be       	out	0x3f, r0	; 63
    2d5e:	0f 90       	pop	r0
    2d60:	1f 90       	pop	r1
    2d62:	18 95       	reti

00002d64 <__vector_86>:
    2d64:	1f 92       	push	r1
    2d66:	0f 92       	push	r0
    2d68:	0f b6       	in	r0, 0x3f	; 63
    2d6a:	0f 92       	push	r0
    2d6c:	11 24       	eor	r1, r1
    2d6e:	2f 93       	push	r18
    2d70:	3f 93       	push	r19
    2d72:	4f 93       	push	r20
    2d74:	5f 93       	push	r21
    2d76:	6f 93       	push	r22
    2d78:	7f 93       	push	r23
    2d7a:	8f 93       	push	r24
    2d7c:	9f 93       	push	r25
    2d7e:	af 93       	push	r26
    2d80:	bf 93       	push	r27
    2d82:	ef 93       	push	r30
    2d84:	ff 93       	push	r31
    2d86:	e0 91 6a 28 	lds	r30, 0x286A
    2d8a:	f0 91 6b 28 	lds	r31, 0x286B
    2d8e:	30 97       	sbiw	r30, 0x00	; 0
    2d90:	09 f0       	breq	.+2      	; 0x2d94 <__vector_86+0x30>
    2d92:	09 95       	icall
    2d94:	ff 91       	pop	r31
    2d96:	ef 91       	pop	r30
    2d98:	bf 91       	pop	r27
    2d9a:	af 91       	pop	r26
    2d9c:	9f 91       	pop	r25
    2d9e:	8f 91       	pop	r24
    2da0:	7f 91       	pop	r23
    2da2:	6f 91       	pop	r22
    2da4:	5f 91       	pop	r21
    2da6:	4f 91       	pop	r20
    2da8:	3f 91       	pop	r19
    2daa:	2f 91       	pop	r18
    2dac:	0f 90       	pop	r0
    2dae:	0f be       	out	0x3f, r0	; 63
    2db0:	0f 90       	pop	r0
    2db2:	1f 90       	pop	r1
    2db4:	18 95       	reti

00002db6 <__vector_47>:
    2db6:	1f 92       	push	r1
    2db8:	0f 92       	push	r0
    2dba:	0f b6       	in	r0, 0x3f	; 63
    2dbc:	0f 92       	push	r0
    2dbe:	11 24       	eor	r1, r1
    2dc0:	2f 93       	push	r18
    2dc2:	3f 93       	push	r19
    2dc4:	4f 93       	push	r20
    2dc6:	5f 93       	push	r21
    2dc8:	6f 93       	push	r22
    2dca:	7f 93       	push	r23
    2dcc:	8f 93       	push	r24
    2dce:	9f 93       	push	r25
    2dd0:	af 93       	push	r26
    2dd2:	bf 93       	push	r27
    2dd4:	ef 93       	push	r30
    2dd6:	ff 93       	push	r31
    2dd8:	e0 91 6c 28 	lds	r30, 0x286C
    2ddc:	f0 91 6d 28 	lds	r31, 0x286D
    2de0:	30 97       	sbiw	r30, 0x00	; 0
    2de2:	09 f0       	breq	.+2      	; 0x2de6 <__vector_47+0x30>
    2de4:	09 95       	icall
    2de6:	ff 91       	pop	r31
    2de8:	ef 91       	pop	r30
    2dea:	bf 91       	pop	r27
    2dec:	af 91       	pop	r26
    2dee:	9f 91       	pop	r25
    2df0:	8f 91       	pop	r24
    2df2:	7f 91       	pop	r23
    2df4:	6f 91       	pop	r22
    2df6:	5f 91       	pop	r21
    2df8:	4f 91       	pop	r20
    2dfa:	3f 91       	pop	r19
    2dfc:	2f 91       	pop	r18
    2dfe:	0f 90       	pop	r0
    2e00:	0f be       	out	0x3f, r0	; 63
    2e02:	0f 90       	pop	r0
    2e04:	1f 90       	pop	r1
    2e06:	18 95       	reti

00002e08 <__vector_48>:
    2e08:	1f 92       	push	r1
    2e0a:	0f 92       	push	r0
    2e0c:	0f b6       	in	r0, 0x3f	; 63
    2e0e:	0f 92       	push	r0
    2e10:	11 24       	eor	r1, r1
    2e12:	2f 93       	push	r18
    2e14:	3f 93       	push	r19
    2e16:	4f 93       	push	r20
    2e18:	5f 93       	push	r21
    2e1a:	6f 93       	push	r22
    2e1c:	7f 93       	push	r23
    2e1e:	8f 93       	push	r24
    2e20:	9f 93       	push	r25
    2e22:	af 93       	push	r26
    2e24:	bf 93       	push	r27
    2e26:	ef 93       	push	r30
    2e28:	ff 93       	push	r31
    2e2a:	e0 91 6e 28 	lds	r30, 0x286E
    2e2e:	f0 91 6f 28 	lds	r31, 0x286F
    2e32:	30 97       	sbiw	r30, 0x00	; 0
    2e34:	09 f0       	breq	.+2      	; 0x2e38 <__vector_48+0x30>
    2e36:	09 95       	icall
    2e38:	ff 91       	pop	r31
    2e3a:	ef 91       	pop	r30
    2e3c:	bf 91       	pop	r27
    2e3e:	af 91       	pop	r26
    2e40:	9f 91       	pop	r25
    2e42:	8f 91       	pop	r24
    2e44:	7f 91       	pop	r23
    2e46:	6f 91       	pop	r22
    2e48:	5f 91       	pop	r21
    2e4a:	4f 91       	pop	r20
    2e4c:	3f 91       	pop	r19
    2e4e:	2f 91       	pop	r18
    2e50:	0f 90       	pop	r0
    2e52:	0f be       	out	0x3f, r0	; 63
    2e54:	0f 90       	pop	r0
    2e56:	1f 90       	pop	r1
    2e58:	18 95       	reti

00002e5a <__vector_49>:
    2e5a:	1f 92       	push	r1
    2e5c:	0f 92       	push	r0
    2e5e:	0f b6       	in	r0, 0x3f	; 63
    2e60:	0f 92       	push	r0
    2e62:	11 24       	eor	r1, r1
    2e64:	2f 93       	push	r18
    2e66:	3f 93       	push	r19
    2e68:	4f 93       	push	r20
    2e6a:	5f 93       	push	r21
    2e6c:	6f 93       	push	r22
    2e6e:	7f 93       	push	r23
    2e70:	8f 93       	push	r24
    2e72:	9f 93       	push	r25
    2e74:	af 93       	push	r26
    2e76:	bf 93       	push	r27
    2e78:	ef 93       	push	r30
    2e7a:	ff 93       	push	r31
    2e7c:	e0 91 70 28 	lds	r30, 0x2870
    2e80:	f0 91 71 28 	lds	r31, 0x2871
    2e84:	30 97       	sbiw	r30, 0x00	; 0
    2e86:	09 f0       	breq	.+2      	; 0x2e8a <__vector_49+0x30>
    2e88:	09 95       	icall
    2e8a:	ff 91       	pop	r31
    2e8c:	ef 91       	pop	r30
    2e8e:	bf 91       	pop	r27
    2e90:	af 91       	pop	r26
    2e92:	9f 91       	pop	r25
    2e94:	8f 91       	pop	r24
    2e96:	7f 91       	pop	r23
    2e98:	6f 91       	pop	r22
    2e9a:	5f 91       	pop	r21
    2e9c:	4f 91       	pop	r20
    2e9e:	3f 91       	pop	r19
    2ea0:	2f 91       	pop	r18
    2ea2:	0f 90       	pop	r0
    2ea4:	0f be       	out	0x3f, r0	; 63
    2ea6:	0f 90       	pop	r0
    2ea8:	1f 90       	pop	r1
    2eaa:	18 95       	reti

00002eac <__vector_50>:
    2eac:	1f 92       	push	r1
    2eae:	0f 92       	push	r0
    2eb0:	0f b6       	in	r0, 0x3f	; 63
    2eb2:	0f 92       	push	r0
    2eb4:	11 24       	eor	r1, r1
    2eb6:	2f 93       	push	r18
    2eb8:	3f 93       	push	r19
    2eba:	4f 93       	push	r20
    2ebc:	5f 93       	push	r21
    2ebe:	6f 93       	push	r22
    2ec0:	7f 93       	push	r23
    2ec2:	8f 93       	push	r24
    2ec4:	9f 93       	push	r25
    2ec6:	af 93       	push	r26
    2ec8:	bf 93       	push	r27
    2eca:	ef 93       	push	r30
    2ecc:	ff 93       	push	r31
    2ece:	e0 91 72 28 	lds	r30, 0x2872
    2ed2:	f0 91 73 28 	lds	r31, 0x2873
    2ed6:	30 97       	sbiw	r30, 0x00	; 0
    2ed8:	09 f0       	breq	.+2      	; 0x2edc <__vector_50+0x30>
    2eda:	09 95       	icall
    2edc:	ff 91       	pop	r31
    2ede:	ef 91       	pop	r30
    2ee0:	bf 91       	pop	r27
    2ee2:	af 91       	pop	r26
    2ee4:	9f 91       	pop	r25
    2ee6:	8f 91       	pop	r24
    2ee8:	7f 91       	pop	r23
    2eea:	6f 91       	pop	r22
    2eec:	5f 91       	pop	r21
    2eee:	4f 91       	pop	r20
    2ef0:	3f 91       	pop	r19
    2ef2:	2f 91       	pop	r18
    2ef4:	0f 90       	pop	r0
    2ef6:	0f be       	out	0x3f, r0	; 63
    2ef8:	0f 90       	pop	r0
    2efa:	1f 90       	pop	r1
    2efc:	18 95       	reti

00002efe <__vector_51>:
    2efe:	1f 92       	push	r1
    2f00:	0f 92       	push	r0
    2f02:	0f b6       	in	r0, 0x3f	; 63
    2f04:	0f 92       	push	r0
    2f06:	11 24       	eor	r1, r1
    2f08:	2f 93       	push	r18
    2f0a:	3f 93       	push	r19
    2f0c:	4f 93       	push	r20
    2f0e:	5f 93       	push	r21
    2f10:	6f 93       	push	r22
    2f12:	7f 93       	push	r23
    2f14:	8f 93       	push	r24
    2f16:	9f 93       	push	r25
    2f18:	af 93       	push	r26
    2f1a:	bf 93       	push	r27
    2f1c:	ef 93       	push	r30
    2f1e:	ff 93       	push	r31
    2f20:	e0 91 74 28 	lds	r30, 0x2874
    2f24:	f0 91 75 28 	lds	r31, 0x2875
    2f28:	30 97       	sbiw	r30, 0x00	; 0
    2f2a:	09 f0       	breq	.+2      	; 0x2f2e <__vector_51+0x30>
    2f2c:	09 95       	icall
    2f2e:	ff 91       	pop	r31
    2f30:	ef 91       	pop	r30
    2f32:	bf 91       	pop	r27
    2f34:	af 91       	pop	r26
    2f36:	9f 91       	pop	r25
    2f38:	8f 91       	pop	r24
    2f3a:	7f 91       	pop	r23
    2f3c:	6f 91       	pop	r22
    2f3e:	5f 91       	pop	r21
    2f40:	4f 91       	pop	r20
    2f42:	3f 91       	pop	r19
    2f44:	2f 91       	pop	r18
    2f46:	0f 90       	pop	r0
    2f48:	0f be       	out	0x3f, r0	; 63
    2f4a:	0f 90       	pop	r0
    2f4c:	1f 90       	pop	r1
    2f4e:	18 95       	reti

00002f50 <__vector_52>:
    2f50:	1f 92       	push	r1
    2f52:	0f 92       	push	r0
    2f54:	0f b6       	in	r0, 0x3f	; 63
    2f56:	0f 92       	push	r0
    2f58:	11 24       	eor	r1, r1
    2f5a:	2f 93       	push	r18
    2f5c:	3f 93       	push	r19
    2f5e:	4f 93       	push	r20
    2f60:	5f 93       	push	r21
    2f62:	6f 93       	push	r22
    2f64:	7f 93       	push	r23
    2f66:	8f 93       	push	r24
    2f68:	9f 93       	push	r25
    2f6a:	af 93       	push	r26
    2f6c:	bf 93       	push	r27
    2f6e:	ef 93       	push	r30
    2f70:	ff 93       	push	r31
    2f72:	e0 91 76 28 	lds	r30, 0x2876
    2f76:	f0 91 77 28 	lds	r31, 0x2877
    2f7a:	30 97       	sbiw	r30, 0x00	; 0
    2f7c:	09 f0       	breq	.+2      	; 0x2f80 <__vector_52+0x30>
    2f7e:	09 95       	icall
    2f80:	ff 91       	pop	r31
    2f82:	ef 91       	pop	r30
    2f84:	bf 91       	pop	r27
    2f86:	af 91       	pop	r26
    2f88:	9f 91       	pop	r25
    2f8a:	8f 91       	pop	r24
    2f8c:	7f 91       	pop	r23
    2f8e:	6f 91       	pop	r22
    2f90:	5f 91       	pop	r21
    2f92:	4f 91       	pop	r20
    2f94:	3f 91       	pop	r19
    2f96:	2f 91       	pop	r18
    2f98:	0f 90       	pop	r0
    2f9a:	0f be       	out	0x3f, r0	; 63
    2f9c:	0f 90       	pop	r0
    2f9e:	1f 90       	pop	r1
    2fa0:	18 95       	reti

00002fa2 <tc_enable>:
    2fa2:	cf 93       	push	r28
    2fa4:	cf b7       	in	r28, 0x3f	; 63
    2fa6:	f8 94       	cli
    2fa8:	81 15       	cp	r24, r1
    2faa:	28 e0       	ldi	r18, 0x08	; 8
    2fac:	92 07       	cpc	r25, r18
    2fae:	11 f4       	brne	.+4      	; 0x2fb4 <tc_enable+0x12>
    2fb0:	61 e0       	ldi	r22, 0x01	; 1
    2fb2:	05 c0       	rjmp	.+10     	; 0x2fbe <tc_enable+0x1c>
    2fb4:	80 34       	cpi	r24, 0x40	; 64
    2fb6:	28 e0       	ldi	r18, 0x08	; 8
    2fb8:	92 07       	cpc	r25, r18
    2fba:	41 f4       	brne	.+16     	; 0x2fcc <tc_enable+0x2a>
    2fbc:	62 e0       	ldi	r22, 0x02	; 2
    2fbe:	83 e0       	ldi	r24, 0x03	; 3
    2fc0:	90 e0       	ldi	r25, 0x00	; 0
    2fc2:	af d9       	rcall	.-3234   	; 0x2322 <sysclk_enable_module>
    2fc4:	64 e0       	ldi	r22, 0x04	; 4
    2fc6:	83 e0       	ldi	r24, 0x03	; 3
    2fc8:	90 e0       	ldi	r25, 0x00	; 0
    2fca:	1c c0       	rjmp	.+56     	; 0x3004 <__stack+0x5>
    2fcc:	81 15       	cp	r24, r1
    2fce:	29 e0       	ldi	r18, 0x09	; 9
    2fd0:	92 07       	cpc	r25, r18
    2fd2:	11 f4       	brne	.+4      	; 0x2fd8 <tc_enable+0x36>
    2fd4:	61 e0       	ldi	r22, 0x01	; 1
    2fd6:	05 c0       	rjmp	.+10     	; 0x2fe2 <tc_enable+0x40>
    2fd8:	80 34       	cpi	r24, 0x40	; 64
    2fda:	29 e0       	ldi	r18, 0x09	; 9
    2fdc:	92 07       	cpc	r25, r18
    2fde:	41 f4       	brne	.+16     	; 0x2ff0 <tc_enable+0x4e>
    2fe0:	62 e0       	ldi	r22, 0x02	; 2
    2fe2:	84 e0       	ldi	r24, 0x04	; 4
    2fe4:	90 e0       	ldi	r25, 0x00	; 0
    2fe6:	9d d9       	rcall	.-3270   	; 0x2322 <sysclk_enable_module>
    2fe8:	64 e0       	ldi	r22, 0x04	; 4
    2fea:	84 e0       	ldi	r24, 0x04	; 4
    2fec:	90 e0       	ldi	r25, 0x00	; 0
    2fee:	0a c0       	rjmp	.+20     	; 0x3004 <__stack+0x5>
    2ff0:	81 15       	cp	r24, r1
    2ff2:	9a 40       	sbci	r25, 0x0A	; 10
    2ff4:	81 f4       	brne	.+32     	; 0x3016 <__stack+0x17>
    2ff6:	61 e0       	ldi	r22, 0x01	; 1
    2ff8:	85 e0       	ldi	r24, 0x05	; 5
    2ffa:	90 e0       	ldi	r25, 0x00	; 0
    2ffc:	92 d9       	rcall	.-3292   	; 0x2322 <sysclk_enable_module>
    2ffe:	64 e0       	ldi	r22, 0x04	; 4
    3000:	85 e0       	ldi	r24, 0x05	; 5
    3002:	90 e0       	ldi	r25, 0x00	; 0
    3004:	8e d9       	rcall	.-3300   	; 0x2322 <sysclk_enable_module>
    3006:	9f b7       	in	r25, 0x3f	; 63
    3008:	f8 94       	cli
    300a:	80 91 86 2d 	lds	r24, 0x2D86
    300e:	8f 5f       	subi	r24, 0xFF	; 255
    3010:	80 93 86 2d 	sts	0x2D86, r24
    3014:	9f bf       	out	0x3f, r25	; 63
    3016:	cf bf       	out	0x3f, r28	; 63
    3018:	cf 91       	pop	r28
    301a:	08 95       	ret

0000301c <tc_set_overflow_interrupt_callback>:
    301c:	81 15       	cp	r24, r1
    301e:	28 e0       	ldi	r18, 0x08	; 8
    3020:	92 07       	cpc	r25, r18
    3022:	29 f4       	brne	.+10     	; 0x302e <tc_set_overflow_interrupt_callback+0x12>
    3024:	60 93 44 28 	sts	0x2844, r22
    3028:	70 93 45 28 	sts	0x2845, r23
    302c:	08 95       	ret
    302e:	80 34       	cpi	r24, 0x40	; 64
    3030:	28 e0       	ldi	r18, 0x08	; 8
    3032:	92 07       	cpc	r25, r18
    3034:	29 f4       	brne	.+10     	; 0x3040 <tc_set_overflow_interrupt_callback+0x24>
    3036:	60 93 50 28 	sts	0x2850, r22
    303a:	70 93 51 28 	sts	0x2851, r23
    303e:	08 95       	ret
    3040:	81 15       	cp	r24, r1
    3042:	29 e0       	ldi	r18, 0x09	; 9
    3044:	92 07       	cpc	r25, r18
    3046:	29 f4       	brne	.+10     	; 0x3052 <tc_set_overflow_interrupt_callback+0x36>
    3048:	60 93 58 28 	sts	0x2858, r22
    304c:	70 93 59 28 	sts	0x2859, r23
    3050:	08 95       	ret
    3052:	80 34       	cpi	r24, 0x40	; 64
    3054:	29 e0       	ldi	r18, 0x09	; 9
    3056:	92 07       	cpc	r25, r18
    3058:	29 f4       	brne	.+10     	; 0x3064 <tc_set_overflow_interrupt_callback+0x48>
    305a:	60 93 64 28 	sts	0x2864, r22
    305e:	70 93 65 28 	sts	0x2865, r23
    3062:	08 95       	ret
    3064:	81 15       	cp	r24, r1
    3066:	9a 40       	sbci	r25, 0x0A	; 10
    3068:	21 f4       	brne	.+8      	; 0x3072 <tc_set_overflow_interrupt_callback+0x56>
    306a:	60 93 6c 28 	sts	0x286C, r22
    306e:	70 93 6d 28 	sts	0x286D, r23
    3072:	08 95       	ret

00003074 <twim_interrupt_handler>:
    3074:	cf 93       	push	r28
    3076:	df 93       	push	r29
    3078:	e0 91 78 28 	lds	r30, 0x2878
    307c:	f0 91 79 28 	lds	r31, 0x2879
    3080:	84 81       	ldd	r24, Z+4	; 0x04
    3082:	83 ff       	sbrs	r24, 3
    3084:	07 c0       	rjmp	.+14     	; 0x3094 <twim_interrupt_handler+0x20>
    3086:	88 60       	ori	r24, 0x08	; 8
    3088:	84 83       	std	Z+4, r24	; 0x04
    308a:	83 e0       	ldi	r24, 0x03	; 3
    308c:	83 83       	std	Z+3, r24	; 0x03
    308e:	86 ef       	ldi	r24, 0xF6	; 246
    3090:	9f ef       	ldi	r25, 0xFF	; 255
    3092:	7d c0       	rjmp	.+250    	; 0x318e <twim_interrupt_handler+0x11a>
    3094:	98 2f       	mov	r25, r24
    3096:	94 71       	andi	r25, 0x14	; 20
    3098:	29 f0       	breq	.+10     	; 0x30a4 <twim_interrupt_handler+0x30>
    309a:	83 e0       	ldi	r24, 0x03	; 3
    309c:	83 83       	std	Z+3, r24	; 0x03
    309e:	8f ef       	ldi	r24, 0xFF	; 255
    30a0:	9f ef       	ldi	r25, 0xFF	; 255
    30a2:	75 c0       	rjmp	.+234    	; 0x318e <twim_interrupt_handler+0x11a>
    30a4:	86 ff       	sbrs	r24, 6
    30a6:	3d c0       	rjmp	.+122    	; 0x3122 <twim_interrupt_handler+0xae>
    30a8:	a0 91 7a 28 	lds	r26, 0x287A
    30ac:	b0 91 7b 28 	lds	r27, 0x287B
    30b0:	80 91 7c 28 	lds	r24, 0x287C
    30b4:	90 91 7d 28 	lds	r25, 0x287D
    30b8:	14 96       	adiw	r26, 0x04	; 4
    30ba:	2d 91       	ld	r18, X+
    30bc:	3c 91       	ld	r19, X
    30be:	15 97       	sbiw	r26, 0x05	; 5
    30c0:	82 17       	cp	r24, r18
    30c2:	93 07       	cpc	r25, r19
    30c4:	5c f4       	brge	.+22     	; 0x30dc <twim_interrupt_handler+0x68>
    30c6:	a8 0f       	add	r26, r24
    30c8:	b9 1f       	adc	r27, r25
    30ca:	11 96       	adiw	r26, 0x01	; 1
    30cc:	2c 91       	ld	r18, X
    30ce:	27 83       	std	Z+7, r18	; 0x07
    30d0:	01 96       	adiw	r24, 0x01	; 1
    30d2:	80 93 7c 28 	sts	0x287C, r24
    30d6:	90 93 7d 28 	sts	0x287D, r25
    30da:	5d c0       	rjmp	.+186    	; 0x3196 <twim_interrupt_handler+0x122>
    30dc:	80 91 7e 28 	lds	r24, 0x287E
    30e0:	90 91 7f 28 	lds	r25, 0x287F
    30e4:	18 96       	adiw	r26, 0x08	; 8
    30e6:	2d 91       	ld	r18, X+
    30e8:	3c 91       	ld	r19, X
    30ea:	19 97       	sbiw	r26, 0x09	; 9
    30ec:	82 17       	cp	r24, r18
    30ee:	93 07       	cpc	r25, r19
    30f0:	b0 f4       	brcc	.+44     	; 0x311e <twim_interrupt_handler+0xaa>
    30f2:	20 91 80 28 	lds	r18, 0x2880
    30f6:	22 23       	and	r18, r18
    30f8:	21 f0       	breq	.+8      	; 0x3102 <twim_interrupt_handler+0x8e>
    30fa:	86 81       	ldd	r24, Z+6	; 0x06
    30fc:	81 60       	ori	r24, 0x01	; 1
    30fe:	86 83       	std	Z+6, r24	; 0x06
    3100:	4a c0       	rjmp	.+148    	; 0x3196 <twim_interrupt_handler+0x122>
    3102:	16 96       	adiw	r26, 0x06	; 6
    3104:	0d 90       	ld	r0, X+
    3106:	bc 91       	ld	r27, X
    3108:	a0 2d       	mov	r26, r0
    310a:	a8 0f       	add	r26, r24
    310c:	b9 1f       	adc	r27, r25
    310e:	2c 91       	ld	r18, X
    3110:	27 83       	std	Z+7, r18	; 0x07
    3112:	01 96       	adiw	r24, 0x01	; 1
    3114:	80 93 7e 28 	sts	0x287E, r24
    3118:	90 93 7f 28 	sts	0x287F, r25
    311c:	3c c0       	rjmp	.+120    	; 0x3196 <twim_interrupt_handler+0x122>
    311e:	83 e0       	ldi	r24, 0x03	; 3
    3120:	29 c0       	rjmp	.+82     	; 0x3174 <twim_interrupt_handler+0x100>
    3122:	87 ff       	sbrs	r24, 7
    3124:	32 c0       	rjmp	.+100    	; 0x318a <twim_interrupt_handler+0x116>
    3126:	a0 91 7a 28 	lds	r26, 0x287A
    312a:	b0 91 7b 28 	lds	r27, 0x287B
    312e:	80 91 7e 28 	lds	r24, 0x287E
    3132:	90 91 7f 28 	lds	r25, 0x287F
    3136:	18 96       	adiw	r26, 0x08	; 8
    3138:	2d 91       	ld	r18, X+
    313a:	3c 91       	ld	r19, X
    313c:	19 97       	sbiw	r26, 0x09	; 9
    313e:	82 17       	cp	r24, r18
    3140:	93 07       	cpc	r25, r19
    3142:	f0 f4       	brcc	.+60     	; 0x3180 <twim_interrupt_handler+0x10c>
    3144:	27 81       	ldd	r18, Z+7	; 0x07
    3146:	16 96       	adiw	r26, 0x06	; 6
    3148:	cd 91       	ld	r28, X+
    314a:	dc 91       	ld	r29, X
    314c:	17 97       	sbiw	r26, 0x07	; 7
    314e:	c8 0f       	add	r28, r24
    3150:	d9 1f       	adc	r29, r25
    3152:	28 83       	st	Y, r18
    3154:	01 96       	adiw	r24, 0x01	; 1
    3156:	80 93 7e 28 	sts	0x287E, r24
    315a:	90 93 7f 28 	sts	0x287F, r25
    315e:	18 96       	adiw	r26, 0x08	; 8
    3160:	2d 91       	ld	r18, X+
    3162:	3c 91       	ld	r19, X
    3164:	19 97       	sbiw	r26, 0x09	; 9
    3166:	82 17       	cp	r24, r18
    3168:	93 07       	cpc	r25, r19
    316a:	18 f4       	brcc	.+6      	; 0x3172 <twim_interrupt_handler+0xfe>
    316c:	82 e0       	ldi	r24, 0x02	; 2
    316e:	83 83       	std	Z+3, r24	; 0x03
    3170:	12 c0       	rjmp	.+36     	; 0x3196 <twim_interrupt_handler+0x122>
    3172:	87 e0       	ldi	r24, 0x07	; 7
    3174:	83 83       	std	Z+3, r24	; 0x03
    3176:	10 92 82 28 	sts	0x2882, r1
    317a:	10 92 83 28 	sts	0x2883, r1
    317e:	0b c0       	rjmp	.+22     	; 0x3196 <twim_interrupt_handler+0x122>
    3180:	83 e0       	ldi	r24, 0x03	; 3
    3182:	83 83       	std	Z+3, r24	; 0x03
    3184:	89 ef       	ldi	r24, 0xF9	; 249
    3186:	9f ef       	ldi	r25, 0xFF	; 255
    3188:	02 c0       	rjmp	.+4      	; 0x318e <twim_interrupt_handler+0x11a>
    318a:	8b ef       	ldi	r24, 0xFB	; 251
    318c:	9f ef       	ldi	r25, 0xFF	; 255
    318e:	80 93 82 28 	sts	0x2882, r24
    3192:	90 93 83 28 	sts	0x2883, r25
    3196:	df 91       	pop	r29
    3198:	cf 91       	pop	r28
    319a:	08 95       	ret

0000319c <__vector_13>:
    319c:	1f 92       	push	r1
    319e:	0f 92       	push	r0
    31a0:	0f b6       	in	r0, 0x3f	; 63
    31a2:	0f 92       	push	r0
    31a4:	11 24       	eor	r1, r1
    31a6:	2f 93       	push	r18
    31a8:	3f 93       	push	r19
    31aa:	4f 93       	push	r20
    31ac:	5f 93       	push	r21
    31ae:	6f 93       	push	r22
    31b0:	7f 93       	push	r23
    31b2:	8f 93       	push	r24
    31b4:	9f 93       	push	r25
    31b6:	af 93       	push	r26
    31b8:	bf 93       	push	r27
    31ba:	ef 93       	push	r30
    31bc:	ff 93       	push	r31
    31be:	5a df       	rcall	.-332    	; 0x3074 <twim_interrupt_handler>
    31c0:	ff 91       	pop	r31
    31c2:	ef 91       	pop	r30
    31c4:	bf 91       	pop	r27
    31c6:	af 91       	pop	r26
    31c8:	9f 91       	pop	r25
    31ca:	8f 91       	pop	r24
    31cc:	7f 91       	pop	r23
    31ce:	6f 91       	pop	r22
    31d0:	5f 91       	pop	r21
    31d2:	4f 91       	pop	r20
    31d4:	3f 91       	pop	r19
    31d6:	2f 91       	pop	r18
    31d8:	0f 90       	pop	r0
    31da:	0f be       	out	0x3f, r0	; 63
    31dc:	0f 90       	pop	r0
    31de:	1f 90       	pop	r1
    31e0:	18 95       	reti

000031e2 <__vector_46>:
    31e2:	1f 92       	push	r1
    31e4:	0f 92       	push	r0
    31e6:	0f b6       	in	r0, 0x3f	; 63
    31e8:	0f 92       	push	r0
    31ea:	11 24       	eor	r1, r1
    31ec:	2f 93       	push	r18
    31ee:	3f 93       	push	r19
    31f0:	4f 93       	push	r20
    31f2:	5f 93       	push	r21
    31f4:	6f 93       	push	r22
    31f6:	7f 93       	push	r23
    31f8:	8f 93       	push	r24
    31fa:	9f 93       	push	r25
    31fc:	af 93       	push	r26
    31fe:	bf 93       	push	r27
    3200:	ef 93       	push	r30
    3202:	ff 93       	push	r31
    3204:	37 df       	rcall	.-402    	; 0x3074 <twim_interrupt_handler>
    3206:	ff 91       	pop	r31
    3208:	ef 91       	pop	r30
    320a:	bf 91       	pop	r27
    320c:	af 91       	pop	r26
    320e:	9f 91       	pop	r25
    3210:	8f 91       	pop	r24
    3212:	7f 91       	pop	r23
    3214:	6f 91       	pop	r22
    3216:	5f 91       	pop	r21
    3218:	4f 91       	pop	r20
    321a:	3f 91       	pop	r19
    321c:	2f 91       	pop	r18
    321e:	0f 90       	pop	r0
    3220:	0f be       	out	0x3f, r0	; 63
    3222:	0f 90       	pop	r0
    3224:	1f 90       	pop	r1
    3226:	18 95       	reti

00003228 <twi_master_init>:
    3228:	fc 01       	movw	r30, r24
    322a:	db 01       	movw	r26, r22
    322c:	14 96       	adiw	r26, 0x04	; 4
    322e:	8c 91       	ld	r24, X
    3230:	85 83       	std	Z+5, r24	; 0x05
    3232:	88 eb       	ldi	r24, 0xB8	; 184
    3234:	81 83       	std	Z+1, r24	; 0x01
    3236:	81 e0       	ldi	r24, 0x01	; 1
    3238:	84 83       	std	Z+4, r24	; 0x04
    323a:	10 92 81 28 	sts	0x2881, r1
    323e:	10 92 82 28 	sts	0x2882, r1
    3242:	10 92 83 28 	sts	0x2883, r1
    3246:	e0 ea       	ldi	r30, 0xA0	; 160
    3248:	f0 e0       	ldi	r31, 0x00	; 0
    324a:	82 81       	ldd	r24, Z+2	; 0x02
    324c:	82 60       	ori	r24, 0x02	; 2
    324e:	82 83       	std	Z+2, r24	; 0x02
    3250:	78 94       	sei
    3252:	80 e0       	ldi	r24, 0x00	; 0
    3254:	90 e0       	ldi	r25, 0x00	; 0
    3256:	08 95       	ret

00003258 <twi_master_transfer>:
    3258:	fb 01       	movw	r30, r22
    325a:	00 97       	sbiw	r24, 0x00	; 0
    325c:	09 f4       	brne	.+2      	; 0x3260 <twi_master_transfer+0x8>
    325e:	4c c0       	rjmp	.+152    	; 0x32f8 <twi_master_transfer+0xa0>
    3260:	30 97       	sbiw	r30, 0x00	; 0
    3262:	09 f4       	brne	.+2      	; 0x3266 <twi_master_transfer+0xe>
    3264:	49 c0       	rjmp	.+146    	; 0x32f8 <twi_master_transfer+0xa0>
    3266:	32 85       	ldd	r19, Z+10	; 0x0a
    3268:	20 91 81 28 	lds	r18, 0x2881
    326c:	02 c0       	rjmp	.+4      	; 0x3272 <twi_master_transfer+0x1a>
    326e:	31 11       	cpse	r19, r1
    3270:	46 c0       	rjmp	.+140    	; 0x32fe <twi_master_transfer+0xa6>
    3272:	21 11       	cpse	r18, r1
    3274:	fc cf       	rjmp	.-8      	; 0x326e <twi_master_transfer+0x16>
    3276:	5f b7       	in	r21, 0x3f	; 63
    3278:	f8 94       	cli
    327a:	21 e0       	ldi	r18, 0x01	; 1
    327c:	20 93 81 28 	sts	0x2881, r18
    3280:	20 e8       	ldi	r18, 0x80	; 128
    3282:	3f ef       	ldi	r19, 0xFF	; 255
    3284:	20 93 82 28 	sts	0x2882, r18
    3288:	30 93 83 28 	sts	0x2883, r19
    328c:	5f bf       	out	0x3f, r21	; 63
    328e:	80 93 78 28 	sts	0x2878, r24
    3292:	90 93 79 28 	sts	0x2879, r25
    3296:	e0 93 7a 28 	sts	0x287A, r30
    329a:	f0 93 7b 28 	sts	0x287B, r31
    329e:	10 92 7c 28 	sts	0x287C, r1
    32a2:	10 92 7d 28 	sts	0x287D, r1
    32a6:	10 92 7e 28 	sts	0x287E, r1
    32aa:	10 92 7f 28 	sts	0x287F, r1
    32ae:	40 93 80 28 	sts	0x2880, r20
    32b2:	50 81       	ld	r21, Z
    32b4:	55 0f       	add	r21, r21
    32b6:	24 81       	ldd	r18, Z+4	; 0x04
    32b8:	35 81       	ldd	r19, Z+5	; 0x05
    32ba:	23 2b       	or	r18, r19
    32bc:	21 f4       	brne	.+8      	; 0x32c6 <twi_master_transfer+0x6e>
    32be:	41 11       	cpse	r20, r1
    32c0:	01 c0       	rjmp	.+2      	; 0x32c4 <twi_master_transfer+0x6c>
    32c2:	01 c0       	rjmp	.+2      	; 0x32c6 <twi_master_transfer+0x6e>
    32c4:	51 60       	ori	r21, 0x01	; 1
    32c6:	fc 01       	movw	r30, r24
    32c8:	56 83       	std	Z+6, r21	; 0x06
    32ca:	80 91 82 28 	lds	r24, 0x2882
    32ce:	90 91 83 28 	lds	r25, 0x2883
    32d2:	80 38       	cpi	r24, 0x80	; 128
    32d4:	9f 4f       	sbci	r25, 0xFF	; 255
    32d6:	c9 f3       	breq	.-14     	; 0x32ca <twi_master_transfer+0x72>
    32d8:	00 c0       	rjmp	.+0      	; 0x32da <twi_master_transfer+0x82>
    32da:	e0 91 78 28 	lds	r30, 0x2878
    32de:	f0 91 79 28 	lds	r31, 0x2879
    32e2:	84 81       	ldd	r24, Z+4	; 0x04
    32e4:	83 70       	andi	r24, 0x03	; 3
    32e6:	81 30       	cpi	r24, 0x01	; 1
    32e8:	c1 f7       	brne	.-16     	; 0x32da <twi_master_transfer+0x82>
    32ea:	20 91 82 28 	lds	r18, 0x2882
    32ee:	30 91 83 28 	lds	r19, 0x2883
    32f2:	10 92 81 28 	sts	0x2881, r1
    32f6:	05 c0       	rjmp	.+10     	; 0x3302 <twi_master_transfer+0xaa>
    32f8:	28 ef       	ldi	r18, 0xF8	; 248
    32fa:	3f ef       	ldi	r19, 0xFF	; 255
    32fc:	02 c0       	rjmp	.+4      	; 0x3302 <twi_master_transfer+0xaa>
    32fe:	26 ef       	ldi	r18, 0xF6	; 246
    3300:	3f ef       	ldi	r19, 0xFF	; 255
    3302:	c9 01       	movw	r24, r18
    3304:	08 95       	ret

00003306 <usart_set_baudrate>:
    3306:	8f 92       	push	r8
    3308:	9f 92       	push	r9
    330a:	af 92       	push	r10
    330c:	bf 92       	push	r11
    330e:	cf 92       	push	r12
    3310:	df 92       	push	r13
    3312:	ef 92       	push	r14
    3314:	ff 92       	push	r15
    3316:	0f 93       	push	r16
    3318:	1f 93       	push	r17
    331a:	cf 93       	push	r28
    331c:	df 93       	push	r29
    331e:	ec 01       	movw	r28, r24
    3320:	6a 01       	movw	r12, r20
    3322:	7b 01       	movw	r14, r22
    3324:	48 01       	movw	r8, r16
    3326:	59 01       	movw	r10, r18
    3328:	b9 01       	movw	r22, r18
    332a:	a8 01       	movw	r20, r16
    332c:	a3 e0       	ldi	r26, 0x03	; 3
    332e:	76 95       	lsr	r23
    3330:	67 95       	ror	r22
    3332:	57 95       	ror	r21
    3334:	47 95       	ror	r20
    3336:	aa 95       	dec	r26
    3338:	d1 f7       	brne	.-12     	; 0x332e <usart_set_baudrate+0x28>
    333a:	d9 01       	movw	r26, r18
    333c:	c8 01       	movw	r24, r16
    333e:	16 e1       	ldi	r17, 0x16	; 22
    3340:	b6 95       	lsr	r27
    3342:	a7 95       	ror	r26
    3344:	97 95       	ror	r25
    3346:	87 95       	ror	r24
    3348:	1a 95       	dec	r17
    334a:	d1 f7       	brne	.-12     	; 0x3340 <usart_set_baudrate+0x3a>
    334c:	2c 81       	ldd	r18, Y+4	; 0x04
    334e:	22 fd       	sbrc	r18, 2
    3350:	08 c0       	rjmp	.+16     	; 0x3362 <usart_set_baudrate+0x5c>
    3352:	76 95       	lsr	r23
    3354:	67 95       	ror	r22
    3356:	57 95       	ror	r21
    3358:	47 95       	ror	r20
    335a:	b6 95       	lsr	r27
    335c:	a7 95       	ror	r26
    335e:	97 95       	ror	r25
    3360:	87 95       	ror	r24
    3362:	4c 15       	cp	r20, r12
    3364:	5d 05       	cpc	r21, r13
    3366:	6e 05       	cpc	r22, r14
    3368:	7f 05       	cpc	r23, r15
    336a:	08 f4       	brcc	.+2      	; 0x336e <usart_set_baudrate+0x68>
    336c:	9e c0       	rjmp	.+316    	; 0x34aa <usart_set_baudrate+0x1a4>
    336e:	c8 16       	cp	r12, r24
    3370:	d9 06       	cpc	r13, r25
    3372:	ea 06       	cpc	r14, r26
    3374:	fb 06       	cpc	r15, r27
    3376:	08 f4       	brcc	.+2      	; 0x337a <usart_set_baudrate+0x74>
    3378:	98 c0       	rjmp	.+304    	; 0x34aa <usart_set_baudrate+0x1a4>
    337a:	8c 81       	ldd	r24, Y+4	; 0x04
    337c:	82 fd       	sbrc	r24, 2
    337e:	04 c0       	rjmp	.+8      	; 0x3388 <usart_set_baudrate+0x82>
    3380:	cc 0c       	add	r12, r12
    3382:	dd 1c       	adc	r13, r13
    3384:	ee 1c       	adc	r14, r14
    3386:	ff 1c       	adc	r15, r15
    3388:	c5 01       	movw	r24, r10
    338a:	b4 01       	movw	r22, r8
    338c:	a7 01       	movw	r20, r14
    338e:	96 01       	movw	r18, r12
    3390:	0e 94 d3 30 	call	0x61a6	; 0x61a6 <__udivmodsi4>
    3394:	8f ef       	ldi	r24, 0xFF	; 255
    3396:	90 e0       	ldi	r25, 0x00	; 0
    3398:	a0 e0       	ldi	r26, 0x00	; 0
    339a:	b0 e0       	ldi	r27, 0x00	; 0
    339c:	19 ef       	ldi	r17, 0xF9	; 249
    339e:	28 17       	cp	r18, r24
    33a0:	39 07       	cpc	r19, r25
    33a2:	4a 07       	cpc	r20, r26
    33a4:	5b 07       	cpc	r21, r27
    33a6:	58 f0       	brcs	.+22     	; 0x33be <usart_set_baudrate+0xb8>
    33a8:	88 0f       	add	r24, r24
    33aa:	99 1f       	adc	r25, r25
    33ac:	aa 1f       	adc	r26, r26
    33ae:	bb 1f       	adc	r27, r27
    33b0:	1d 3f       	cpi	r17, 0xFD	; 253
    33b2:	0c f4       	brge	.+2      	; 0x33b6 <usart_set_baudrate+0xb0>
    33b4:	81 60       	ori	r24, 0x01	; 1
    33b6:	1f 5f       	subi	r17, 0xFF	; 255
    33b8:	17 30       	cpi	r17, 0x07	; 7
    33ba:	89 f7       	brne	.-30     	; 0x339e <usart_set_baudrate+0x98>
    33bc:	4c c0       	rjmp	.+152    	; 0x3456 <usart_set_baudrate+0x150>
    33be:	17 ff       	sbrs	r17, 7
    33c0:	4a c0       	rjmp	.+148    	; 0x3456 <usart_set_baudrate+0x150>
    33c2:	d7 01       	movw	r26, r14
    33c4:	c6 01       	movw	r24, r12
    33c6:	03 e0       	ldi	r16, 0x03	; 3
    33c8:	88 0f       	add	r24, r24
    33ca:	99 1f       	adc	r25, r25
    33cc:	aa 1f       	adc	r26, r26
    33ce:	bb 1f       	adc	r27, r27
    33d0:	0a 95       	dec	r16
    33d2:	d1 f7       	brne	.-12     	; 0x33c8 <usart_set_baudrate+0xc2>
    33d4:	88 1a       	sub	r8, r24
    33d6:	99 0a       	sbc	r9, r25
    33d8:	aa 0a       	sbc	r10, r26
    33da:	bb 0a       	sbc	r11, r27
    33dc:	81 2f       	mov	r24, r17
    33de:	99 27       	eor	r25, r25
    33e0:	87 fd       	sbrc	r24, 7
    33e2:	90 95       	com	r25
    33e4:	1e 3f       	cpi	r17, 0xFE	; 254
    33e6:	e4 f4       	brge	.+56     	; 0x3420 <usart_set_baudrate+0x11a>
    33e8:	6d ef       	ldi	r22, 0xFD	; 253
    33ea:	7f ef       	ldi	r23, 0xFF	; 255
    33ec:	68 1b       	sub	r22, r24
    33ee:	79 0b       	sbc	r23, r25
    33f0:	a5 01       	movw	r20, r10
    33f2:	94 01       	movw	r18, r8
    33f4:	04 c0       	rjmp	.+8      	; 0x33fe <usart_set_baudrate+0xf8>
    33f6:	22 0f       	add	r18, r18
    33f8:	33 1f       	adc	r19, r19
    33fa:	44 1f       	adc	r20, r20
    33fc:	55 1f       	adc	r21, r21
    33fe:	6a 95       	dec	r22
    3400:	d2 f7       	brpl	.-12     	; 0x33f6 <usart_set_baudrate+0xf0>
    3402:	ca 01       	movw	r24, r20
    3404:	b9 01       	movw	r22, r18
    3406:	46 01       	movw	r8, r12
    3408:	57 01       	movw	r10, r14
    340a:	b6 94       	lsr	r11
    340c:	a7 94       	ror	r10
    340e:	97 94       	ror	r9
    3410:	87 94       	ror	r8
    3412:	68 0d       	add	r22, r8
    3414:	79 1d       	adc	r23, r9
    3416:	8a 1d       	adc	r24, r10
    3418:	9b 1d       	adc	r25, r11
    341a:	a7 01       	movw	r20, r14
    341c:	96 01       	movw	r18, r12
    341e:	18 c0       	rjmp	.+48     	; 0x3450 <usart_set_baudrate+0x14a>
    3420:	9c 01       	movw	r18, r24
    3422:	2d 5f       	subi	r18, 0xFD	; 253
    3424:	3f 4f       	sbci	r19, 0xFF	; 255
    3426:	d7 01       	movw	r26, r14
    3428:	c6 01       	movw	r24, r12
    342a:	04 c0       	rjmp	.+8      	; 0x3434 <usart_set_baudrate+0x12e>
    342c:	88 0f       	add	r24, r24
    342e:	99 1f       	adc	r25, r25
    3430:	aa 1f       	adc	r26, r26
    3432:	bb 1f       	adc	r27, r27
    3434:	2a 95       	dec	r18
    3436:	d2 f7       	brpl	.-12     	; 0x342c <usart_set_baudrate+0x126>
    3438:	9c 01       	movw	r18, r24
    343a:	ad 01       	movw	r20, r26
    343c:	bc 01       	movw	r22, r24
    343e:	cd 01       	movw	r24, r26
    3440:	96 95       	lsr	r25
    3442:	87 95       	ror	r24
    3444:	77 95       	ror	r23
    3446:	67 95       	ror	r22
    3448:	68 0d       	add	r22, r8
    344a:	79 1d       	adc	r23, r9
    344c:	8a 1d       	adc	r24, r10
    344e:	9b 1d       	adc	r25, r11
    3450:	0e 94 d3 30 	call	0x61a6	; 0x61a6 <__udivmodsi4>
    3454:	21 c0       	rjmp	.+66     	; 0x3498 <usart_set_baudrate+0x192>
    3456:	21 2f       	mov	r18, r17
    3458:	33 27       	eor	r19, r19
    345a:	27 fd       	sbrc	r18, 7
    345c:	30 95       	com	r19
    345e:	2d 5f       	subi	r18, 0xFD	; 253
    3460:	3f 4f       	sbci	r19, 0xFF	; 255
    3462:	d7 01       	movw	r26, r14
    3464:	c6 01       	movw	r24, r12
    3466:	04 c0       	rjmp	.+8      	; 0x3470 <usart_set_baudrate+0x16a>
    3468:	88 0f       	add	r24, r24
    346a:	99 1f       	adc	r25, r25
    346c:	aa 1f       	adc	r26, r26
    346e:	bb 1f       	adc	r27, r27
    3470:	2a 95       	dec	r18
    3472:	d2 f7       	brpl	.-12     	; 0x3468 <usart_set_baudrate+0x162>
    3474:	9c 01       	movw	r18, r24
    3476:	ad 01       	movw	r20, r26
    3478:	bc 01       	movw	r22, r24
    347a:	cd 01       	movw	r24, r26
    347c:	96 95       	lsr	r25
    347e:	87 95       	ror	r24
    3480:	77 95       	ror	r23
    3482:	67 95       	ror	r22
    3484:	68 0d       	add	r22, r8
    3486:	79 1d       	adc	r23, r9
    3488:	8a 1d       	adc	r24, r10
    348a:	9b 1d       	adc	r25, r11
    348c:	0e 94 d3 30 	call	0x61a6	; 0x61a6 <__udivmodsi4>
    3490:	21 50       	subi	r18, 0x01	; 1
    3492:	31 09       	sbc	r19, r1
    3494:	41 09       	sbc	r20, r1
    3496:	51 09       	sbc	r21, r1
    3498:	83 2f       	mov	r24, r19
    349a:	8f 70       	andi	r24, 0x0F	; 15
    349c:	12 95       	swap	r17
    349e:	10 7f       	andi	r17, 0xF0	; 240
    34a0:	81 2b       	or	r24, r17
    34a2:	8f 83       	std	Y+7, r24	; 0x07
    34a4:	2e 83       	std	Y+6, r18	; 0x06
    34a6:	81 e0       	ldi	r24, 0x01	; 1
    34a8:	01 c0       	rjmp	.+2      	; 0x34ac <usart_set_baudrate+0x1a6>
    34aa:	80 e0       	ldi	r24, 0x00	; 0
    34ac:	df 91       	pop	r29
    34ae:	cf 91       	pop	r28
    34b0:	1f 91       	pop	r17
    34b2:	0f 91       	pop	r16
    34b4:	ff 90       	pop	r15
    34b6:	ef 90       	pop	r14
    34b8:	df 90       	pop	r13
    34ba:	cf 90       	pop	r12
    34bc:	bf 90       	pop	r11
    34be:	af 90       	pop	r10
    34c0:	9f 90       	pop	r9
    34c2:	8f 90       	pop	r8
    34c4:	08 95       	ret

000034c6 <usart_init_rs232>:
    34c6:	0f 93       	push	r16
    34c8:	1f 93       	push	r17
    34ca:	cf 93       	push	r28
    34cc:	df 93       	push	r29
    34ce:	ec 01       	movw	r28, r24
    34d0:	8b 01       	movw	r16, r22
    34d2:	00 97       	sbiw	r24, 0x00	; 0
    34d4:	09 f4       	brne	.+2      	; 0x34d8 <usart_init_rs232+0x12>
    34d6:	9c c0       	rjmp	.+312    	; 0x3610 <usart_init_rs232+0x14a>
    34d8:	80 3c       	cpi	r24, 0xC0	; 192
    34da:	91 05       	cpc	r25, r1
    34dc:	11 f4       	brne	.+4      	; 0x34e2 <usart_init_rs232+0x1c>
    34de:	60 e1       	ldi	r22, 0x10	; 16
    34e0:	05 c0       	rjmp	.+10     	; 0x34ec <usart_init_rs232+0x26>
    34e2:	c1 15       	cp	r28, r1
    34e4:	84 e0       	ldi	r24, 0x04	; 4
    34e6:	d8 07       	cpc	r29, r24
    34e8:	21 f4       	brne	.+8      	; 0x34f2 <usart_init_rs232+0x2c>
    34ea:	64 e0       	ldi	r22, 0x04	; 4
    34ec:	80 e0       	ldi	r24, 0x00	; 0
    34ee:	90 e0       	ldi	r25, 0x00	; 0
    34f0:	8d c0       	rjmp	.+282    	; 0x360c <usart_init_rs232+0x146>
    34f2:	c0 38       	cpi	r28, 0x80	; 128
    34f4:	e1 e0       	ldi	r30, 0x01	; 1
    34f6:	de 07       	cpc	r29, r30
    34f8:	11 f4       	brne	.+4      	; 0x34fe <usart_init_rs232+0x38>
    34fa:	62 e0       	ldi	r22, 0x02	; 2
    34fc:	f7 cf       	rjmp	.-18     	; 0x34ec <usart_init_rs232+0x26>
    34fe:	c1 15       	cp	r28, r1
    3500:	f1 e0       	ldi	r31, 0x01	; 1
    3502:	df 07       	cpc	r29, r31
    3504:	11 f4       	brne	.+4      	; 0x350a <usart_init_rs232+0x44>
    3506:	61 e0       	ldi	r22, 0x01	; 1
    3508:	f1 cf       	rjmp	.-30     	; 0x34ec <usart_init_rs232+0x26>
    350a:	c0 38       	cpi	r28, 0x80	; 128
    350c:	83 e0       	ldi	r24, 0x03	; 3
    350e:	d8 07       	cpc	r29, r24
    3510:	11 f4       	brne	.+4      	; 0x3516 <usart_init_rs232+0x50>
    3512:	61 e0       	ldi	r22, 0x01	; 1
    3514:	05 c0       	rjmp	.+10     	; 0x3520 <usart_init_rs232+0x5a>
    3516:	c1 15       	cp	r28, r1
    3518:	e2 e0       	ldi	r30, 0x02	; 2
    351a:	de 07       	cpc	r29, r30
    351c:	21 f4       	brne	.+8      	; 0x3526 <usart_init_rs232+0x60>
    351e:	62 e0       	ldi	r22, 0x02	; 2
    3520:	81 e0       	ldi	r24, 0x01	; 1
    3522:	90 e0       	ldi	r25, 0x00	; 0
    3524:	73 c0       	rjmp	.+230    	; 0x360c <usart_init_rs232+0x146>
    3526:	c0 32       	cpi	r28, 0x20	; 32
    3528:	f3 e0       	ldi	r31, 0x03	; 3
    352a:	df 07       	cpc	r29, r31
    352c:	21 f4       	brne	.+8      	; 0x3536 <usart_init_rs232+0x70>
    352e:	64 e0       	ldi	r22, 0x04	; 4
    3530:	82 e0       	ldi	r24, 0x02	; 2
    3532:	90 e0       	ldi	r25, 0x00	; 0
    3534:	6b c0       	rjmp	.+214    	; 0x360c <usart_init_rs232+0x146>
    3536:	c1 15       	cp	r28, r1
    3538:	88 e0       	ldi	r24, 0x08	; 8
    353a:	d8 07       	cpc	r29, r24
    353c:	11 f4       	brne	.+4      	; 0x3542 <usart_init_rs232+0x7c>
    353e:	61 e0       	ldi	r22, 0x01	; 1
    3540:	5b c0       	rjmp	.+182    	; 0x35f8 <usart_init_rs232+0x132>
    3542:	c1 15       	cp	r28, r1
    3544:	e9 e0       	ldi	r30, 0x09	; 9
    3546:	de 07       	cpc	r29, r30
    3548:	11 f4       	brne	.+4      	; 0x354e <usart_init_rs232+0x88>
    354a:	61 e0       	ldi	r22, 0x01	; 1
    354c:	4d c0       	rjmp	.+154    	; 0x35e8 <usart_init_rs232+0x122>
    354e:	c1 15       	cp	r28, r1
    3550:	fa e0       	ldi	r31, 0x0A	; 10
    3552:	df 07       	cpc	r29, r31
    3554:	11 f4       	brne	.+4      	; 0x355a <usart_init_rs232+0x94>
    3556:	61 e0       	ldi	r22, 0x01	; 1
    3558:	57 c0       	rjmp	.+174    	; 0x3608 <usart_init_rs232+0x142>
    355a:	c0 34       	cpi	r28, 0x40	; 64
    355c:	88 e0       	ldi	r24, 0x08	; 8
    355e:	d8 07       	cpc	r29, r24
    3560:	11 f4       	brne	.+4      	; 0x3566 <usart_init_rs232+0xa0>
    3562:	62 e0       	ldi	r22, 0x02	; 2
    3564:	49 c0       	rjmp	.+146    	; 0x35f8 <usart_init_rs232+0x132>
    3566:	c0 34       	cpi	r28, 0x40	; 64
    3568:	e9 e0       	ldi	r30, 0x09	; 9
    356a:	de 07       	cpc	r29, r30
    356c:	11 f4       	brne	.+4      	; 0x3572 <usart_init_rs232+0xac>
    356e:	62 e0       	ldi	r22, 0x02	; 2
    3570:	3b c0       	rjmp	.+118    	; 0x35e8 <usart_init_rs232+0x122>
    3572:	c0 39       	cpi	r28, 0x90	; 144
    3574:	f8 e0       	ldi	r31, 0x08	; 8
    3576:	df 07       	cpc	r29, r31
    3578:	11 f4       	brne	.+4      	; 0x357e <usart_init_rs232+0xb8>
    357a:	64 e0       	ldi	r22, 0x04	; 4
    357c:	3d c0       	rjmp	.+122    	; 0x35f8 <usart_init_rs232+0x132>
    357e:	c0 39       	cpi	r28, 0x90	; 144
    3580:	89 e0       	ldi	r24, 0x09	; 9
    3582:	d8 07       	cpc	r29, r24
    3584:	11 f4       	brne	.+4      	; 0x358a <usart_init_rs232+0xc4>
    3586:	64 e0       	ldi	r22, 0x04	; 4
    3588:	2f c0       	rjmp	.+94     	; 0x35e8 <usart_init_rs232+0x122>
    358a:	c0 39       	cpi	r28, 0x90	; 144
    358c:	ea e0       	ldi	r30, 0x0A	; 10
    358e:	de 07       	cpc	r29, r30
    3590:	11 f4       	brne	.+4      	; 0x3596 <usart_init_rs232+0xd0>
    3592:	64 e0       	ldi	r22, 0x04	; 4
    3594:	39 c0       	rjmp	.+114    	; 0x3608 <usart_init_rs232+0x142>
    3596:	c0 3c       	cpi	r28, 0xC0	; 192
    3598:	f8 e0       	ldi	r31, 0x08	; 8
    359a:	df 07       	cpc	r29, r31
    359c:	11 f4       	brne	.+4      	; 0x35a2 <usart_init_rs232+0xdc>
    359e:	68 e0       	ldi	r22, 0x08	; 8
    35a0:	2b c0       	rjmp	.+86     	; 0x35f8 <usart_init_rs232+0x132>
    35a2:	c0 3c       	cpi	r28, 0xC0	; 192
    35a4:	89 e0       	ldi	r24, 0x09	; 9
    35a6:	d8 07       	cpc	r29, r24
    35a8:	11 f4       	brne	.+4      	; 0x35ae <usart_init_rs232+0xe8>
    35aa:	68 e0       	ldi	r22, 0x08	; 8
    35ac:	1d c0       	rjmp	.+58     	; 0x35e8 <usart_init_rs232+0x122>
    35ae:	c0 3a       	cpi	r28, 0xA0	; 160
    35b0:	e8 e0       	ldi	r30, 0x08	; 8
    35b2:	de 07       	cpc	r29, r30
    35b4:	11 f4       	brne	.+4      	; 0x35ba <usart_init_rs232+0xf4>
    35b6:	60 e1       	ldi	r22, 0x10	; 16
    35b8:	1f c0       	rjmp	.+62     	; 0x35f8 <usart_init_rs232+0x132>
    35ba:	c0 3a       	cpi	r28, 0xA0	; 160
    35bc:	f9 e0       	ldi	r31, 0x09	; 9
    35be:	df 07       	cpc	r29, r31
    35c0:	11 f4       	brne	.+4      	; 0x35c6 <usart_init_rs232+0x100>
    35c2:	60 e1       	ldi	r22, 0x10	; 16
    35c4:	11 c0       	rjmp	.+34     	; 0x35e8 <usart_init_rs232+0x122>
    35c6:	c0 3a       	cpi	r28, 0xA0	; 160
    35c8:	8a e0       	ldi	r24, 0x0A	; 10
    35ca:	d8 07       	cpc	r29, r24
    35cc:	11 f4       	brne	.+4      	; 0x35d2 <usart_init_rs232+0x10c>
    35ce:	60 e1       	ldi	r22, 0x10	; 16
    35d0:	1b c0       	rjmp	.+54     	; 0x3608 <usart_init_rs232+0x142>
    35d2:	c0 3b       	cpi	r28, 0xB0	; 176
    35d4:	e8 e0       	ldi	r30, 0x08	; 8
    35d6:	de 07       	cpc	r29, r30
    35d8:	11 f4       	brne	.+4      	; 0x35de <usart_init_rs232+0x118>
    35da:	60 e2       	ldi	r22, 0x20	; 32
    35dc:	0d c0       	rjmp	.+26     	; 0x35f8 <usart_init_rs232+0x132>
    35de:	c0 3b       	cpi	r28, 0xB0	; 176
    35e0:	f9 e0       	ldi	r31, 0x09	; 9
    35e2:	df 07       	cpc	r29, r31
    35e4:	21 f4       	brne	.+8      	; 0x35ee <usart_init_rs232+0x128>
    35e6:	60 e2       	ldi	r22, 0x20	; 32
    35e8:	84 e0       	ldi	r24, 0x04	; 4
    35ea:	90 e0       	ldi	r25, 0x00	; 0
    35ec:	0f c0       	rjmp	.+30     	; 0x360c <usart_init_rs232+0x146>
    35ee:	c0 38       	cpi	r28, 0x80	; 128
    35f0:	84 e0       	ldi	r24, 0x04	; 4
    35f2:	d8 07       	cpc	r29, r24
    35f4:	21 f4       	brne	.+8      	; 0x35fe <usart_init_rs232+0x138>
    35f6:	60 e4       	ldi	r22, 0x40	; 64
    35f8:	83 e0       	ldi	r24, 0x03	; 3
    35fa:	90 e0       	ldi	r25, 0x00	; 0
    35fc:	07 c0       	rjmp	.+14     	; 0x360c <usart_init_rs232+0x146>
    35fe:	c0 3a       	cpi	r28, 0xA0	; 160
    3600:	e4 e0       	ldi	r30, 0x04	; 4
    3602:	de 07       	cpc	r29, r30
    3604:	29 f4       	brne	.+10     	; 0x3610 <usart_init_rs232+0x14a>
    3606:	60 e4       	ldi	r22, 0x40	; 64
    3608:	85 e0       	ldi	r24, 0x05	; 5
    360a:	90 e0       	ldi	r25, 0x00	; 0
    360c:	0e 94 91 11 	call	0x2322	; 0x2322 <sysclk_enable_module>
    3610:	8d 81       	ldd	r24, Y+5	; 0x05
    3612:	8f 73       	andi	r24, 0x3F	; 63
    3614:	8d 83       	std	Y+5, r24	; 0x05
    3616:	f8 01       	movw	r30, r16
    3618:	86 81       	ldd	r24, Z+6	; 0x06
    361a:	94 81       	ldd	r25, Z+4	; 0x04
    361c:	89 2b       	or	r24, r25
    361e:	90 85       	ldd	r25, Z+8	; 0x08
    3620:	99 23       	and	r25, r25
    3622:	11 f0       	breq	.+4      	; 0x3628 <usart_init_rs232+0x162>
    3624:	98 e0       	ldi	r25, 0x08	; 8
    3626:	01 c0       	rjmp	.+2      	; 0x362a <usart_init_rs232+0x164>
    3628:	90 e0       	ldi	r25, 0x00	; 0
    362a:	89 2b       	or	r24, r25
    362c:	8d 83       	std	Y+5, r24	; 0x05
    362e:	f8 01       	movw	r30, r16
    3630:	40 81       	ld	r20, Z
    3632:	51 81       	ldd	r21, Z+1	; 0x01
    3634:	62 81       	ldd	r22, Z+2	; 0x02
    3636:	73 81       	ldd	r23, Z+3	; 0x03
    3638:	00 e0       	ldi	r16, 0x00	; 0
    363a:	18 e4       	ldi	r17, 0x48	; 72
    363c:	28 ee       	ldi	r18, 0xE8	; 232
    363e:	31 e0       	ldi	r19, 0x01	; 1
    3640:	ce 01       	movw	r24, r28
    3642:	61 de       	rcall	.-830    	; 0x3306 <usart_set_baudrate>
    3644:	9c 81       	ldd	r25, Y+4	; 0x04
    3646:	98 60       	ori	r25, 0x08	; 8
    3648:	9c 83       	std	Y+4, r25	; 0x04
    364a:	9c 81       	ldd	r25, Y+4	; 0x04
    364c:	90 61       	ori	r25, 0x10	; 16
    364e:	9c 83       	std	Y+4, r25	; 0x04
    3650:	df 91       	pop	r29
    3652:	cf 91       	pop	r28
    3654:	1f 91       	pop	r17
    3656:	0f 91       	pop	r16
    3658:	08 95       	ret

0000365a <wdt_wait_while_busy>:
    365a:	80 91 82 00 	lds	r24, 0x0082
    365e:	80 fd       	sbrc	r24, 0
    3660:	fc cf       	rjmp	.-8      	; 0x365a <wdt_wait_while_busy>
    3662:	08 95       	ret

00003664 <wdt_set_timeout_period>:
    3664:	60 91 80 00 	lds	r22, 0x0080
    3668:	62 70       	andi	r22, 0x02	; 2
    366a:	61 60       	ori	r22, 0x01	; 1
    366c:	88 0f       	add	r24, r24
    366e:	88 0f       	add	r24, r24
    3670:	8c 73       	andi	r24, 0x3C	; 60
    3672:	68 2b       	or	r22, r24
    3674:	80 e8       	ldi	r24, 0x80	; 128
    3676:	90 e0       	ldi	r25, 0x00	; 0
    3678:	0e 94 be 11 	call	0x237c	; 0x237c <ccp_write_io>
    367c:	ee cf       	rjmp	.-36     	; 0x365a <wdt_wait_while_busy>

0000367e <wdt_disable>:
    367e:	60 91 80 00 	lds	r22, 0x0080
    3682:	6c 7f       	andi	r22, 0xFC	; 252
    3684:	61 60       	ori	r22, 0x01	; 1
    3686:	80 e8       	ldi	r24, 0x80	; 128
    3688:	90 e0       	ldi	r25, 0x00	; 0
    368a:	0c 94 be 11 	jmp	0x237c	; 0x237c <ccp_write_io>

0000368e <wdt_enable>:
    368e:	60 91 80 00 	lds	r22, 0x0080
    3692:	6c 73       	andi	r22, 0x3C	; 60
    3694:	63 60       	ori	r22, 0x03	; 3
    3696:	80 e8       	ldi	r24, 0x80	; 128
    3698:	90 e0       	ldi	r25, 0x00	; 0
    369a:	0e 94 be 11 	call	0x237c	; 0x237c <ccp_write_io>
    369e:	dd cf       	rjmp	.-70     	; 0x365a <wdt_wait_while_busy>

000036a0 <tick_handler>:
    36a0:	a0 91 84 28 	lds	r26, 0x2884
    36a4:	b0 91 a5 28 	lds	r27, 0x28A5
    36a8:	e5 e8       	ldi	r30, 0x85	; 133
    36aa:	f8 e2       	ldi	r31, 0x28	; 40
    36ac:	80 e0       	ldi	r24, 0x00	; 0
    36ae:	90 e0       	ldi	r25, 0x00	; 0
    36b0:	61 e0       	ldi	r22, 0x01	; 1
    36b2:	70 e0       	ldi	r23, 0x00	; 0
    36b4:	2a 2f       	mov	r18, r26
    36b6:	30 e0       	ldi	r19, 0x00	; 0
    36b8:	08 2e       	mov	r0, r24
    36ba:	02 c0       	rjmp	.+4      	; 0x36c0 <tick_handler+0x20>
    36bc:	35 95       	asr	r19
    36be:	27 95       	ror	r18
    36c0:	0a 94       	dec	r0
    36c2:	e2 f7       	brpl	.-8      	; 0x36bc <tick_handler+0x1c>
    36c4:	20 ff       	sbrs	r18, 0
    36c6:	19 c0       	rjmp	.+50     	; 0x36fa <tick_handler+0x5a>
    36c8:	20 81       	ld	r18, Z
    36ca:	31 81       	ldd	r19, Z+1	; 0x01
    36cc:	21 50       	subi	r18, 0x01	; 1
    36ce:	31 09       	sbc	r19, r1
    36d0:	20 83       	st	Z, r18
    36d2:	31 83       	std	Z+1, r19	; 0x01
    36d4:	23 2b       	or	r18, r19
    36d6:	89 f4       	brne	.+34     	; 0x36fa <tick_handler+0x5a>
    36d8:	9b 01       	movw	r18, r22
    36da:	08 2e       	mov	r0, r24
    36dc:	01 c0       	rjmp	.+2      	; 0x36e0 <tick_handler+0x40>
    36de:	22 0f       	add	r18, r18
    36e0:	0a 94       	dec	r0
    36e2:	ea f7       	brpl	.-6      	; 0x36de <tick_handler+0x3e>
    36e4:	b2 2b       	or	r27, r18
    36e6:	42 81       	ldd	r20, Z+2	; 0x02
    36e8:	53 81       	ldd	r21, Z+3	; 0x03
    36ea:	41 15       	cp	r20, r1
    36ec:	51 05       	cpc	r21, r1
    36ee:	19 f0       	breq	.+6      	; 0x36f6 <tick_handler+0x56>
    36f0:	40 83       	st	Z, r20
    36f2:	51 83       	std	Z+1, r21	; 0x01
    36f4:	02 c0       	rjmp	.+4      	; 0x36fa <tick_handler+0x5a>
    36f6:	20 95       	com	r18
    36f8:	a2 23       	and	r26, r18
    36fa:	01 96       	adiw	r24, 0x01	; 1
    36fc:	34 96       	adiw	r30, 0x04	; 4
    36fe:	88 30       	cpi	r24, 0x08	; 8
    3700:	91 05       	cpc	r25, r1
    3702:	c1 f6       	brne	.-80     	; 0x36b4 <tick_handler+0x14>
    3704:	a0 93 84 28 	sts	0x2884, r26
    3708:	b0 93 a5 28 	sts	0x28A5, r27
    370c:	60 e0       	ldi	r22, 0x00	; 0
    370e:	70 e0       	ldi	r23, 0x00	; 0
    3710:	cb 01       	movw	r24, r22
    3712:	0e 94 d9 12 	call	0x25b2	; 0x25b2 <rtc_set_time>
    3716:	60 e8       	ldi	r22, 0x80	; 128
    3718:	70 e0       	ldi	r23, 0x00	; 0
    371a:	80 e0       	ldi	r24, 0x00	; 0
    371c:	90 e0       	ldi	r25, 0x00	; 0
    371e:	0c 94 eb 12 	jmp	0x25d6	; 0x25d6 <rtc_set_alarm>

00003722 <timeout_init>:
    3722:	0e 94 0a 13 	call	0x2614	; 0x2614 <rtc_init>
    3726:	80 e5       	ldi	r24, 0x50	; 80
    3728:	9b e1       	ldi	r25, 0x1B	; 27
    372a:	0e 94 05 13 	call	0x260a	; 0x260a <rtc_set_callback>
    372e:	60 e0       	ldi	r22, 0x00	; 0
    3730:	70 e0       	ldi	r23, 0x00	; 0
    3732:	cb 01       	movw	r24, r22
    3734:	0e 94 d9 12 	call	0x25b2	; 0x25b2 <rtc_set_time>
    3738:	60 e8       	ldi	r22, 0x80	; 128
    373a:	70 e0       	ldi	r23, 0x00	; 0
    373c:	80 e0       	ldi	r24, 0x00	; 0
    373e:	90 e0       	ldi	r25, 0x00	; 0
    3740:	0c 94 eb 12 	jmp	0x25d6	; 0x25d6 <rtc_set_alarm>

00003744 <timeout_start_offset>:
    3744:	88 30       	cpi	r24, 0x08	; 8
    3746:	f0 f4       	brcc	.+60     	; 0x3784 <timeout_start_offset+0x40>
    3748:	9f b7       	in	r25, 0x3f	; 63
    374a:	f8 94       	cli
    374c:	24 e0       	ldi	r18, 0x04	; 4
    374e:	82 9f       	mul	r24, r18
    3750:	f0 01       	movw	r30, r0
    3752:	11 24       	eor	r1, r1
    3754:	eb 57       	subi	r30, 0x7B	; 123
    3756:	f7 4d       	sbci	r31, 0xD7	; 215
    3758:	40 83       	st	Z, r20
    375a:	51 83       	std	Z+1, r21	; 0x01
    375c:	62 83       	std	Z+2, r22	; 0x02
    375e:	73 83       	std	Z+3, r23	; 0x03
    3760:	21 e0       	ldi	r18, 0x01	; 1
    3762:	30 e0       	ldi	r19, 0x00	; 0
    3764:	01 c0       	rjmp	.+2      	; 0x3768 <timeout_start_offset+0x24>
    3766:	22 0f       	add	r18, r18
    3768:	8a 95       	dec	r24
    376a:	ea f7       	brpl	.-6      	; 0x3766 <timeout_start_offset+0x22>
    376c:	80 91 84 28 	lds	r24, 0x2884
    3770:	82 2b       	or	r24, r18
    3772:	80 93 84 28 	sts	0x2884, r24
    3776:	20 95       	com	r18
    3778:	80 91 a5 28 	lds	r24, 0x28A5
    377c:	82 23       	and	r24, r18
    377e:	80 93 a5 28 	sts	0x28A5, r24
    3782:	9f bf       	out	0x3f, r25	; 63
    3784:	08 95       	ret

00003786 <timeout_start_singleshot>:
    3786:	ab 01       	movw	r20, r22
    3788:	60 e0       	ldi	r22, 0x00	; 0
    378a:	70 e0       	ldi	r23, 0x00	; 0
    378c:	db cf       	rjmp	.-74     	; 0x3744 <timeout_start_offset>

0000378e <timeout_start_periodic>:
    378e:	ab 01       	movw	r20, r22
    3790:	d9 cf       	rjmp	.-78     	; 0x3744 <timeout_start_offset>

00003792 <timeout_test_and_clear_expired>:
    3792:	88 30       	cpi	r24, 0x08	; 8
    3794:	e0 f4       	brcc	.+56     	; 0x37ce <timeout_test_and_clear_expired+0x3c>
    3796:	20 91 a5 28 	lds	r18, 0x28A5
    379a:	30 e0       	ldi	r19, 0x00	; 0
    379c:	08 2e       	mov	r0, r24
    379e:	02 c0       	rjmp	.+4      	; 0x37a4 <timeout_test_and_clear_expired+0x12>
    37a0:	35 95       	asr	r19
    37a2:	27 95       	ror	r18
    37a4:	0a 94       	dec	r0
    37a6:	e2 f7       	brpl	.-8      	; 0x37a0 <timeout_test_and_clear_expired+0xe>
    37a8:	20 ff       	sbrs	r18, 0
    37aa:	11 c0       	rjmp	.+34     	; 0x37ce <timeout_test_and_clear_expired+0x3c>
    37ac:	9f b7       	in	r25, 0x3f	; 63
    37ae:	f8 94       	cli
    37b0:	21 e0       	ldi	r18, 0x01	; 1
    37b2:	30 e0       	ldi	r19, 0x00	; 0
    37b4:	01 c0       	rjmp	.+2      	; 0x37b8 <timeout_test_and_clear_expired+0x26>
    37b6:	22 0f       	add	r18, r18
    37b8:	8a 95       	dec	r24
    37ba:	ea f7       	brpl	.-6      	; 0x37b6 <timeout_test_and_clear_expired+0x24>
    37bc:	20 95       	com	r18
    37be:	80 91 a5 28 	lds	r24, 0x28A5
    37c2:	82 23       	and	r24, r18
    37c4:	80 93 a5 28 	sts	0x28A5, r24
    37c8:	9f bf       	out	0x3f, r25	; 63
    37ca:	81 e0       	ldi	r24, 0x01	; 1
    37cc:	08 95       	ret
    37ce:	80 e0       	ldi	r24, 0x00	; 0
    37d0:	08 95       	ret

000037d2 <timeout_stop>:
    37d2:	9f b7       	in	r25, 0x3f	; 63
    37d4:	f8 94       	cli
    37d6:	21 e0       	ldi	r18, 0x01	; 1
    37d8:	30 e0       	ldi	r19, 0x00	; 0
    37da:	01 c0       	rjmp	.+2      	; 0x37de <timeout_stop+0xc>
    37dc:	22 0f       	add	r18, r18
    37de:	8a 95       	dec	r24
    37e0:	ea f7       	brpl	.-6      	; 0x37dc <timeout_stop+0xa>
    37e2:	20 95       	com	r18
    37e4:	80 91 84 28 	lds	r24, 0x2884
    37e8:	82 23       	and	r24, r18
    37ea:	80 93 84 28 	sts	0x2884, r24
    37ee:	9f bf       	out	0x3f, r25	; 63
    37f0:	08 95       	ret

000037f2 <get_current_pulse_counter>:
    37f2:	2f b7       	in	r18, 0x3f	; 63
    37f4:	f8 94       	cli
    37f6:	94 e0       	ldi	r25, 0x04	; 4
    37f8:	89 9f       	mul	r24, r25
    37fa:	f0 01       	movw	r30, r0
    37fc:	11 24       	eor	r1, r1
    37fe:	ee 5d       	subi	r30, 0xDE	; 222
    3800:	f4 4d       	sbci	r31, 0xD4	; 212
    3802:	60 81       	ld	r22, Z
    3804:	71 81       	ldd	r23, Z+1	; 0x01
    3806:	82 81       	ldd	r24, Z+2	; 0x02
    3808:	93 81       	ldd	r25, Z+3	; 0x03
    380a:	2f bf       	out	0x3f, r18	; 63
    380c:	08 95       	ret

0000380e <set_midnight_pulse_counter>:
    380e:	9f b7       	in	r25, 0x3f	; 63
    3810:	f8 94       	cli
    3812:	24 e0       	ldi	r18, 0x04	; 4
    3814:	82 9f       	mul	r24, r18
    3816:	f0 01       	movw	r30, r0
    3818:	11 24       	eor	r1, r1
    381a:	ef 5a       	subi	r30, 0xAF	; 175
    381c:	f4 4d       	sbci	r31, 0xD4	; 212
    381e:	40 83       	st	Z, r20
    3820:	51 83       	std	Z+1, r21	; 0x01
    3822:	62 83       	std	Z+2, r22	; 0x02
    3824:	73 83       	std	Z+3, r23	; 0x03
    3826:	9f bf       	out	0x3f, r25	; 63
    3828:	08 95       	ret

0000382a <modem_up_handler>:
    382a:	80 93 a7 28 	sts	0x28A7, r24
    382e:	08 95       	ret

00003830 <config1_message_rsp>:
    3830:	10 92 a8 28 	sts	0x28A8, r1
    3834:	88 23       	and	r24, r24
    3836:	39 f0       	breq	.+14     	; 0x3846 <config1_message_rsp+0x16>
    3838:	10 92 ad 28 	sts	0x28AD, r1
    383c:	10 92 ae 28 	sts	0x28AE, r1
    3840:	10 92 aa 28 	sts	0x28AA, r1
    3844:	08 95       	ret
    3846:	81 e0       	ldi	r24, 0x01	; 1
    3848:	80 93 aa 28 	sts	0x28AA, r24
    384c:	08 95       	ret

0000384e <config2_message_rsp>:
    384e:	10 92 a8 28 	sts	0x28A8, r1
    3852:	88 23       	and	r24, r24
    3854:	39 f0       	breq	.+14     	; 0x3864 <config2_message_rsp+0x16>
    3856:	10 92 ad 28 	sts	0x28AD, r1
    385a:	10 92 ae 28 	sts	0x28AE, r1
    385e:	10 92 ab 28 	sts	0x28AB, r1
    3862:	08 95       	ret
    3864:	81 e0       	ldi	r24, 0x01	; 1
    3866:	80 93 ab 28 	sts	0x28AB, r24
    386a:	08 95       	ret

0000386c <rom_config_message_rsp>:
    386c:	10 92 a8 28 	sts	0x28A8, r1
    3870:	88 23       	and	r24, r24
    3872:	39 f0       	breq	.+14     	; 0x3882 <rom_config_message_rsp+0x16>
    3874:	10 92 ad 28 	sts	0x28AD, r1
    3878:	10 92 ae 28 	sts	0x28AE, r1
    387c:	10 92 ac 28 	sts	0x28AC, r1
    3880:	08 95       	ret
    3882:	81 e0       	ldi	r24, 0x01	; 1
    3884:	80 93 ac 28 	sts	0x28AC, r24
    3888:	08 95       	ret

0000388a <id_message_rsp>:
    388a:	10 92 a8 28 	sts	0x28A8, r1
    388e:	88 23       	and	r24, r24
    3890:	39 f0       	breq	.+14     	; 0x38a0 <id_message_rsp+0x16>
    3892:	10 92 ad 28 	sts	0x28AD, r1
    3896:	10 92 ae 28 	sts	0x28AE, r1
    389a:	10 92 a9 28 	sts	0x28A9, r1
    389e:	08 95       	ret
    38a0:	81 e0       	ldi	r24, 0x01	; 1
    38a2:	80 93 a9 28 	sts	0x28A9, r24
    38a6:	08 95       	ret

000038a8 <config_find_ow_rom_code>:
    38a8:	ef 92       	push	r14
    38aa:	ff 92       	push	r15
    38ac:	0f 93       	push	r16
    38ae:	1f 93       	push	r17
    38b0:	cf 93       	push	r28
    38b2:	df 93       	push	r29
    38b4:	29 e0       	ldi	r18, 0x09	; 9
    38b6:	82 9f       	mul	r24, r18
    38b8:	c0 01       	movw	r24, r0
    38ba:	11 24       	eor	r1, r1
    38bc:	fc 01       	movw	r30, r24
    38be:	e0 59       	subi	r30, 0x90	; 144
    38c0:	f4 4d       	sbci	r31, 0xD4	; 212
    38c2:	23 81       	ldd	r18, Z+3	; 0x03
    38c4:	22 23       	and	r18, r18
    38c6:	e9 f0       	breq	.+58     	; 0x3902 <config_find_ow_rom_code+0x5a>
    38c8:	e0 90 84 2d 	lds	r14, 0x2D84
    38cc:	c0 e0       	ldi	r28, 0x00	; 0
    38ce:	d0 e0       	ldi	r29, 0x00	; 0
    38d0:	8c 01       	movw	r16, r24
    38d2:	0c 58       	subi	r16, 0x8C	; 140
    38d4:	14 4d       	sbci	r17, 0xD4	; 212
    38d6:	12 c0       	rjmp	.+36     	; 0x38fc <config_find_ow_rom_code+0x54>
    38d8:	be 01       	movw	r22, r28
    38da:	83 e0       	ldi	r24, 0x03	; 3
    38dc:	66 0f       	add	r22, r22
    38de:	77 1f       	adc	r23, r23
    38e0:	8a 95       	dec	r24
    38e2:	e1 f7       	brne	.-8      	; 0x38dc <config_find_ow_rom_code+0x34>
    38e4:	6c 5f       	subi	r22, 0xFC	; 252
    38e6:	72 4d       	sbci	r23, 0xD2	; 210
    38e8:	48 e0       	ldi	r20, 0x08	; 8
    38ea:	50 e0       	ldi	r21, 0x00	; 0
    38ec:	c8 01       	movw	r24, r16
    38ee:	0e 94 28 32 	call	0x6450	; 0x6450 <memcmp>
    38f2:	21 96       	adiw	r28, 0x01	; 1
    38f4:	00 97       	sbiw	r24, 0x00	; 0
    38f6:	11 f4       	brne	.+4      	; 0x38fc <config_find_ow_rom_code+0x54>
    38f8:	8f 2d       	mov	r24, r15
    38fa:	04 c0       	rjmp	.+8      	; 0x3904 <config_find_ow_rom_code+0x5c>
    38fc:	fc 2e       	mov	r15, r28
    38fe:	ce 15       	cp	r28, r14
    3900:	58 f3       	brcs	.-42     	; 0x38d8 <config_find_ow_rom_code+0x30>
    3902:	8f ef       	ldi	r24, 0xFF	; 255
    3904:	df 91       	pop	r29
    3906:	cf 91       	pop	r28
    3908:	1f 91       	pop	r17
    390a:	0f 91       	pop	r16
    390c:	ff 90       	pop	r15
    390e:	ef 90       	pop	r14
    3910:	08 95       	ret

00003912 <buffer_str_event>:
    3912:	df 92       	push	r13
    3914:	ef 92       	push	r14
    3916:	ff 92       	push	r15
    3918:	0f 93       	push	r16
    391a:	1f 93       	push	r17
    391c:	cf 93       	push	r28
    391e:	df 93       	push	r29
    3920:	d8 2e       	mov	r13, r24
    3922:	7b 01       	movw	r14, r22
    3924:	c0 91 32 29 	lds	r28, 0x2932
    3928:	d0 e0       	ldi	r29, 0x00	; 0
    392a:	8e 01       	movw	r16, r28
    392c:	0f 5f       	subi	r16, 0xFF	; 255
    392e:	1f 4f       	sbci	r17, 0xFF	; 255
    3930:	0f 70       	andi	r16, 0x0F	; 15
    3932:	11 27       	eor	r17, r17
    3934:	80 91 31 29 	lds	r24, 0x2931
    3938:	80 17       	cp	r24, r16
    393a:	99 f0       	breq	.+38     	; 0x3962 <buffer_str_event+0x50>
    393c:	93 e0       	ldi	r25, 0x03	; 3
    393e:	cc 0f       	add	r28, r28
    3940:	dd 1f       	adc	r29, r29
    3942:	9a 95       	dec	r25
    3944:	e1 f7       	brne	.-8      	; 0x393e <buffer_str_event+0x2c>
    3946:	cf 54       	subi	r28, 0x4F	; 79
    3948:	d7 4d       	sbci	r29, 0xD7	; 215
    394a:	0e 94 b5 0b 	call	0x176a	; 0x176a <epoch_get>
    394e:	68 83       	st	Y, r22
    3950:	79 83       	std	Y+1, r23	; 0x01
    3952:	8a 83       	std	Y+2, r24	; 0x02
    3954:	9b 83       	std	Y+3, r25	; 0x03
    3956:	dc 82       	std	Y+4, r13	; 0x04
    3958:	1d 82       	std	Y+5, r1	; 0x05
    395a:	ee 82       	std	Y+6, r14	; 0x06
    395c:	ff 82       	std	Y+7, r15	; 0x07
    395e:	00 93 32 29 	sts	0x2932, r16
    3962:	df 91       	pop	r29
    3964:	cf 91       	pop	r28
    3966:	1f 91       	pop	r17
    3968:	0f 91       	pop	r16
    396a:	ff 90       	pop	r15
    396c:	ef 90       	pop	r14
    396e:	df 90       	pop	r13
    3970:	08 95       	ret

00003972 <buffer_event>:
    3972:	bf 92       	push	r11
    3974:	cf 92       	push	r12
    3976:	df 92       	push	r13
    3978:	ef 92       	push	r14
    397a:	ff 92       	push	r15
    397c:	0f 93       	push	r16
    397e:	1f 93       	push	r17
    3980:	cf 93       	push	r28
    3982:	df 93       	push	r29
    3984:	b8 2e       	mov	r11, r24
    3986:	6a 01       	movw	r12, r20
    3988:	7b 01       	movw	r14, r22
    398a:	c0 91 32 29 	lds	r28, 0x2932
    398e:	d0 e0       	ldi	r29, 0x00	; 0
    3990:	8e 01       	movw	r16, r28
    3992:	0f 5f       	subi	r16, 0xFF	; 255
    3994:	1f 4f       	sbci	r17, 0xFF	; 255
    3996:	0f 70       	andi	r16, 0x0F	; 15
    3998:	11 27       	eor	r17, r17
    399a:	80 91 31 29 	lds	r24, 0x2931
    399e:	80 17       	cp	r24, r16
    39a0:	a1 f0       	breq	.+40     	; 0x39ca <buffer_event+0x58>
    39a2:	23 e0       	ldi	r18, 0x03	; 3
    39a4:	cc 0f       	add	r28, r28
    39a6:	dd 1f       	adc	r29, r29
    39a8:	2a 95       	dec	r18
    39aa:	e1 f7       	brne	.-8      	; 0x39a4 <buffer_event+0x32>
    39ac:	cf 54       	subi	r28, 0x4F	; 79
    39ae:	d7 4d       	sbci	r29, 0xD7	; 215
    39b0:	0e 94 b5 0b 	call	0x176a	; 0x176a <epoch_get>
    39b4:	68 83       	st	Y, r22
    39b6:	79 83       	std	Y+1, r23	; 0x01
    39b8:	8a 83       	std	Y+2, r24	; 0x02
    39ba:	9b 83       	std	Y+3, r25	; 0x03
    39bc:	bc 82       	std	Y+4, r11	; 0x04
    39be:	81 e0       	ldi	r24, 0x01	; 1
    39c0:	8d 83       	std	Y+5, r24	; 0x05
    39c2:	ce 82       	std	Y+6, r12	; 0x06
    39c4:	df 82       	std	Y+7, r13	; 0x07
    39c6:	00 93 32 29 	sts	0x2932, r16
    39ca:	df 91       	pop	r29
    39cc:	cf 91       	pop	r28
    39ce:	1f 91       	pop	r17
    39d0:	0f 91       	pop	r16
    39d2:	ff 90       	pop	r15
    39d4:	ef 90       	pop	r14
    39d6:	df 90       	pop	r13
    39d8:	cf 90       	pop	r12
    39da:	bf 90       	pop	r11
    39dc:	08 95       	ret

000039de <modem_reset_handler>:
    39de:	01 97       	sbiw	r24, 0x01	; 1
    39e0:	b9 f4       	brne	.+46     	; 0x3a10 <modem_reset_handler+0x32>
    39e2:	20 91 71 2b 	lds	r18, 0x2B71
    39e6:	30 91 72 2b 	lds	r19, 0x2B72
    39ea:	c9 01       	movw	r24, r18
    39ec:	88 0f       	add	r24, r24
    39ee:	99 1f       	adc	r25, r25
    39f0:	82 0f       	add	r24, r18
    39f2:	93 1f       	adc	r25, r19
    39f4:	96 95       	lsr	r25
    39f6:	87 95       	ror	r24
    39f8:	80 93 ad 28 	sts	0x28AD, r24
    39fc:	90 93 ae 28 	sts	0x28AE, r25
    3a00:	20 93 af 28 	sts	0x28AF, r18
    3a04:	30 93 b0 28 	sts	0x28B0, r19
    3a08:	10 92 a7 28 	sts	0x28A7, r1
    3a0c:	10 92 a8 28 	sts	0x28A8, r1
    3a10:	08 95       	ret

00003a12 <event_message_rsp>:
    3a12:	10 92 a8 28 	sts	0x28A8, r1
    3a16:	88 23       	and	r24, r24
    3a18:	61 f0       	breq	.+24     	; 0x3a32 <event_message_rsp+0x20>
    3a1a:	10 92 ad 28 	sts	0x28AD, r1
    3a1e:	10 92 ae 28 	sts	0x28AE, r1
    3a22:	80 91 31 29 	lds	r24, 0x2931
    3a26:	90 e0       	ldi	r25, 0x00	; 0
    3a28:	01 96       	adiw	r24, 0x01	; 1
    3a2a:	8f 70       	andi	r24, 0x0F	; 15
    3a2c:	99 27       	eor	r25, r25
    3a2e:	80 93 31 29 	sts	0x2931, r24
    3a32:	08 95       	ret

00003a34 <status_message_rsp>:
    3a34:	10 92 a8 28 	sts	0x28A8, r1
    3a38:	88 23       	and	r24, r24
    3a3a:	d1 f0       	breq	.+52     	; 0x3a70 <status_message_rsp+0x3c>
    3a3c:	10 92 ad 28 	sts	0x28AD, r1
    3a40:	10 92 ae 28 	sts	0x28AE, r1
    3a44:	80 91 af 28 	lds	r24, 0x28AF
    3a48:	90 91 b0 28 	lds	r25, 0x28B0
    3a4c:	60 91 71 2b 	lds	r22, 0x2B71
    3a50:	70 91 72 2b 	lds	r23, 0x2B72
    3a54:	0e 94 ac 30 	call	0x6158	; 0x6158 <__udivmodhi4>
    3a58:	80 93 af 28 	sts	0x28AF, r24
    3a5c:	90 93 b0 28 	sts	0x28B0, r25
    3a60:	80 91 13 2b 	lds	r24, 0x2B13
    3a64:	90 e0       	ldi	r25, 0x00	; 0
    3a66:	01 96       	adiw	r24, 0x01	; 1
    3a68:	8f 70       	andi	r24, 0x0F	; 15
    3a6a:	99 27       	eor	r25, r25
    3a6c:	80 93 13 2b 	sts	0x2B13, r24
    3a70:	08 95       	ret

00003a72 <geyser_set_power_off>:
    3a72:	80 91 68 06 	lds	r24, 0x0668
    3a76:	83 ff       	sbrs	r24, 3
    3a78:	10 c0       	rjmp	.+32     	; 0x3a9a <geyser_set_power_off+0x28>
    3a7a:	80 91 22 2b 	lds	r24, 0x2B22
    3a7e:	90 91 23 2b 	lds	r25, 0x2B23
    3a82:	a0 91 24 2b 	lds	r26, 0x2B24
    3a86:	b0 91 25 2b 	lds	r27, 0x2B25
    3a8a:	80 93 2f 2b 	sts	0x2B2F, r24
    3a8e:	90 93 30 2b 	sts	0x2B30, r25
    3a92:	a0 93 31 2b 	sts	0x2B31, r26
    3a96:	b0 93 32 2b 	sts	0x2B32, r27
    3a9a:	88 e0       	ldi	r24, 0x08	; 8
    3a9c:	80 93 66 06 	sts	0x0666, r24
    3aa0:	08 95       	ret

00003aa2 <check_pulse_counters>:
    3aa2:	90 91 48 06 	lds	r25, 0x0648
    3aa6:	92 fb       	bst	r25, 2
    3aa8:	99 27       	eor	r25, r25
    3aaa:	90 f9       	bld	r25, 0
    3aac:	80 91 64 2b 	lds	r24, 0x2B64
    3ab0:	88 0f       	add	r24, r24
    3ab2:	89 2b       	or	r24, r25
    3ab4:	87 70       	andi	r24, 0x07	; 7
    3ab6:	80 93 64 2b 	sts	0x2B64, r24
    3aba:	90 91 63 2b 	lds	r25, 0x2B63
    3abe:	91 11       	cpse	r25, r1
    3ac0:	28 c0       	rjmp	.+80     	; 0x3b12 <check_pulse_counters+0x70>
    3ac2:	87 30       	cpi	r24, 0x07	; 7
    3ac4:	51 f5       	brne	.+84     	; 0x3b1a <check_pulse_counters+0x78>
    3ac6:	21 e0       	ldi	r18, 0x01	; 1
    3ac8:	20 93 63 2b 	sts	0x2B63, r18
    3acc:	80 91 22 2b 	lds	r24, 0x2B22
    3ad0:	90 91 23 2b 	lds	r25, 0x2B23
    3ad4:	a0 91 24 2b 	lds	r26, 0x2B24
    3ad8:	b0 91 25 2b 	lds	r27, 0x2B25
    3adc:	01 96       	adiw	r24, 0x01	; 1
    3ade:	a1 1d       	adc	r26, r1
    3ae0:	b1 1d       	adc	r27, r1
    3ae2:	80 93 22 2b 	sts	0x2B22, r24
    3ae6:	90 93 23 2b 	sts	0x2B23, r25
    3aea:	a0 93 24 2b 	sts	0x2B24, r26
    3aee:	b0 93 25 2b 	sts	0x2B25, r27
    3af2:	20 93 62 2b 	sts	0x2B62, r18
    3af6:	0e 94 b5 0b 	call	0x176a	; 0x176a <epoch_get>
    3afa:	60 93 5e 2b 	sts	0x2B5E, r22
    3afe:	70 93 5f 2b 	sts	0x2B5F, r23
    3b02:	80 93 60 2b 	sts	0x2B60, r24
    3b06:	90 93 61 2b 	sts	0x2B61, r25
    3b0a:	88 e0       	ldi	r24, 0x08	; 8
    3b0c:	80 93 27 06 	sts	0x0627, r24
    3b10:	04 c0       	rjmp	.+8      	; 0x3b1a <check_pulse_counters+0x78>
    3b12:	81 11       	cpse	r24, r1
    3b14:	02 c0       	rjmp	.+4      	; 0x3b1a <check_pulse_counters+0x78>
    3b16:	10 92 63 2b 	sts	0x2B63, r1
    3b1a:	90 91 68 06 	lds	r25, 0x0668
    3b1e:	92 fb       	bst	r25, 2
    3b20:	99 27       	eor	r25, r25
    3b22:	90 f9       	bld	r25, 0
    3b24:	80 91 66 2b 	lds	r24, 0x2B66
    3b28:	88 0f       	add	r24, r24
    3b2a:	89 2b       	or	r24, r25
    3b2c:	87 70       	andi	r24, 0x07	; 7
    3b2e:	80 93 66 2b 	sts	0x2B66, r24
    3b32:	90 91 65 2b 	lds	r25, 0x2B65
    3b36:	91 11       	cpse	r25, r1
    3b38:	28 c0       	rjmp	.+80     	; 0x3b8a <check_pulse_counters+0xe8>
    3b3a:	87 30       	cpi	r24, 0x07	; 7
    3b3c:	51 f5       	brne	.+84     	; 0x3b92 <check_pulse_counters+0xf0>
    3b3e:	21 e0       	ldi	r18, 0x01	; 1
    3b40:	20 93 65 2b 	sts	0x2B65, r18
    3b44:	80 91 26 2b 	lds	r24, 0x2B26
    3b48:	90 91 27 2b 	lds	r25, 0x2B27
    3b4c:	a0 91 28 2b 	lds	r26, 0x2B28
    3b50:	b0 91 29 2b 	lds	r27, 0x2B29
    3b54:	01 96       	adiw	r24, 0x01	; 1
    3b56:	a1 1d       	adc	r26, r1
    3b58:	b1 1d       	adc	r27, r1
    3b5a:	80 93 26 2b 	sts	0x2B26, r24
    3b5e:	90 93 27 2b 	sts	0x2B27, r25
    3b62:	a0 93 28 2b 	sts	0x2B28, r26
    3b66:	b0 93 29 2b 	sts	0x2B29, r27
    3b6a:	20 93 5d 2b 	sts	0x2B5D, r18
    3b6e:	0e 94 b5 0b 	call	0x176a	; 0x176a <epoch_get>
    3b72:	60 93 59 2b 	sts	0x2B59, r22
    3b76:	70 93 5a 2b 	sts	0x2B5A, r23
    3b7a:	80 93 5b 2b 	sts	0x2B5B, r24
    3b7e:	90 93 5c 2b 	sts	0x2B5C, r25
    3b82:	80 e2       	ldi	r24, 0x20	; 32
    3b84:	80 93 07 06 	sts	0x0607, r24
    3b88:	08 95       	ret
    3b8a:	81 11       	cpse	r24, r1
    3b8c:	02 c0       	rjmp	.+4      	; 0x3b92 <check_pulse_counters+0xf0>
    3b8e:	10 92 65 2b 	sts	0x2B65, r1
    3b92:	08 95       	ret

00003b94 <eeprom_read_pulse_counters>:
    3b94:	0f 93       	push	r16
    3b96:	1f 93       	push	r17
    3b98:	cf 93       	push	r28
    3b9a:	df 93       	push	r29
    3b9c:	cd b7       	in	r28, 0x3d	; 61
    3b9e:	de b7       	in	r29, 0x3e	; 62
    3ba0:	61 97       	sbiw	r28, 0x11	; 17
    3ba2:	cd bf       	out	0x3d, r28	; 61
    3ba4:	de bf       	out	0x3e, r29	; 62
    3ba6:	89 e8       	ldi	r24, 0x89	; 137
    3ba8:	93 e2       	ldi	r25, 0x23	; 35
    3baa:	0e 94 93 10 	call	0x2126	; 0x2126 <DEBUG_putcrlf>
    3bae:	41 e1       	ldi	r20, 0x11	; 17
    3bb0:	50 e0       	ldi	r21, 0x00	; 0
    3bb2:	8e 01       	movw	r16, r28
    3bb4:	0f 5f       	subi	r16, 0xFF	; 255
    3bb6:	1f 4f       	sbci	r17, 0xFF	; 255
    3bb8:	b8 01       	movw	r22, r16
    3bba:	83 ec       	ldi	r24, 0xC3	; 195
    3bbc:	90 e0       	ldi	r25, 0x00	; 0
    3bbe:	0e 94 d9 11 	call	0x23b2	; 0x23b2 <nvm_eeprom_read_buffer>
    3bc2:	61 e1       	ldi	r22, 0x11	; 17
    3bc4:	c8 01       	movw	r24, r16
    3bc6:	0e 94 7a 0a 	call	0x14f4	; 0x14f4 <crc8_compute>
    3bca:	81 11       	cpse	r24, r1
    3bcc:	35 c0       	rjmp	.+106    	; 0x3c38 <eeprom_read_pulse_counters+0xa4>
    3bce:	89 81       	ldd	r24, Y+1	; 0x01
    3bd0:	9a 81       	ldd	r25, Y+2	; 0x02
    3bd2:	ab 81       	ldd	r26, Y+3	; 0x03
    3bd4:	bc 81       	ldd	r27, Y+4	; 0x04
    3bd6:	8f 3f       	cpi	r24, 0xFF	; 255
    3bd8:	9f 4f       	sbci	r25, 0xFF	; 255
    3bda:	af 4f       	sbci	r26, 0xFF	; 255
    3bdc:	bf 4f       	sbci	r27, 0xFF	; 255
    3bde:	21 f4       	brne	.+8      	; 0x3be8 <eeprom_read_pulse_counters+0x54>
    3be0:	19 82       	std	Y+1, r1	; 0x01
    3be2:	1a 82       	std	Y+2, r1	; 0x02
    3be4:	1b 82       	std	Y+3, r1	; 0x03
    3be6:	1c 82       	std	Y+4, r1	; 0x04
    3be8:	89 85       	ldd	r24, Y+9	; 0x09
    3bea:	9a 85       	ldd	r25, Y+10	; 0x0a
    3bec:	ab 85       	ldd	r26, Y+11	; 0x0b
    3bee:	bc 85       	ldd	r27, Y+12	; 0x0c
    3bf0:	8f 3f       	cpi	r24, 0xFF	; 255
    3bf2:	9f 4f       	sbci	r25, 0xFF	; 255
    3bf4:	af 4f       	sbci	r26, 0xFF	; 255
    3bf6:	bf 4f       	sbci	r27, 0xFF	; 255
    3bf8:	21 f4       	brne	.+8      	; 0x3c02 <eeprom_read_pulse_counters+0x6e>
    3bfa:	19 86       	std	Y+9, r1	; 0x09
    3bfc:	1a 86       	std	Y+10, r1	; 0x0a
    3bfe:	1b 86       	std	Y+11, r1	; 0x0b
    3c00:	1c 86       	std	Y+12, r1	; 0x0c
    3c02:	8d 81       	ldd	r24, Y+5	; 0x05
    3c04:	9e 81       	ldd	r25, Y+6	; 0x06
    3c06:	af 81       	ldd	r26, Y+7	; 0x07
    3c08:	b8 85       	ldd	r27, Y+8	; 0x08
    3c0a:	8f 3f       	cpi	r24, 0xFF	; 255
    3c0c:	9f 4f       	sbci	r25, 0xFF	; 255
    3c0e:	af 4f       	sbci	r26, 0xFF	; 255
    3c10:	bf 4f       	sbci	r27, 0xFF	; 255
    3c12:	21 f4       	brne	.+8      	; 0x3c1c <eeprom_read_pulse_counters+0x88>
    3c14:	1d 82       	std	Y+5, r1	; 0x05
    3c16:	1e 82       	std	Y+6, r1	; 0x06
    3c18:	1f 82       	std	Y+7, r1	; 0x07
    3c1a:	18 86       	std	Y+8, r1	; 0x08
    3c1c:	8d 85       	ldd	r24, Y+13	; 0x0d
    3c1e:	9e 85       	ldd	r25, Y+14	; 0x0e
    3c20:	af 85       	ldd	r26, Y+15	; 0x0f
    3c22:	b8 89       	ldd	r27, Y+16	; 0x10
    3c24:	8f 3f       	cpi	r24, 0xFF	; 255
    3c26:	9f 4f       	sbci	r25, 0xFF	; 255
    3c28:	af 4f       	sbci	r26, 0xFF	; 255
    3c2a:	bf 4f       	sbci	r27, 0xFF	; 255
    3c2c:	51 f4       	brne	.+20     	; 0x3c42 <eeprom_read_pulse_counters+0xae>
    3c2e:	1d 86       	std	Y+13, r1	; 0x0d
    3c30:	1e 86       	std	Y+14, r1	; 0x0e
    3c32:	1f 86       	std	Y+15, r1	; 0x0f
    3c34:	18 8a       	std	Y+16, r1	; 0x10
    3c36:	05 c0       	rjmp	.+10     	; 0x3c42 <eeprom_read_pulse_counters+0xae>
    3c38:	81 e1       	ldi	r24, 0x11	; 17
    3c3a:	f8 01       	movw	r30, r16
    3c3c:	11 92       	st	Z+, r1
    3c3e:	8a 95       	dec	r24
    3c40:	e9 f7       	brne	.-6      	; 0x3c3c <eeprom_read_pulse_counters+0xa8>
    3c42:	89 81       	ldd	r24, Y+1	; 0x01
    3c44:	9a 81       	ldd	r25, Y+2	; 0x02
    3c46:	ab 81       	ldd	r26, Y+3	; 0x03
    3c48:	bc 81       	ldd	r27, Y+4	; 0x04
    3c4a:	2f b7       	in	r18, 0x3f	; 63
    3c4c:	f8 94       	cli
    3c4e:	80 93 22 2b 	sts	0x2B22, r24
    3c52:	90 93 23 2b 	sts	0x2B23, r25
    3c56:	a0 93 24 2b 	sts	0x2B24, r26
    3c5a:	b0 93 25 2b 	sts	0x2B25, r27
    3c5e:	2f bf       	out	0x3f, r18	; 63
    3c60:	8d 81       	ldd	r24, Y+5	; 0x05
    3c62:	9e 81       	ldd	r25, Y+6	; 0x06
    3c64:	af 81       	ldd	r26, Y+7	; 0x07
    3c66:	b8 85       	ldd	r27, Y+8	; 0x08
    3c68:	2f b7       	in	r18, 0x3f	; 63
    3c6a:	f8 94       	cli
    3c6c:	80 93 26 2b 	sts	0x2B26, r24
    3c70:	90 93 27 2b 	sts	0x2B27, r25
    3c74:	a0 93 28 2b 	sts	0x2B28, r26
    3c78:	b0 93 29 2b 	sts	0x2B29, r27
    3c7c:	2f bf       	out	0x3f, r18	; 63
    3c7e:	49 85       	ldd	r20, Y+9	; 0x09
    3c80:	5a 85       	ldd	r21, Y+10	; 0x0a
    3c82:	6b 85       	ldd	r22, Y+11	; 0x0b
    3c84:	7c 85       	ldd	r23, Y+12	; 0x0c
    3c86:	80 e0       	ldi	r24, 0x00	; 0
    3c88:	c2 dd       	rcall	.-1148   	; 0x380e <set_midnight_pulse_counter>
    3c8a:	4d 85       	ldd	r20, Y+13	; 0x0d
    3c8c:	5e 85       	ldd	r21, Y+14	; 0x0e
    3c8e:	6f 85       	ldd	r22, Y+15	; 0x0f
    3c90:	78 89       	ldd	r23, Y+16	; 0x10
    3c92:	81 e0       	ldi	r24, 0x01	; 1
    3c94:	bc dd       	rcall	.-1160   	; 0x380e <set_midnight_pulse_counter>
    3c96:	61 96       	adiw	r28, 0x11	; 17
    3c98:	cd bf       	out	0x3d, r28	; 61
    3c9a:	de bf       	out	0x3e, r29	; 62
    3c9c:	df 91       	pop	r29
    3c9e:	cf 91       	pop	r28
    3ca0:	1f 91       	pop	r17
    3ca2:	0f 91       	pop	r16
    3ca4:	08 95       	ret

00003ca6 <hex_byte>:
    3ca6:	fc 01       	movw	r30, r24
    3ca8:	80 81       	ld	r24, Z
    3caa:	80 5c       	subi	r24, 0xC0	; 192
    3cac:	91 81       	ldd	r25, Z+1	; 0x01
    3cae:	90 5c       	subi	r25, 0xC0	; 192
    3cb0:	68 2f       	mov	r22, r24
    3cb2:	77 27       	eor	r23, r23
    3cb4:	67 fd       	sbrc	r22, 7
    3cb6:	70 95       	com	r23
    3cb8:	47 2f       	mov	r20, r23
    3cba:	55 27       	eor	r21, r21
    3cbc:	47 fd       	sbrc	r20, 7
    3cbe:	5a 95       	dec	r21
    3cc0:	49 70       	andi	r20, 0x09	; 9
    3cc2:	55 27       	eor	r21, r21
    3cc4:	84 0f       	add	r24, r20
    3cc6:	82 95       	swap	r24
    3cc8:	80 7f       	andi	r24, 0xF0	; 240
    3cca:	69 2f       	mov	r22, r25
    3ccc:	77 27       	eor	r23, r23
    3cce:	67 fd       	sbrc	r22, 7
    3cd0:	70 95       	com	r23
    3cd2:	27 2f       	mov	r18, r23
    3cd4:	33 27       	eor	r19, r19
    3cd6:	27 fd       	sbrc	r18, 7
    3cd8:	3a 95       	dec	r19
    3cda:	29 70       	andi	r18, 0x09	; 9
    3cdc:	33 27       	eor	r19, r19
    3cde:	29 0f       	add	r18, r25
    3ce0:	2f 70       	andi	r18, 0x0F	; 15
    3ce2:	82 2b       	or	r24, r18
    3ce4:	08 95       	ret

00003ce6 <update_asset_state>:
    3ce6:	8f 92       	push	r8
    3ce8:	9f 92       	push	r9
    3cea:	af 92       	push	r10
    3cec:	bf 92       	push	r11
    3cee:	cf 92       	push	r12
    3cf0:	df 92       	push	r13
    3cf2:	ef 92       	push	r14
    3cf4:	ff 92       	push	r15
    3cf6:	1f 93       	push	r17
    3cf8:	cf 93       	push	r28
    3cfa:	df 93       	push	r29
    3cfc:	80 e0       	ldi	r24, 0x00	; 0
    3cfe:	d4 dd       	rcall	.-1112   	; 0x38a8 <config_find_ow_rom_code>
    3d00:	98 2e       	mov	r9, r24
    3d02:	81 e0       	ldi	r24, 0x01	; 1
    3d04:	d1 dd       	rcall	.-1118   	; 0x38a8 <config_find_ow_rom_code>
    3d06:	a8 2e       	mov	r10, r24
    3d08:	82 e0       	ldi	r24, 0x02	; 2
    3d0a:	ce dd       	rcall	.-1124   	; 0x38a8 <config_find_ow_rom_code>
    3d0c:	b8 2e       	mov	r11, r24
    3d0e:	0e 94 b5 0b 	call	0x176a	; 0x176a <epoch_get>
    3d12:	60 93 15 2b 	sts	0x2B15, r22
    3d16:	70 93 16 2b 	sts	0x2B16, r23
    3d1a:	80 93 17 2b 	sts	0x2B17, r24
    3d1e:	90 93 18 2b 	sts	0x2B18, r25
    3d22:	80 91 68 06 	lds	r24, 0x0668
    3d26:	83 fb       	bst	r24, 3
    3d28:	88 27       	eor	r24, r24
    3d2a:	80 f9       	bld	r24, 0
    3d2c:	80 93 2a 2b 	sts	0x2B2A, r24
    3d30:	80 91 62 2b 	lds	r24, 0x2B62
    3d34:	88 23       	and	r24, r24
    3d36:	c9 f0       	breq	.+50     	; 0x3d6a <update_asset_state+0x84>
    3d38:	8f b7       	in	r24, 0x3f	; 63
    3d3a:	f8 94       	cli
    3d3c:	c0 90 5e 2b 	lds	r12, 0x2B5E
    3d40:	d0 90 5f 2b 	lds	r13, 0x2B5F
    3d44:	e0 90 60 2b 	lds	r14, 0x2B60
    3d48:	f0 90 61 2b 	lds	r15, 0x2B61
    3d4c:	8f bf       	out	0x3f, r24	; 63
    3d4e:	0e 94 b5 0b 	call	0x176a	; 0x176a <epoch_get>
    3d52:	2a e0       	ldi	r18, 0x0A	; 10
    3d54:	c2 0e       	add	r12, r18
    3d56:	d1 1c       	adc	r13, r1
    3d58:	e1 1c       	adc	r14, r1
    3d5a:	f1 1c       	adc	r15, r1
    3d5c:	6c 15       	cp	r22, r12
    3d5e:	7d 05       	cpc	r23, r13
    3d60:	8e 05       	cpc	r24, r14
    3d62:	9f 05       	cpc	r25, r15
    3d64:	10 f0       	brcs	.+4      	; 0x3d6a <update_asset_state+0x84>
    3d66:	10 92 62 2b 	sts	0x2B62, r1
    3d6a:	80 91 62 2b 	lds	r24, 0x2B62
    3d6e:	80 93 2b 2b 	sts	0x2B2B, r24
    3d72:	80 91 5d 2b 	lds	r24, 0x2B5D
    3d76:	88 23       	and	r24, r24
    3d78:	c9 f0       	breq	.+50     	; 0x3dac <update_asset_state+0xc6>
    3d7a:	8f b7       	in	r24, 0x3f	; 63
    3d7c:	f8 94       	cli
    3d7e:	c0 90 59 2b 	lds	r12, 0x2B59
    3d82:	d0 90 5a 2b 	lds	r13, 0x2B5A
    3d86:	e0 90 5b 2b 	lds	r14, 0x2B5B
    3d8a:	f0 90 5c 2b 	lds	r15, 0x2B5C
    3d8e:	8f bf       	out	0x3f, r24	; 63
    3d90:	0e 94 b5 0b 	call	0x176a	; 0x176a <epoch_get>
    3d94:	2a e0       	ldi	r18, 0x0A	; 10
    3d96:	c2 0e       	add	r12, r18
    3d98:	d1 1c       	adc	r13, r1
    3d9a:	e1 1c       	adc	r14, r1
    3d9c:	f1 1c       	adc	r15, r1
    3d9e:	6c 15       	cp	r22, r12
    3da0:	7d 05       	cpc	r23, r13
    3da2:	8e 05       	cpc	r24, r14
    3da4:	9f 05       	cpc	r25, r15
    3da6:	10 f0       	brcs	.+4      	; 0x3dac <update_asset_state+0xc6>
    3da8:	10 92 5d 2b 	sts	0x2B5D, r1
    3dac:	c0 91 5d 2b 	lds	r28, 0x2B5D
    3db0:	c0 93 2c 2b 	sts	0x2B2C, r28
    3db4:	97 fc       	sbrc	r9, 7
    3db6:	08 c0       	rjmp	.+16     	; 0x3dc8 <update_asset_state+0xe2>
    3db8:	e9 2d       	mov	r30, r9
    3dba:	ee 0f       	add	r30, r30
    3dbc:	ff 0b       	sbc	r31, r31
    3dbe:	ec 52       	subi	r30, 0x2C	; 44
    3dc0:	f4 4d       	sbci	r31, 0xD4	; 212
    3dc2:	40 81       	ld	r20, Z
    3dc4:	51 81       	ldd	r21, Z+1	; 0x01
    3dc6:	02 c0       	rjmp	.+4      	; 0x3dcc <update_asset_state+0xe6>
    3dc8:	40 e0       	ldi	r20, 0x00	; 0
    3dca:	50 e8       	ldi	r21, 0x80	; 128
    3dcc:	40 93 1c 2b 	sts	0x2B1C, r20
    3dd0:	50 93 1d 2b 	sts	0x2B1D, r21
    3dd4:	a7 fc       	sbrc	r10, 7
    3dd6:	09 c0       	rjmp	.+18     	; 0x3dea <update_asset_state+0x104>
    3dd8:	ea 2d       	mov	r30, r10
    3dda:	ee 0f       	add	r30, r30
    3ddc:	ff 0b       	sbc	r31, r31
    3dde:	ec 52       	subi	r30, 0x2C	; 44
    3de0:	f4 4d       	sbci	r31, 0xD4	; 212
    3de2:	01 90       	ld	r0, Z+
    3de4:	f0 81       	ld	r31, Z
    3de6:	e0 2d       	mov	r30, r0
    3de8:	02 c0       	rjmp	.+4      	; 0x3dee <update_asset_state+0x108>
    3dea:	e0 e0       	ldi	r30, 0x00	; 0
    3dec:	f0 e8       	ldi	r31, 0x80	; 128
    3dee:	e0 93 1e 2b 	sts	0x2B1E, r30
    3df2:	f0 93 1f 2b 	sts	0x2B1F, r31
    3df6:	b7 fc       	sbrc	r11, 7
    3df8:	08 c0       	rjmp	.+16     	; 0x3e0a <update_asset_state+0x124>
    3dfa:	ab 2d       	mov	r26, r11
    3dfc:	aa 0f       	add	r26, r26
    3dfe:	bb 0b       	sbc	r27, r27
    3e00:	ac 52       	subi	r26, 0x2C	; 44
    3e02:	b4 4d       	sbci	r27, 0xD4	; 212
    3e04:	2d 91       	ld	r18, X+
    3e06:	3c 91       	ld	r19, X
    3e08:	02 c0       	rjmp	.+4      	; 0x3e0e <update_asset_state+0x128>
    3e0a:	20 e0       	ldi	r18, 0x00	; 0
    3e0c:	30 e8       	ldi	r19, 0x80	; 128
    3e0e:	20 93 20 2b 	sts	0x2B20, r18
    3e12:	30 93 21 2b 	sts	0x2B21, r19
    3e16:	41 15       	cp	r20, r1
    3e18:	60 e8       	ldi	r22, 0x80	; 128
    3e1a:	56 07       	cpc	r21, r22
    3e1c:	41 f0       	breq	.+16     	; 0x3e2e <update_asset_state+0x148>
    3e1e:	e1 15       	cp	r30, r1
    3e20:	70 e8       	ldi	r23, 0x80	; 128
    3e22:	f7 07       	cpc	r31, r23
    3e24:	21 f0       	breq	.+8      	; 0x3e2e <update_asset_state+0x148>
    3e26:	21 15       	cp	r18, r1
    3e28:	80 e8       	ldi	r24, 0x80	; 128
    3e2a:	38 07       	cpc	r19, r24
    3e2c:	11 f4       	brne	.+4      	; 0x3e32 <update_asset_state+0x14c>
    3e2e:	82 e0       	ldi	r24, 0x02	; 2
    3e30:	01 c0       	rjmp	.+2      	; 0x3e34 <update_asset_state+0x14e>
    3e32:	81 e0       	ldi	r24, 0x01	; 1
    3e34:	80 93 19 2b 	sts	0x2B19, r24
    3e38:	60 91 af 28 	lds	r22, 0x28AF
    3e3c:	70 91 b0 28 	lds	r23, 0x28B0
    3e40:	80 91 71 2b 	lds	r24, 0x2B71
    3e44:	90 91 72 2b 	lds	r25, 0x2B72
    3e48:	68 17       	cp	r22, r24
    3e4a:	79 07       	cpc	r23, r25
    3e4c:	18 f0       	brcs	.+6      	; 0x3e54 <update_asset_state+0x16e>
    3e4e:	81 e0       	ldi	r24, 0x01	; 1
    3e50:	90 e0       	ldi	r25, 0x00	; 0
    3e52:	ba c0       	rjmp	.+372    	; 0x3fc8 <update_asset_state+0x2e2>
    3e54:	90 91 48 2b 	lds	r25, 0x2B48
    3e58:	80 91 2a 2b 	lds	r24, 0x2B2A
    3e5c:	98 13       	cpse	r25, r24
    3e5e:	f7 cf       	rjmp	.-18     	; 0x3e4e <update_asset_state+0x168>
    3e60:	90 91 49 2b 	lds	r25, 0x2B49
    3e64:	80 91 2b 2b 	lds	r24, 0x2B2B
    3e68:	98 13       	cpse	r25, r24
    3e6a:	f1 cf       	rjmp	.-30     	; 0x3e4e <update_asset_state+0x168>
    3e6c:	80 91 4a 2b 	lds	r24, 0x2B4A
    3e70:	8c 13       	cpse	r24, r28
    3e72:	ed cf       	rjmp	.-38     	; 0x3e4e <update_asset_state+0x168>
    3e74:	41 15       	cp	r20, r1
    3e76:	60 e8       	ldi	r22, 0x80	; 128
    3e78:	56 07       	cpc	r21, r22
    3e7a:	01 f1       	breq	.+64     	; 0x3ebc <update_asset_state+0x1d6>
    3e7c:	80 91 3a 2b 	lds	r24, 0x2B3A
    3e80:	90 91 3b 2b 	lds	r25, 0x2B3B
    3e84:	84 1b       	sub	r24, r20
    3e86:	95 0b       	sbc	r25, r21
    3e88:	aa 27       	eor	r26, r26
    3e8a:	97 fd       	sbrc	r25, 7
    3e8c:	a0 95       	com	r26
    3e8e:	ba 2f       	mov	r27, r26
    3e90:	b7 ff       	sbrs	r27, 7
    3e92:	07 c0       	rjmp	.+14     	; 0x3ea2 <update_asset_state+0x1bc>
    3e94:	b0 95       	com	r27
    3e96:	a0 95       	com	r26
    3e98:	90 95       	com	r25
    3e9a:	81 95       	neg	r24
    3e9c:	9f 4f       	sbci	r25, 0xFF	; 255
    3e9e:	af 4f       	sbci	r26, 0xFF	; 255
    3ea0:	bf 4f       	sbci	r27, 0xFF	; 255
    3ea2:	40 91 8e 2b 	lds	r20, 0x2B8E
    3ea6:	50 91 8f 2b 	lds	r21, 0x2B8F
    3eaa:	66 27       	eor	r22, r22
    3eac:	57 fd       	sbrc	r21, 7
    3eae:	60 95       	com	r22
    3eb0:	76 2f       	mov	r23, r22
    3eb2:	84 17       	cp	r24, r20
    3eb4:	95 07       	cpc	r25, r21
    3eb6:	a6 07       	cpc	r26, r22
    3eb8:	b7 07       	cpc	r27, r23
    3eba:	4c f6       	brge	.-110    	; 0x3e4e <update_asset_state+0x168>
    3ebc:	e1 15       	cp	r30, r1
    3ebe:	70 e8       	ldi	r23, 0x80	; 128
    3ec0:	f7 07       	cpc	r31, r23
    3ec2:	09 f1       	breq	.+66     	; 0x3f06 <update_asset_state+0x220>
    3ec4:	80 91 3c 2b 	lds	r24, 0x2B3C
    3ec8:	90 91 3d 2b 	lds	r25, 0x2B3D
    3ecc:	8e 1b       	sub	r24, r30
    3ece:	9f 0b       	sbc	r25, r31
    3ed0:	aa 27       	eor	r26, r26
    3ed2:	97 fd       	sbrc	r25, 7
    3ed4:	a0 95       	com	r26
    3ed6:	ba 2f       	mov	r27, r26
    3ed8:	b7 ff       	sbrs	r27, 7
    3eda:	07 c0       	rjmp	.+14     	; 0x3eea <update_asset_state+0x204>
    3edc:	b0 95       	com	r27
    3ede:	a0 95       	com	r26
    3ee0:	90 95       	com	r25
    3ee2:	81 95       	neg	r24
    3ee4:	9f 4f       	sbci	r25, 0xFF	; 255
    3ee6:	af 4f       	sbci	r26, 0xFF	; 255
    3ee8:	bf 4f       	sbci	r27, 0xFF	; 255
    3eea:	40 91 8e 2b 	lds	r20, 0x2B8E
    3eee:	50 91 8f 2b 	lds	r21, 0x2B8F
    3ef2:	66 27       	eor	r22, r22
    3ef4:	57 fd       	sbrc	r21, 7
    3ef6:	60 95       	com	r22
    3ef8:	76 2f       	mov	r23, r22
    3efa:	84 17       	cp	r24, r20
    3efc:	95 07       	cpc	r25, r21
    3efe:	a6 07       	cpc	r26, r22
    3f00:	b7 07       	cpc	r27, r23
    3f02:	0c f0       	brlt	.+2      	; 0x3f06 <update_asset_state+0x220>
    3f04:	a4 cf       	rjmp	.-184    	; 0x3e4e <update_asset_state+0x168>
    3f06:	21 15       	cp	r18, r1
    3f08:	80 e8       	ldi	r24, 0x80	; 128
    3f0a:	38 07       	cpc	r19, r24
    3f0c:	09 f1       	breq	.+66     	; 0x3f50 <update_asset_state+0x26a>
    3f0e:	80 91 3e 2b 	lds	r24, 0x2B3E
    3f12:	90 91 3f 2b 	lds	r25, 0x2B3F
    3f16:	82 1b       	sub	r24, r18
    3f18:	93 0b       	sbc	r25, r19
    3f1a:	aa 27       	eor	r26, r26
    3f1c:	97 fd       	sbrc	r25, 7
    3f1e:	a0 95       	com	r26
    3f20:	ba 2f       	mov	r27, r26
    3f22:	b7 ff       	sbrs	r27, 7
    3f24:	07 c0       	rjmp	.+14     	; 0x3f34 <update_asset_state+0x24e>
    3f26:	b0 95       	com	r27
    3f28:	a0 95       	com	r26
    3f2a:	90 95       	com	r25
    3f2c:	81 95       	neg	r24
    3f2e:	9f 4f       	sbci	r25, 0xFF	; 255
    3f30:	af 4f       	sbci	r26, 0xFF	; 255
    3f32:	bf 4f       	sbci	r27, 0xFF	; 255
    3f34:	40 91 8e 2b 	lds	r20, 0x2B8E
    3f38:	50 91 8f 2b 	lds	r21, 0x2B8F
    3f3c:	66 27       	eor	r22, r22
    3f3e:	57 fd       	sbrc	r21, 7
    3f40:	60 95       	com	r22
    3f42:	76 2f       	mov	r23, r22
    3f44:	84 17       	cp	r24, r20
    3f46:	95 07       	cpc	r25, r21
    3f48:	a6 07       	cpc	r26, r22
    3f4a:	b7 07       	cpc	r27, r23
    3f4c:	0c f0       	brlt	.+2      	; 0x3f50 <update_asset_state+0x26a>
    3f4e:	7f cf       	rjmp	.-258    	; 0x3e4e <update_asset_state+0x168>
    3f50:	80 e0       	ldi	r24, 0x00	; 0
    3f52:	4f dc       	rcall	.-1890   	; 0x37f2 <get_current_pulse_counter>
    3f54:	c0 90 40 2b 	lds	r12, 0x2B40
    3f58:	d0 90 41 2b 	lds	r13, 0x2B41
    3f5c:	e0 90 42 2b 	lds	r14, 0x2B42
    3f60:	f0 90 43 2b 	lds	r15, 0x2B43
    3f64:	6c 19       	sub	r22, r12
    3f66:	7d 09       	sbc	r23, r13
    3f68:	8e 09       	sbc	r24, r14
    3f6a:	9f 09       	sbc	r25, r15
    3f6c:	c0 90 94 2b 	lds	r12, 0x2B94
    3f70:	d0 90 95 2b 	lds	r13, 0x2B95
    3f74:	e0 90 96 2b 	lds	r14, 0x2B96
    3f78:	f0 90 97 2b 	lds	r15, 0x2B97
    3f7c:	6c 15       	cp	r22, r12
    3f7e:	7d 05       	cpc	r23, r13
    3f80:	8e 05       	cpc	r24, r14
    3f82:	9f 05       	cpc	r25, r15
    3f84:	08 f0       	brcs	.+2      	; 0x3f88 <update_asset_state+0x2a2>
    3f86:	63 cf       	rjmp	.-314    	; 0x3e4e <update_asset_state+0x168>
    3f88:	81 e0       	ldi	r24, 0x01	; 1
    3f8a:	33 dc       	rcall	.-1946   	; 0x37f2 <get_current_pulse_counter>
    3f8c:	c0 90 44 2b 	lds	r12, 0x2B44
    3f90:	d0 90 45 2b 	lds	r13, 0x2B45
    3f94:	e0 90 46 2b 	lds	r14, 0x2B46
    3f98:	f0 90 47 2b 	lds	r15, 0x2B47
    3f9c:	6c 19       	sub	r22, r12
    3f9e:	7d 09       	sbc	r23, r13
    3fa0:	8e 09       	sbc	r24, r14
    3fa2:	9f 09       	sbc	r25, r15
    3fa4:	21 e0       	ldi	r18, 0x01	; 1
    3fa6:	30 e0       	ldi	r19, 0x00	; 0
    3fa8:	c0 90 90 2b 	lds	r12, 0x2B90
    3fac:	d0 90 91 2b 	lds	r13, 0x2B91
    3fb0:	e0 90 92 2b 	lds	r14, 0x2B92
    3fb4:	f0 90 93 2b 	lds	r15, 0x2B93
    3fb8:	6c 15       	cp	r22, r12
    3fba:	7d 05       	cpc	r23, r13
    3fbc:	8e 05       	cpc	r24, r14
    3fbe:	9f 05       	cpc	r25, r15
    3fc0:	10 f4       	brcc	.+4      	; 0x3fc6 <update_asset_state+0x2e0>
    3fc2:	20 e0       	ldi	r18, 0x00	; 0
    3fc4:	30 e0       	ldi	r19, 0x00	; 0
    3fc6:	c9 01       	movw	r24, r18
    3fc8:	80 ff       	sbrs	r24, 0
    3fca:	3c c0       	rjmp	.+120    	; 0x4044 <update_asset_state+0x35e>
    3fcc:	20 91 14 2b 	lds	r18, 0x2B14
    3fd0:	30 e0       	ldi	r19, 0x00	; 0
    3fd2:	c9 01       	movw	r24, r18
    3fd4:	01 96       	adiw	r24, 0x01	; 1
    3fd6:	8f 70       	andi	r24, 0x0F	; 15
    3fd8:	99 27       	eor	r25, r25
    3fda:	f8 2e       	mov	r15, r24
    3fdc:	40 91 13 2b 	lds	r20, 0x2B13
    3fe0:	84 13       	cpse	r24, r20
    3fe2:	05 c0       	rjmp	.+10     	; 0x3fee <update_asset_state+0x308>
    3fe4:	01 96       	adiw	r24, 0x01	; 1
    3fe6:	8f 70       	andi	r24, 0x0F	; 15
    3fe8:	99 27       	eor	r25, r25
    3fea:	80 93 13 2b 	sts	0x2B13, r24
    3fee:	10 92 af 28 	sts	0x28AF, r1
    3ff2:	10 92 b0 28 	sts	0x28B0, r1
    3ff6:	1e e1       	ldi	r17, 0x1E	; 30
    3ff8:	12 9f       	mul	r17, r18
    3ffa:	e0 01       	movw	r28, r0
    3ffc:	13 9f       	mul	r17, r19
    3ffe:	d0 0d       	add	r29, r0
    4000:	11 24       	eor	r1, r1
    4002:	de 01       	movw	r26, r28
    4004:	ad 5c       	subi	r26, 0xCD	; 205
    4006:	b6 4d       	sbci	r27, 0xD6	; 214
    4008:	e5 e1       	ldi	r30, 0x15	; 21
    400a:	fb e2       	ldi	r31, 0x2B	; 43
    400c:	81 2f       	mov	r24, r17
    400e:	01 90       	ld	r0, Z+
    4010:	0d 92       	st	X+, r0
    4012:	8a 95       	dec	r24
    4014:	e1 f7       	brne	.-8      	; 0x400e <update_asset_state+0x328>
    4016:	0e 94 b5 0b 	call	0x176a	; 0x176a <epoch_get>
    401a:	cd 5c       	subi	r28, 0xCD	; 205
    401c:	d6 4d       	sbci	r29, 0xD6	; 214
    401e:	68 83       	st	Y, r22
    4020:	79 83       	std	Y+1, r23	; 0x01
    4022:	8a 83       	std	Y+2, r24	; 0x02
    4024:	9b 83       	std	Y+3, r25	; 0x03
    4026:	e0 91 14 2b 	lds	r30, 0x2B14
    402a:	1e 9f       	mul	r17, r30
    402c:	f0 01       	movw	r30, r0
    402e:	11 24       	eor	r1, r1
    4030:	ed 5c       	subi	r30, 0xCD	; 205
    4032:	f6 4d       	sbci	r31, 0xD6	; 214
    4034:	a3 e3       	ldi	r26, 0x33	; 51
    4036:	bb e2       	ldi	r27, 0x2B	; 43
    4038:	01 90       	ld	r0, Z+
    403a:	0d 92       	st	X+, r0
    403c:	1a 95       	dec	r17
    403e:	e1 f7       	brne	.-8      	; 0x4038 <update_asset_state+0x352>
    4040:	f0 92 14 2b 	sts	0x2B14, r15
    4044:	40 91 1c 2b 	lds	r20, 0x2B1C
    4048:	50 91 1d 2b 	lds	r21, 0x2B1D
    404c:	41 15       	cp	r20, r1
    404e:	20 e8       	ldi	r18, 0x80	; 128
    4050:	52 07       	cpc	r21, r18
    4052:	09 f4       	brne	.+2      	; 0x4056 <update_asset_state+0x370>
    4054:	48 c0       	rjmp	.+144    	; 0x40e6 <update_asset_state+0x400>
    4056:	80 91 aa 2b 	lds	r24, 0x2BAA
    405a:	90 91 ab 2b 	lds	r25, 0x2BAB
    405e:	60 91 1a 2b 	lds	r22, 0x2B1A
    4062:	70 91 1b 2b 	lds	r23, 0x2B1B
    4066:	48 17       	cp	r20, r24
    4068:	59 07       	cpc	r21, r25
    406a:	84 f0       	brlt	.+32     	; 0x408c <update_asset_state+0x3a6>
    406c:	62 30       	cpi	r22, 0x02	; 2
    406e:	71 05       	cpc	r23, r1
    4070:	69 f0       	breq	.+26     	; 0x408c <update_asset_state+0x3a6>
    4072:	80 91 a8 2b 	lds	r24, 0x2BA8
    4076:	88 23       	and	r24, r24
    4078:	31 f0       	breq	.+12     	; 0x4086 <update_asset_state+0x3a0>
    407a:	66 27       	eor	r22, r22
    407c:	57 fd       	sbrc	r21, 7
    407e:	60 95       	com	r22
    4080:	76 2f       	mov	r23, r22
    4082:	84 e6       	ldi	r24, 0x64	; 100
    4084:	76 dc       	rcall	.-1812   	; 0x3972 <buffer_event>
    4086:	82 e0       	ldi	r24, 0x02	; 2
    4088:	90 e0       	ldi	r25, 0x00	; 0
    408a:	29 c0       	rjmp	.+82     	; 0x40de <update_asset_state+0x3f8>
    408c:	20 91 ac 2b 	lds	r18, 0x2BAC
    4090:	30 91 ad 2b 	lds	r19, 0x2BAD
    4094:	24 17       	cp	r18, r20
    4096:	35 07       	cpc	r19, r21
    4098:	84 f0       	brlt	.+32     	; 0x40ba <update_asset_state+0x3d4>
    409a:	63 30       	cpi	r22, 0x03	; 3
    409c:	71 05       	cpc	r23, r1
    409e:	69 f0       	breq	.+26     	; 0x40ba <update_asset_state+0x3d4>
    40a0:	80 91 a9 2b 	lds	r24, 0x2BA9
    40a4:	88 23       	and	r24, r24
    40a6:	31 f0       	breq	.+12     	; 0x40b4 <update_asset_state+0x3ce>
    40a8:	66 27       	eor	r22, r22
    40aa:	57 fd       	sbrc	r21, 7
    40ac:	60 95       	com	r22
    40ae:	76 2f       	mov	r23, r22
    40b0:	85 e6       	ldi	r24, 0x65	; 101
    40b2:	5f dc       	rcall	.-1858   	; 0x3972 <buffer_event>
    40b4:	83 e0       	ldi	r24, 0x03	; 3
    40b6:	90 e0       	ldi	r25, 0x00	; 0
    40b8:	12 c0       	rjmp	.+36     	; 0x40de <update_asset_state+0x3f8>
    40ba:	60 91 1a 2b 	lds	r22, 0x2B1A
    40be:	70 91 1b 2b 	lds	r23, 0x2B1B
    40c2:	61 30       	cpi	r22, 0x01	; 1
    40c4:	71 05       	cpc	r23, r1
    40c6:	79 f0       	breq	.+30     	; 0x40e6 <update_asset_state+0x400>
    40c8:	20 5f       	subi	r18, 0xF0	; 240
    40ca:	3f 4f       	sbci	r19, 0xFF	; 255
    40cc:	24 17       	cp	r18, r20
    40ce:	35 07       	cpc	r19, r21
    40d0:	54 f4       	brge	.+20     	; 0x40e6 <update_asset_state+0x400>
    40d2:	40 97       	sbiw	r24, 0x10	; 16
    40d4:	48 17       	cp	r20, r24
    40d6:	59 07       	cpc	r21, r25
    40d8:	34 f4       	brge	.+12     	; 0x40e6 <update_asset_state+0x400>
    40da:	81 e0       	ldi	r24, 0x01	; 1
    40dc:	90 e0       	ldi	r25, 0x00	; 0
    40de:	80 93 1a 2b 	sts	0x2B1A, r24
    40e2:	90 93 1b 2b 	sts	0x2B1B, r25
    40e6:	0e 94 b5 0b 	call	0x176a	; 0x176a <epoch_get>
    40ea:	60 5e       	subi	r22, 0xE0	; 224
    40ec:	73 4e       	sbci	r23, 0xE3	; 227
    40ee:	8f 4f       	sbci	r24, 0xFF	; 255
    40f0:	9f 4f       	sbci	r25, 0xFF	; 255
    40f2:	20 e8       	ldi	r18, 0x80	; 128
    40f4:	31 e5       	ldi	r19, 0x51	; 81
    40f6:	41 e0       	ldi	r20, 0x01	; 1
    40f8:	50 e0       	ldi	r21, 0x00	; 0
    40fa:	0e 94 d3 30 	call	0x61a6	; 0x61a6 <__udivmodsi4>
    40fe:	49 01       	movw	r8, r18
    4100:	5a 01       	movw	r10, r20
    4102:	24 e8       	ldi	r18, 0x84	; 132
    4104:	33 e0       	ldi	r19, 0x03	; 3
    4106:	40 e0       	ldi	r20, 0x00	; 0
    4108:	50 e0       	ldi	r21, 0x00	; 0
    410a:	0e 94 d3 30 	call	0x61a6	; 0x61a6 <__udivmodsi4>
    410e:	c2 2f       	mov	r28, r18
    4110:	c2 95       	swap	r28
    4112:	c6 95       	lsr	r28
    4114:	c7 70       	andi	r28, 0x07	; 7
    4116:	2f 71       	andi	r18, 0x1F	; 31
    4118:	c1 2c       	mov	r12, r1
    411a:	d1 2c       	mov	r13, r1
    411c:	76 01       	movw	r14, r12
    411e:	c3 94       	inc	r12
    4120:	04 c0       	rjmp	.+8      	; 0x412a <update_asset_state+0x444>
    4122:	cc 0c       	add	r12, r12
    4124:	dd 1c       	adc	r13, r13
    4126:	ee 1c       	adc	r14, r14
    4128:	ff 1c       	adc	r15, r15
    412a:	2a 95       	dec	r18
    412c:	d2 f7       	brpl	.-12     	; 0x4122 <update_asset_state+0x43c>
    412e:	c5 01       	movw	r24, r10
    4130:	b4 01       	movw	r22, r8
    4132:	6d 5f       	subi	r22, 0xFD	; 253
    4134:	7f 4f       	sbci	r23, 0xFF	; 255
    4136:	8f 4f       	sbci	r24, 0xFF	; 255
    4138:	9f 4f       	sbci	r25, 0xFF	; 255
    413a:	27 e0       	ldi	r18, 0x07	; 7
    413c:	30 e0       	ldi	r19, 0x00	; 0
    413e:	40 e0       	ldi	r20, 0x00	; 0
    4140:	50 e0       	ldi	r21, 0x00	; 0
    4142:	0e 94 d3 30 	call	0x61a6	; 0x61a6 <__udivmodsi4>
    4146:	d0 e0       	ldi	r29, 0x00	; 0
    4148:	cc 0f       	add	r28, r28
    414a:	dd 1f       	adc	r29, r29
    414c:	cc 0f       	add	r28, r28
    414e:	dd 1f       	adc	r29, r29
    4150:	65 30       	cpi	r22, 0x05	; 5
    4152:	71 05       	cpc	r23, r1
    4154:	81 05       	cpc	r24, r1
    4156:	91 05       	cpc	r25, r1
    4158:	18 f4       	brcc	.+6      	; 0x4160 <update_asset_state+0x47a>
    415a:	c6 54       	subi	r28, 0x46	; 70
    415c:	d4 4d       	sbci	r29, 0xD4	; 212
    415e:	02 c0       	rjmp	.+4      	; 0x4164 <update_asset_state+0x47e>
    4160:	ca 53       	subi	r28, 0x3A	; 58
    4162:	d4 4d       	sbci	r29, 0xD4	; 212
    4164:	88 81       	ld	r24, Y
    4166:	99 81       	ldd	r25, Y+1	; 0x01
    4168:	aa 81       	ldd	r26, Y+2	; 0x02
    416a:	bb 81       	ldd	r27, Y+3	; 0x03
    416c:	c8 22       	and	r12, r24
    416e:	d9 22       	and	r13, r25
    4170:	ea 22       	and	r14, r26
    4172:	fb 22       	and	r15, r27
    4174:	cd 28       	or	r12, r13
    4176:	ce 28       	or	r12, r14
    4178:	cf 28       	or	r12, r15
    417a:	81 f0       	breq	.+32     	; 0x419c <update_asset_state+0x4b6>
    417c:	80 91 2c 2b 	lds	r24, 0x2B2C
    4180:	88 23       	and	r24, r24
    4182:	71 f0       	breq	.+28     	; 0x41a0 <update_asset_state+0x4ba>
    4184:	80 91 2d 2b 	lds	r24, 0x2B2D
    4188:	81 11       	cpse	r24, r1
    418a:	0a c0       	rjmp	.+20     	; 0x41a0 <update_asset_state+0x4ba>
    418c:	81 e0       	ldi	r24, 0x01	; 1
    418e:	80 93 2d 2b 	sts	0x2B2D, r24
    4192:	60 e0       	ldi	r22, 0x00	; 0
    4194:	70 e0       	ldi	r23, 0x00	; 0
    4196:	88 e7       	ldi	r24, 0x78	; 120
    4198:	bc db       	rcall	.-2184   	; 0x3912 <buffer_str_event>
    419a:	02 c0       	rjmp	.+4      	; 0x41a0 <update_asset_state+0x4ba>
    419c:	10 92 2d 2b 	sts	0x2B2D, r1
    41a0:	80 91 68 06 	lds	r24, 0x0668
    41a4:	83 ff       	sbrs	r24, 3
    41a6:	03 c0       	rjmp	.+6      	; 0x41ae <update_asset_state+0x4c8>
    41a8:	10 92 2e 2b 	sts	0x2B2E, r1
    41ac:	20 c0       	rjmp	.+64     	; 0x41ee <update_asset_state+0x508>
    41ae:	40 91 2f 2b 	lds	r20, 0x2B2F
    41b2:	50 91 30 2b 	lds	r21, 0x2B30
    41b6:	60 91 31 2b 	lds	r22, 0x2B31
    41ba:	70 91 32 2b 	lds	r23, 0x2B32
    41be:	80 91 22 2b 	lds	r24, 0x2B22
    41c2:	90 91 23 2b 	lds	r25, 0x2B23
    41c6:	a0 91 24 2b 	lds	r26, 0x2B24
    41ca:	b0 91 25 2b 	lds	r27, 0x2B25
    41ce:	48 17       	cp	r20, r24
    41d0:	59 07       	cpc	r21, r25
    41d2:	6a 07       	cpc	r22, r26
    41d4:	7b 07       	cpc	r23, r27
    41d6:	59 f0       	breq	.+22     	; 0x41ee <update_asset_state+0x508>
    41d8:	80 91 2e 2b 	lds	r24, 0x2B2E
    41dc:	81 11       	cpse	r24, r1
    41de:	07 c0       	rjmp	.+14     	; 0x41ee <update_asset_state+0x508>
    41e0:	60 e0       	ldi	r22, 0x00	; 0
    41e2:	70 e0       	ldi	r23, 0x00	; 0
    41e4:	82 e8       	ldi	r24, 0x82	; 130
    41e6:	95 db       	rcall	.-2262   	; 0x3912 <buffer_str_event>
    41e8:	81 e0       	ldi	r24, 0x01	; 1
    41ea:	80 93 2e 2b 	sts	0x2B2E, r24
    41ee:	80 91 a6 2b 	lds	r24, 0x2BA6
    41f2:	90 91 a7 2b 	lds	r25, 0x2BA7
    41f6:	81 30       	cpi	r24, 0x01	; 1
    41f8:	91 05       	cpc	r25, r1
    41fa:	29 f0       	breq	.+10     	; 0x4206 <update_asset_state+0x520>
    41fc:	80 f0       	brcs	.+32     	; 0x421e <update_asset_state+0x538>
    41fe:	02 97       	sbiw	r24, 0x02	; 2
    4200:	09 f0       	breq	.+2      	; 0x4204 <update_asset_state+0x51e>
    4202:	83 c0       	rjmp	.+262    	; 0x430a <update_asset_state+0x624>
    4204:	18 c0       	rjmp	.+48     	; 0x4236 <update_asset_state+0x550>
    4206:	20 91 1c 2b 	lds	r18, 0x2B1C
    420a:	30 91 1d 2b 	lds	r19, 0x2B1D
    420e:	80 91 aa 2b 	lds	r24, 0x2BAA
    4212:	90 91 ab 2b 	lds	r25, 0x2BAB
    4216:	28 17       	cp	r18, r24
    4218:	39 07       	cpc	r19, r25
    421a:	0c f4       	brge	.+2      	; 0x421e <update_asset_state+0x538>
    421c:	6e c0       	rjmp	.+220    	; 0x42fa <update_asset_state+0x614>
    421e:	df 91       	pop	r29
    4220:	cf 91       	pop	r28
    4222:	1f 91       	pop	r17
    4224:	ff 90       	pop	r15
    4226:	ef 90       	pop	r14
    4228:	df 90       	pop	r13
    422a:	cf 90       	pop	r12
    422c:	bf 90       	pop	r11
    422e:	af 90       	pop	r10
    4230:	9f 90       	pop	r9
    4232:	8f 90       	pop	r8
    4234:	1e cc       	rjmp	.-1988   	; 0x3a72 <geyser_set_power_off>
    4236:	0e 94 b5 0b 	call	0x176a	; 0x176a <epoch_get>
    423a:	60 5e       	subi	r22, 0xE0	; 224
    423c:	73 4e       	sbci	r23, 0xE3	; 227
    423e:	8f 4f       	sbci	r24, 0xFF	; 255
    4240:	9f 4f       	sbci	r25, 0xFF	; 255
    4242:	20 e8       	ldi	r18, 0x80	; 128
    4244:	31 e5       	ldi	r19, 0x51	; 81
    4246:	41 e0       	ldi	r20, 0x01	; 1
    4248:	50 e0       	ldi	r21, 0x00	; 0
    424a:	0e 94 d3 30 	call	0x61a6	; 0x61a6 <__udivmodsi4>
    424e:	49 01       	movw	r8, r18
    4250:	5a 01       	movw	r10, r20
    4252:	24 e8       	ldi	r18, 0x84	; 132
    4254:	33 e0       	ldi	r19, 0x03	; 3
    4256:	40 e0       	ldi	r20, 0x00	; 0
    4258:	50 e0       	ldi	r21, 0x00	; 0
    425a:	0e 94 d3 30 	call	0x61a6	; 0x61a6 <__udivmodsi4>
    425e:	c2 2f       	mov	r28, r18
    4260:	c2 95       	swap	r28
    4262:	c6 95       	lsr	r28
    4264:	c7 70       	andi	r28, 0x07	; 7
    4266:	2f 71       	andi	r18, 0x1F	; 31
    4268:	c1 2c       	mov	r12, r1
    426a:	d1 2c       	mov	r13, r1
    426c:	76 01       	movw	r14, r12
    426e:	c3 94       	inc	r12
    4270:	04 c0       	rjmp	.+8      	; 0x427a <update_asset_state+0x594>
    4272:	cc 0c       	add	r12, r12
    4274:	dd 1c       	adc	r13, r13
    4276:	ee 1c       	adc	r14, r14
    4278:	ff 1c       	adc	r15, r15
    427a:	2a 95       	dec	r18
    427c:	d2 f7       	brpl	.-12     	; 0x4272 <update_asset_state+0x58c>
    427e:	c5 01       	movw	r24, r10
    4280:	b4 01       	movw	r22, r8
    4282:	6d 5f       	subi	r22, 0xFD	; 253
    4284:	7f 4f       	sbci	r23, 0xFF	; 255
    4286:	8f 4f       	sbci	r24, 0xFF	; 255
    4288:	9f 4f       	sbci	r25, 0xFF	; 255
    428a:	27 e0       	ldi	r18, 0x07	; 7
    428c:	30 e0       	ldi	r19, 0x00	; 0
    428e:	40 e0       	ldi	r20, 0x00	; 0
    4290:	50 e0       	ldi	r21, 0x00	; 0
    4292:	0e 94 d3 30 	call	0x61a6	; 0x61a6 <__udivmodsi4>
    4296:	d0 e0       	ldi	r29, 0x00	; 0
    4298:	cc 0f       	add	r28, r28
    429a:	dd 1f       	adc	r29, r29
    429c:	cc 0f       	add	r28, r28
    429e:	dd 1f       	adc	r29, r29
    42a0:	65 30       	cpi	r22, 0x05	; 5
    42a2:	71 05       	cpc	r23, r1
    42a4:	81 05       	cpc	r24, r1
    42a6:	91 05       	cpc	r25, r1
    42a8:	18 f4       	brcc	.+6      	; 0x42b0 <update_asset_state+0x5ca>
    42aa:	c8 56       	subi	r28, 0x68	; 104
    42ac:	d4 4d       	sbci	r29, 0xD4	; 212
    42ae:	02 c0       	rjmp	.+4      	; 0x42b4 <update_asset_state+0x5ce>
    42b0:	c2 55       	subi	r28, 0x52	; 82
    42b2:	d4 4d       	sbci	r29, 0xD4	; 212
    42b4:	88 81       	ld	r24, Y
    42b6:	99 81       	ldd	r25, Y+1	; 0x01
    42b8:	aa 81       	ldd	r26, Y+2	; 0x02
    42ba:	bb 81       	ldd	r27, Y+3	; 0x03
    42bc:	c8 22       	and	r12, r24
    42be:	d9 22       	and	r13, r25
    42c0:	ea 22       	and	r14, r26
    42c2:	fb 22       	and	r15, r27
    42c4:	cd 28       	or	r12, r13
    42c6:	ce 28       	or	r12, r14
    42c8:	cf 28       	or	r12, r15
    42ca:	09 f4       	brne	.+2      	; 0x42ce <update_asset_state+0x5e8>
    42cc:	a8 cf       	rjmp	.-176    	; 0x421e <update_asset_state+0x538>
    42ce:	80 91 1c 2b 	lds	r24, 0x2B1C
    42d2:	90 91 1d 2b 	lds	r25, 0x2B1D
    42d6:	20 91 a4 2b 	lds	r18, 0x2BA4
    42da:	30 91 a5 2b 	lds	r19, 0x2BA5
    42de:	40 91 8e 2b 	lds	r20, 0x2B8E
    42e2:	50 91 8f 2b 	lds	r21, 0x2B8F
    42e6:	b9 01       	movw	r22, r18
    42e8:	64 1b       	sub	r22, r20
    42ea:	75 0b       	sbc	r23, r21
    42ec:	68 17       	cp	r22, r24
    42ee:	79 07       	cpc	r23, r25
    42f0:	44 f0       	brlt	.+16     	; 0x4302 <update_asset_state+0x61c>
    42f2:	81 15       	cp	r24, r1
    42f4:	90 48       	sbci	r25, 0x80	; 128
    42f6:	09 f4       	brne	.+2      	; 0x42fa <update_asset_state+0x614>
    42f8:	92 cf       	rjmp	.-220    	; 0x421e <update_asset_state+0x538>
    42fa:	88 e0       	ldi	r24, 0x08	; 8
    42fc:	80 93 65 06 	sts	0x0665, r24
    4300:	04 c0       	rjmp	.+8      	; 0x430a <update_asset_state+0x624>
    4302:	82 17       	cp	r24, r18
    4304:	93 07       	cpc	r25, r19
    4306:	0c f0       	brlt	.+2      	; 0x430a <update_asset_state+0x624>
    4308:	8a cf       	rjmp	.-236    	; 0x421e <update_asset_state+0x538>
    430a:	df 91       	pop	r29
    430c:	cf 91       	pop	r28
    430e:	1f 91       	pop	r17
    4310:	ff 90       	pop	r15
    4312:	ef 90       	pop	r14
    4314:	df 90       	pop	r13
    4316:	cf 90       	pop	r12
    4318:	bf 90       	pop	r11
    431a:	af 90       	pop	r10
    431c:	9f 90       	pop	r9
    431e:	8f 90       	pop	r8
    4320:	08 95       	ret

00004322 <eeprom_write_config>:
    4322:	85 e7       	ldi	r24, 0x75	; 117
    4324:	93 e2       	ldi	r25, 0x23	; 35
    4326:	0e 94 93 10 	call	0x2126	; 0x2126 <DEBUG_putcrlf>
    432a:	83 e0       	ldi	r24, 0x03	; 3
    432c:	80 93 70 2b 	sts	0x2B70, r24
    4330:	62 e6       	ldi	r22, 0x62	; 98
    4332:	80 e7       	ldi	r24, 0x70	; 112
    4334:	9b e2       	ldi	r25, 0x2B	; 43
    4336:	0e 94 7a 0a 	call	0x14f4	; 0x14f4 <crc8_compute>
    433a:	80 93 d2 2b 	sts	0x2BD2, r24
    433e:	f8 94       	cli
    4340:	43 e6       	ldi	r20, 0x63	; 99
    4342:	50 e0       	ldi	r21, 0x00	; 0
    4344:	60 e7       	ldi	r22, 0x70	; 112
    4346:	7b e2       	ldi	r23, 0x2B	; 43
    4348:	80 e6       	ldi	r24, 0x60	; 96
    434a:	90 e0       	ldi	r25, 0x00	; 0
    434c:	0e 94 87 12 	call	0x250e	; 0x250e <nvm_eeprom_erase_and_write_buffer>
    4350:	80 91 cf 01 	lds	r24, 0x01CF
    4354:	87 fd       	sbrc	r24, 7
    4356:	fc cf       	rjmp	.-8      	; 0x4350 <eeprom_write_config+0x2e>
    4358:	78 94       	sei
    435a:	08 95       	ret

0000435c <data_handler>:
    435c:	3f 92       	push	r3
    435e:	4f 92       	push	r4
    4360:	5f 92       	push	r5
    4362:	6f 92       	push	r6
    4364:	7f 92       	push	r7
    4366:	8f 92       	push	r8
    4368:	9f 92       	push	r9
    436a:	af 92       	push	r10
    436c:	bf 92       	push	r11
    436e:	cf 92       	push	r12
    4370:	df 92       	push	r13
    4372:	ef 92       	push	r14
    4374:	ff 92       	push	r15
    4376:	0f 93       	push	r16
    4378:	1f 93       	push	r17
    437a:	cf 93       	push	r28
    437c:	df 93       	push	r29
    437e:	2b 01       	movw	r4, r22
    4380:	3c 01       	movw	r6, r24
    4382:	7a 01       	movw	r14, r20
    4384:	32 2e       	mov	r3, r18
    4386:	e8 01       	movw	r28, r16
    4388:	61 ef       	ldi	r22, 0xF1	; 241
    438a:	71 e2       	ldi	r23, 0x21	; 33
    438c:	ca 01       	movw	r24, r20
    438e:	0e 94 45 32 	call	0x648a	; 0x648a <strcmp>
    4392:	00 97       	sbiw	r24, 0x00	; 0
    4394:	09 f0       	breq	.+2      	; 0x4398 <data_handler+0x3c>
    4396:	83 c3       	rjmp	.+1798   	; 0x4a9e <data_handler+0x742>
    4398:	81 e0       	ldi	r24, 0x01	; 1
    439a:	80 93 aa 28 	sts	0x28AA, r24
    439e:	80 93 ab 28 	sts	0x28AB, r24
    43a2:	91 2c       	mov	r9, r1
    43a4:	81 2c       	mov	r8, r1
    43a6:	f8 e0       	ldi	r31, 0x08	; 8
    43a8:	cf 2e       	mov	r12, r31
    43aa:	f7 e0       	ldi	r31, 0x07	; 7
    43ac:	df 2e       	mov	r13, r31
    43ae:	ac e3       	ldi	r26, 0x3C	; 60
    43b0:	aa 2e       	mov	r10, r26
    43b2:	b1 2c       	mov	r11, r1
    43b4:	57 c3       	rjmp	.+1710   	; 0x4a64 <data_handler+0x708>
    43b6:	08 81       	ld	r16, Y
    43b8:	19 81       	ldd	r17, Y+1	; 0x01
    43ba:	60 e0       	ldi	r22, 0x00	; 0
    43bc:	72 e2       	ldi	r23, 0x22	; 34
    43be:	c8 01       	movw	r24, r16
    43c0:	0e 94 45 32 	call	0x648a	; 0x648a <strcmp>
    43c4:	00 97       	sbiw	r24, 0x00	; 0
    43c6:	69 f5       	brne	.+90     	; 0x4422 <data_handler+0xc6>
    43c8:	8a 81       	ldd	r24, Y+2	; 0x02
    43ca:	9b 81       	ldd	r25, Y+3	; 0x03
    43cc:	89 2b       	or	r24, r25
    43ce:	49 f5       	brne	.+82     	; 0x4422 <data_handler+0xc6>
    43d0:	4c 81       	ldd	r20, Y+4	; 0x04
    43d2:	5d 81       	ldd	r21, Y+5	; 0x05
    43d4:	6e 81       	ldd	r22, Y+6	; 0x06
    43d6:	7f 81       	ldd	r23, Y+7	; 0x07
    43d8:	80 91 71 2b 	lds	r24, 0x2B71
    43dc:	90 91 72 2b 	lds	r25, 0x2B72
    43e0:	a0 e0       	ldi	r26, 0x00	; 0
    43e2:	b0 e0       	ldi	r27, 0x00	; 0
    43e4:	84 17       	cp	r24, r20
    43e6:	95 07       	cpc	r25, r21
    43e8:	a6 07       	cpc	r26, r22
    43ea:	b7 07       	cpc	r27, r23
    43ec:	09 f4       	brne	.+2      	; 0x43f0 <data_handler+0x94>
    43ee:	35 c3       	rjmp	.+1642   	; 0x4a5a <data_handler+0x6fe>
    43f0:	4c 33       	cpi	r20, 0x3C	; 60
    43f2:	51 05       	cpc	r21, r1
    43f4:	28 f4       	brcc	.+10     	; 0x4400 <data_handler+0xa4>
    43f6:	a0 92 71 2b 	sts	0x2B71, r10
    43fa:	b0 92 72 2b 	sts	0x2B72, r11
    43fe:	08 c0       	rjmp	.+16     	; 0x4410 <data_handler+0xb4>
    4400:	48 30       	cpi	r20, 0x08	; 8
    4402:	27 e0       	ldi	r18, 0x07	; 7
    4404:	52 07       	cpc	r21, r18
    4406:	40 f4       	brcc	.+16     	; 0x4418 <data_handler+0xbc>
    4408:	40 93 71 2b 	sts	0x2B71, r20
    440c:	50 93 72 2b 	sts	0x2B72, r21
    4410:	81 e0       	ldi	r24, 0x01	; 1
    4412:	99 24       	eor	r9, r9
    4414:	93 94       	inc	r9
    4416:	22 c3       	rjmp	.+1604   	; 0x4a5c <data_handler+0x700>
    4418:	c0 92 71 2b 	sts	0x2B71, r12
    441c:	d0 92 72 2b 	sts	0x2B72, r13
    4420:	f7 cf       	rjmp	.-18     	; 0x4410 <data_handler+0xb4>
    4422:	64 e0       	ldi	r22, 0x04	; 4
    4424:	72 e2       	ldi	r23, 0x22	; 34
    4426:	c8 01       	movw	r24, r16
    4428:	0e 94 45 32 	call	0x648a	; 0x648a <strcmp>
    442c:	00 97       	sbiw	r24, 0x00	; 0
    442e:	49 f5       	brne	.+82     	; 0x4482 <data_handler+0x126>
    4430:	8a 81       	ldd	r24, Y+2	; 0x02
    4432:	9b 81       	ldd	r25, Y+3	; 0x03
    4434:	89 2b       	or	r24, r25
    4436:	29 f5       	brne	.+74     	; 0x4482 <data_handler+0x126>
    4438:	4c 81       	ldd	r20, Y+4	; 0x04
    443a:	5d 81       	ldd	r21, Y+5	; 0x05
    443c:	6e 81       	ldd	r22, Y+6	; 0x06
    443e:	7f 81       	ldd	r23, Y+7	; 0x07
    4440:	80 91 8e 2b 	lds	r24, 0x2B8E
    4444:	90 91 8f 2b 	lds	r25, 0x2B8F
    4448:	aa 27       	eor	r26, r26
    444a:	97 fd       	sbrc	r25, 7
    444c:	a0 95       	com	r26
    444e:	ba 2f       	mov	r27, r26
    4450:	8a 01       	movw	r16, r20
    4452:	9b 01       	movw	r18, r22
    4454:	e4 e0       	ldi	r30, 0x04	; 4
    4456:	00 0f       	add	r16, r16
    4458:	11 1f       	adc	r17, r17
    445a:	22 1f       	adc	r18, r18
    445c:	33 1f       	adc	r19, r19
    445e:	ea 95       	dec	r30
    4460:	d1 f7       	brne	.-12     	; 0x4456 <data_handler+0xfa>
    4462:	80 17       	cp	r24, r16
    4464:	91 07       	cpc	r25, r17
    4466:	a2 07       	cpc	r26, r18
    4468:	b3 07       	cpc	r27, r19
    446a:	09 f4       	brne	.+2      	; 0x446e <data_handler+0x112>
    446c:	f6 c2       	rjmp	.+1516   	; 0x4a5a <data_handler+0x6fe>
    446e:	74 e0       	ldi	r23, 0x04	; 4
    4470:	44 0f       	add	r20, r20
    4472:	55 1f       	adc	r21, r21
    4474:	7a 95       	dec	r23
    4476:	e1 f7       	brne	.-8      	; 0x4470 <data_handler+0x114>
    4478:	40 93 8e 2b 	sts	0x2B8E, r20
    447c:	50 93 8f 2b 	sts	0x2B8F, r21
    4480:	c7 cf       	rjmp	.-114    	; 0x4410 <data_handler+0xb4>
    4482:	6c e0       	ldi	r22, 0x0C	; 12
    4484:	72 e2       	ldi	r23, 0x22	; 34
    4486:	c8 01       	movw	r24, r16
    4488:	0e 94 45 32 	call	0x648a	; 0x648a <strcmp>
    448c:	00 97       	sbiw	r24, 0x00	; 0
    448e:	f9 f4       	brne	.+62     	; 0x44ce <data_handler+0x172>
    4490:	8a 81       	ldd	r24, Y+2	; 0x02
    4492:	9b 81       	ldd	r25, Y+3	; 0x03
    4494:	89 2b       	or	r24, r25
    4496:	d9 f4       	brne	.+54     	; 0x44ce <data_handler+0x172>
    4498:	8c 81       	ldd	r24, Y+4	; 0x04
    449a:	9d 81       	ldd	r25, Y+5	; 0x05
    449c:	ae 81       	ldd	r26, Y+6	; 0x06
    449e:	bf 81       	ldd	r27, Y+7	; 0x07
    44a0:	40 91 94 2b 	lds	r20, 0x2B94
    44a4:	50 91 95 2b 	lds	r21, 0x2B95
    44a8:	60 91 96 2b 	lds	r22, 0x2B96
    44ac:	70 91 97 2b 	lds	r23, 0x2B97
    44b0:	48 17       	cp	r20, r24
    44b2:	59 07       	cpc	r21, r25
    44b4:	6a 07       	cpc	r22, r26
    44b6:	7b 07       	cpc	r23, r27
    44b8:	09 f4       	brne	.+2      	; 0x44bc <data_handler+0x160>
    44ba:	cf c2       	rjmp	.+1438   	; 0x4a5a <data_handler+0x6fe>
    44bc:	80 93 94 2b 	sts	0x2B94, r24
    44c0:	90 93 95 2b 	sts	0x2B95, r25
    44c4:	a0 93 96 2b 	sts	0x2B96, r26
    44c8:	b0 93 97 2b 	sts	0x2B97, r27
    44cc:	a1 cf       	rjmp	.-190    	; 0x4410 <data_handler+0xb4>
    44ce:	61 e1       	ldi	r22, 0x11	; 17
    44d0:	72 e2       	ldi	r23, 0x22	; 34
    44d2:	c8 01       	movw	r24, r16
    44d4:	0e 94 45 32 	call	0x648a	; 0x648a <strcmp>
    44d8:	00 97       	sbiw	r24, 0x00	; 0
    44da:	f9 f4       	brne	.+62     	; 0x451a <data_handler+0x1be>
    44dc:	8a 81       	ldd	r24, Y+2	; 0x02
    44de:	9b 81       	ldd	r25, Y+3	; 0x03
    44e0:	89 2b       	or	r24, r25
    44e2:	d9 f4       	brne	.+54     	; 0x451a <data_handler+0x1be>
    44e4:	8c 81       	ldd	r24, Y+4	; 0x04
    44e6:	9d 81       	ldd	r25, Y+5	; 0x05
    44e8:	ae 81       	ldd	r26, Y+6	; 0x06
    44ea:	bf 81       	ldd	r27, Y+7	; 0x07
    44ec:	40 91 90 2b 	lds	r20, 0x2B90
    44f0:	50 91 91 2b 	lds	r21, 0x2B91
    44f4:	60 91 92 2b 	lds	r22, 0x2B92
    44f8:	70 91 93 2b 	lds	r23, 0x2B93
    44fc:	48 17       	cp	r20, r24
    44fe:	59 07       	cpc	r21, r25
    4500:	6a 07       	cpc	r22, r26
    4502:	7b 07       	cpc	r23, r27
    4504:	09 f4       	brne	.+2      	; 0x4508 <data_handler+0x1ac>
    4506:	a9 c2       	rjmp	.+1362   	; 0x4a5a <data_handler+0x6fe>
    4508:	80 93 90 2b 	sts	0x2B90, r24
    450c:	90 93 91 2b 	sts	0x2B91, r25
    4510:	a0 93 92 2b 	sts	0x2B92, r26
    4514:	b0 93 93 2b 	sts	0x2B93, r27
    4518:	7b cf       	rjmp	.-266    	; 0x4410 <data_handler+0xb4>
    451a:	66 e1       	ldi	r22, 0x16	; 22
    451c:	72 e2       	ldi	r23, 0x22	; 34
    451e:	c8 01       	movw	r24, r16
    4520:	0e 94 45 32 	call	0x648a	; 0x648a <strcmp>
    4524:	00 97       	sbiw	r24, 0x00	; 0
    4526:	f9 f4       	brne	.+62     	; 0x4566 <data_handler+0x20a>
    4528:	8a 81       	ldd	r24, Y+2	; 0x02
    452a:	9b 81       	ldd	r25, Y+3	; 0x03
    452c:	89 2b       	or	r24, r25
    452e:	d9 f4       	brne	.+54     	; 0x4566 <data_handler+0x20a>
    4530:	8c 81       	ldd	r24, Y+4	; 0x04
    4532:	9d 81       	ldd	r25, Y+5	; 0x05
    4534:	ae 81       	ldd	r26, Y+6	; 0x06
    4536:	bf 81       	ldd	r27, Y+7	; 0x07
    4538:	40 91 98 2b 	lds	r20, 0x2B98
    453c:	50 91 99 2b 	lds	r21, 0x2B99
    4540:	60 91 9a 2b 	lds	r22, 0x2B9A
    4544:	70 91 9b 2b 	lds	r23, 0x2B9B
    4548:	48 17       	cp	r20, r24
    454a:	59 07       	cpc	r21, r25
    454c:	6a 07       	cpc	r22, r26
    454e:	7b 07       	cpc	r23, r27
    4550:	09 f4       	brne	.+2      	; 0x4554 <data_handler+0x1f8>
    4552:	83 c2       	rjmp	.+1286   	; 0x4a5a <data_handler+0x6fe>
    4554:	80 93 98 2b 	sts	0x2B98, r24
    4558:	90 93 99 2b 	sts	0x2B99, r25
    455c:	a0 93 9a 2b 	sts	0x2B9A, r26
    4560:	b0 93 9b 2b 	sts	0x2B9B, r27
    4564:	55 cf       	rjmp	.-342    	; 0x4410 <data_handler+0xb4>
    4566:	6a e1       	ldi	r22, 0x1A	; 26
    4568:	72 e2       	ldi	r23, 0x22	; 34
    456a:	c8 01       	movw	r24, r16
    456c:	0e 94 45 32 	call	0x648a	; 0x648a <strcmp>
    4570:	00 97       	sbiw	r24, 0x00	; 0
    4572:	f9 f4       	brne	.+62     	; 0x45b2 <data_handler+0x256>
    4574:	8a 81       	ldd	r24, Y+2	; 0x02
    4576:	9b 81       	ldd	r25, Y+3	; 0x03
    4578:	89 2b       	or	r24, r25
    457a:	d9 f4       	brne	.+54     	; 0x45b2 <data_handler+0x256>
    457c:	8c 81       	ldd	r24, Y+4	; 0x04
    457e:	9d 81       	ldd	r25, Y+5	; 0x05
    4580:	ae 81       	ldd	r26, Y+6	; 0x06
    4582:	bf 81       	ldd	r27, Y+7	; 0x07
    4584:	40 91 9c 2b 	lds	r20, 0x2B9C
    4588:	50 91 9d 2b 	lds	r21, 0x2B9D
    458c:	60 91 9e 2b 	lds	r22, 0x2B9E
    4590:	70 91 9f 2b 	lds	r23, 0x2B9F
    4594:	48 17       	cp	r20, r24
    4596:	59 07       	cpc	r21, r25
    4598:	6a 07       	cpc	r22, r26
    459a:	7b 07       	cpc	r23, r27
    459c:	09 f4       	brne	.+2      	; 0x45a0 <data_handler+0x244>
    459e:	5d c2       	rjmp	.+1210   	; 0x4a5a <data_handler+0x6fe>
    45a0:	80 93 9c 2b 	sts	0x2B9C, r24
    45a4:	90 93 9d 2b 	sts	0x2B9D, r25
    45a8:	a0 93 9e 2b 	sts	0x2B9E, r26
    45ac:	b0 93 9f 2b 	sts	0x2B9F, r27
    45b0:	2f cf       	rjmp	.-418    	; 0x4410 <data_handler+0xb4>
    45b2:	6e e1       	ldi	r22, 0x1E	; 30
    45b4:	72 e2       	ldi	r23, 0x22	; 34
    45b6:	c8 01       	movw	r24, r16
    45b8:	0e 94 45 32 	call	0x648a	; 0x648a <strcmp>
    45bc:	00 97       	sbiw	r24, 0x00	; 0
    45be:	f9 f4       	brne	.+62     	; 0x45fe <data_handler+0x2a2>
    45c0:	8a 81       	ldd	r24, Y+2	; 0x02
    45c2:	9b 81       	ldd	r25, Y+3	; 0x03
    45c4:	89 2b       	or	r24, r25
    45c6:	d9 f4       	brne	.+54     	; 0x45fe <data_handler+0x2a2>
    45c8:	8c 81       	ldd	r24, Y+4	; 0x04
    45ca:	9d 81       	ldd	r25, Y+5	; 0x05
    45cc:	ae 81       	ldd	r26, Y+6	; 0x06
    45ce:	bf 81       	ldd	r27, Y+7	; 0x07
    45d0:	40 91 a0 2b 	lds	r20, 0x2BA0
    45d4:	50 91 a1 2b 	lds	r21, 0x2BA1
    45d8:	60 91 a2 2b 	lds	r22, 0x2BA2
    45dc:	70 91 a3 2b 	lds	r23, 0x2BA3
    45e0:	48 17       	cp	r20, r24
    45e2:	59 07       	cpc	r21, r25
    45e4:	6a 07       	cpc	r22, r26
    45e6:	7b 07       	cpc	r23, r27
    45e8:	09 f4       	brne	.+2      	; 0x45ec <data_handler+0x290>
    45ea:	37 c2       	rjmp	.+1134   	; 0x4a5a <data_handler+0x6fe>
    45ec:	80 93 a0 2b 	sts	0x2BA0, r24
    45f0:	90 93 a1 2b 	sts	0x2BA1, r25
    45f4:	a0 93 a2 2b 	sts	0x2BA2, r26
    45f8:	b0 93 a3 2b 	sts	0x2BA3, r27
    45fc:	09 cf       	rjmp	.-494    	; 0x4410 <data_handler+0xb4>
    45fe:	62 e2       	ldi	r22, 0x22	; 34
    4600:	72 e2       	ldi	r23, 0x22	; 34
    4602:	c8 01       	movw	r24, r16
    4604:	0e 94 45 32 	call	0x648a	; 0x648a <strcmp>
    4608:	00 97       	sbiw	r24, 0x00	; 0
    460a:	f9 f4       	brne	.+62     	; 0x464a <data_handler+0x2ee>
    460c:	8a 81       	ldd	r24, Y+2	; 0x02
    460e:	9b 81       	ldd	r25, Y+3	; 0x03
    4610:	89 2b       	or	r24, r25
    4612:	d9 f4       	brne	.+54     	; 0x464a <data_handler+0x2ee>
    4614:	8c 81       	ldd	r24, Y+4	; 0x04
    4616:	9d 81       	ldd	r25, Y+5	; 0x05
    4618:	ae 81       	ldd	r26, Y+6	; 0x06
    461a:	bf 81       	ldd	r27, Y+7	; 0x07
    461c:	40 91 ae 2b 	lds	r20, 0x2BAE
    4620:	50 91 af 2b 	lds	r21, 0x2BAF
    4624:	60 91 b0 2b 	lds	r22, 0x2BB0
    4628:	70 91 b1 2b 	lds	r23, 0x2BB1
    462c:	48 17       	cp	r20, r24
    462e:	59 07       	cpc	r21, r25
    4630:	6a 07       	cpc	r22, r26
    4632:	7b 07       	cpc	r23, r27
    4634:	09 f4       	brne	.+2      	; 0x4638 <data_handler+0x2dc>
    4636:	11 c2       	rjmp	.+1058   	; 0x4a5a <data_handler+0x6fe>
    4638:	80 93 ae 2b 	sts	0x2BAE, r24
    463c:	90 93 af 2b 	sts	0x2BAF, r25
    4640:	a0 93 b0 2b 	sts	0x2BB0, r26
    4644:	b0 93 b1 2b 	sts	0x2BB1, r27
    4648:	e3 ce       	rjmp	.-570    	; 0x4410 <data_handler+0xb4>
    464a:	68 e2       	ldi	r22, 0x28	; 40
    464c:	72 e2       	ldi	r23, 0x22	; 34
    464e:	c8 01       	movw	r24, r16
    4650:	0e 94 45 32 	call	0x648a	; 0x648a <strcmp>
    4654:	00 97       	sbiw	r24, 0x00	; 0
    4656:	f9 f4       	brne	.+62     	; 0x4696 <data_handler+0x33a>
    4658:	8a 81       	ldd	r24, Y+2	; 0x02
    465a:	9b 81       	ldd	r25, Y+3	; 0x03
    465c:	89 2b       	or	r24, r25
    465e:	d9 f4       	brne	.+54     	; 0x4696 <data_handler+0x33a>
    4660:	8c 81       	ldd	r24, Y+4	; 0x04
    4662:	9d 81       	ldd	r25, Y+5	; 0x05
    4664:	ae 81       	ldd	r26, Y+6	; 0x06
    4666:	bf 81       	ldd	r27, Y+7	; 0x07
    4668:	40 91 b2 2b 	lds	r20, 0x2BB2
    466c:	50 91 b3 2b 	lds	r21, 0x2BB3
    4670:	60 91 b4 2b 	lds	r22, 0x2BB4
    4674:	70 91 b5 2b 	lds	r23, 0x2BB5
    4678:	48 17       	cp	r20, r24
    467a:	59 07       	cpc	r21, r25
    467c:	6a 07       	cpc	r22, r26
    467e:	7b 07       	cpc	r23, r27
    4680:	09 f4       	brne	.+2      	; 0x4684 <data_handler+0x328>
    4682:	eb c1       	rjmp	.+982    	; 0x4a5a <data_handler+0x6fe>
    4684:	80 93 b2 2b 	sts	0x2BB2, r24
    4688:	90 93 b3 2b 	sts	0x2BB3, r25
    468c:	a0 93 b4 2b 	sts	0x2BB4, r26
    4690:	b0 93 b5 2b 	sts	0x2BB5, r27
    4694:	bd ce       	rjmp	.-646    	; 0x4410 <data_handler+0xb4>
    4696:	6e e2       	ldi	r22, 0x2E	; 46
    4698:	72 e2       	ldi	r23, 0x22	; 34
    469a:	c8 01       	movw	r24, r16
    469c:	0e 94 45 32 	call	0x648a	; 0x648a <strcmp>
    46a0:	00 97       	sbiw	r24, 0x00	; 0
    46a2:	f9 f4       	brne	.+62     	; 0x46e2 <data_handler+0x386>
    46a4:	8a 81       	ldd	r24, Y+2	; 0x02
    46a6:	9b 81       	ldd	r25, Y+3	; 0x03
    46a8:	89 2b       	or	r24, r25
    46aa:	d9 f4       	brne	.+54     	; 0x46e2 <data_handler+0x386>
    46ac:	8c 81       	ldd	r24, Y+4	; 0x04
    46ae:	9d 81       	ldd	r25, Y+5	; 0x05
    46b0:	ae 81       	ldd	r26, Y+6	; 0x06
    46b2:	bf 81       	ldd	r27, Y+7	; 0x07
    46b4:	40 91 b6 2b 	lds	r20, 0x2BB6
    46b8:	50 91 b7 2b 	lds	r21, 0x2BB7
    46bc:	60 91 b8 2b 	lds	r22, 0x2BB8
    46c0:	70 91 b9 2b 	lds	r23, 0x2BB9
    46c4:	48 17       	cp	r20, r24
    46c6:	59 07       	cpc	r21, r25
    46c8:	6a 07       	cpc	r22, r26
    46ca:	7b 07       	cpc	r23, r27
    46cc:	09 f4       	brne	.+2      	; 0x46d0 <data_handler+0x374>
    46ce:	c5 c1       	rjmp	.+906    	; 0x4a5a <data_handler+0x6fe>
    46d0:	80 93 b6 2b 	sts	0x2BB6, r24
    46d4:	90 93 b7 2b 	sts	0x2BB7, r25
    46d8:	a0 93 b8 2b 	sts	0x2BB8, r26
    46dc:	b0 93 b9 2b 	sts	0x2BB9, r27
    46e0:	97 ce       	rjmp	.-722    	; 0x4410 <data_handler+0xb4>
    46e2:	64 e3       	ldi	r22, 0x34	; 52
    46e4:	72 e2       	ldi	r23, 0x22	; 34
    46e6:	c8 01       	movw	r24, r16
    46e8:	0e 94 45 32 	call	0x648a	; 0x648a <strcmp>
    46ec:	00 97       	sbiw	r24, 0x00	; 0
    46ee:	f9 f4       	brne	.+62     	; 0x472e <data_handler+0x3d2>
    46f0:	8a 81       	ldd	r24, Y+2	; 0x02
    46f2:	9b 81       	ldd	r25, Y+3	; 0x03
    46f4:	89 2b       	or	r24, r25
    46f6:	d9 f4       	brne	.+54     	; 0x472e <data_handler+0x3d2>
    46f8:	8c 81       	ldd	r24, Y+4	; 0x04
    46fa:	9d 81       	ldd	r25, Y+5	; 0x05
    46fc:	ae 81       	ldd	r26, Y+6	; 0x06
    46fe:	bf 81       	ldd	r27, Y+7	; 0x07
    4700:	40 91 ba 2b 	lds	r20, 0x2BBA
    4704:	50 91 bb 2b 	lds	r21, 0x2BBB
    4708:	60 91 bc 2b 	lds	r22, 0x2BBC
    470c:	70 91 bd 2b 	lds	r23, 0x2BBD
    4710:	48 17       	cp	r20, r24
    4712:	59 07       	cpc	r21, r25
    4714:	6a 07       	cpc	r22, r26
    4716:	7b 07       	cpc	r23, r27
    4718:	09 f4       	brne	.+2      	; 0x471c <data_handler+0x3c0>
    471a:	9f c1       	rjmp	.+830    	; 0x4a5a <data_handler+0x6fe>
    471c:	80 93 ba 2b 	sts	0x2BBA, r24
    4720:	90 93 bb 2b 	sts	0x2BBB, r25
    4724:	a0 93 bc 2b 	sts	0x2BBC, r26
    4728:	b0 93 bd 2b 	sts	0x2BBD, r27
    472c:	71 ce       	rjmp	.-798    	; 0x4410 <data_handler+0xb4>
    472e:	6a e3       	ldi	r22, 0x3A	; 58
    4730:	72 e2       	ldi	r23, 0x22	; 34
    4732:	c8 01       	movw	r24, r16
    4734:	0e 94 45 32 	call	0x648a	; 0x648a <strcmp>
    4738:	00 97       	sbiw	r24, 0x00	; 0
    473a:	f9 f4       	brne	.+62     	; 0x477a <data_handler+0x41e>
    473c:	8a 81       	ldd	r24, Y+2	; 0x02
    473e:	9b 81       	ldd	r25, Y+3	; 0x03
    4740:	89 2b       	or	r24, r25
    4742:	d9 f4       	brne	.+54     	; 0x477a <data_handler+0x41e>
    4744:	8c 81       	ldd	r24, Y+4	; 0x04
    4746:	9d 81       	ldd	r25, Y+5	; 0x05
    4748:	ae 81       	ldd	r26, Y+6	; 0x06
    474a:	bf 81       	ldd	r27, Y+7	; 0x07
    474c:	40 91 be 2b 	lds	r20, 0x2BBE
    4750:	50 91 bf 2b 	lds	r21, 0x2BBF
    4754:	60 91 c0 2b 	lds	r22, 0x2BC0
    4758:	70 91 c1 2b 	lds	r23, 0x2BC1
    475c:	48 17       	cp	r20, r24
    475e:	59 07       	cpc	r21, r25
    4760:	6a 07       	cpc	r22, r26
    4762:	7b 07       	cpc	r23, r27
    4764:	09 f4       	brne	.+2      	; 0x4768 <data_handler+0x40c>
    4766:	79 c1       	rjmp	.+754    	; 0x4a5a <data_handler+0x6fe>
    4768:	80 93 be 2b 	sts	0x2BBE, r24
    476c:	90 93 bf 2b 	sts	0x2BBF, r25
    4770:	a0 93 c0 2b 	sts	0x2BC0, r26
    4774:	b0 93 c1 2b 	sts	0x2BC1, r27
    4778:	4b ce       	rjmp	.-874    	; 0x4410 <data_handler+0xb4>
    477a:	60 e4       	ldi	r22, 0x40	; 64
    477c:	72 e2       	ldi	r23, 0x22	; 34
    477e:	c8 01       	movw	r24, r16
    4780:	0e 94 45 32 	call	0x648a	; 0x648a <strcmp>
    4784:	00 97       	sbiw	r24, 0x00	; 0
    4786:	f9 f4       	brne	.+62     	; 0x47c6 <data_handler+0x46a>
    4788:	8a 81       	ldd	r24, Y+2	; 0x02
    478a:	9b 81       	ldd	r25, Y+3	; 0x03
    478c:	89 2b       	or	r24, r25
    478e:	d9 f4       	brne	.+54     	; 0x47c6 <data_handler+0x46a>
    4790:	8c 81       	ldd	r24, Y+4	; 0x04
    4792:	9d 81       	ldd	r25, Y+5	; 0x05
    4794:	ae 81       	ldd	r26, Y+6	; 0x06
    4796:	bf 81       	ldd	r27, Y+7	; 0x07
    4798:	40 91 c2 2b 	lds	r20, 0x2BC2
    479c:	50 91 c3 2b 	lds	r21, 0x2BC3
    47a0:	60 91 c4 2b 	lds	r22, 0x2BC4
    47a4:	70 91 c5 2b 	lds	r23, 0x2BC5
    47a8:	48 17       	cp	r20, r24
    47aa:	59 07       	cpc	r21, r25
    47ac:	6a 07       	cpc	r22, r26
    47ae:	7b 07       	cpc	r23, r27
    47b0:	09 f4       	brne	.+2      	; 0x47b4 <data_handler+0x458>
    47b2:	53 c1       	rjmp	.+678    	; 0x4a5a <data_handler+0x6fe>
    47b4:	80 93 c2 2b 	sts	0x2BC2, r24
    47b8:	90 93 c3 2b 	sts	0x2BC3, r25
    47bc:	a0 93 c4 2b 	sts	0x2BC4, r26
    47c0:	b0 93 c5 2b 	sts	0x2BC5, r27
    47c4:	25 ce       	rjmp	.-950    	; 0x4410 <data_handler+0xb4>
    47c6:	66 e4       	ldi	r22, 0x46	; 70
    47c8:	72 e2       	ldi	r23, 0x22	; 34
    47ca:	c8 01       	movw	r24, r16
    47cc:	0e 94 45 32 	call	0x648a	; 0x648a <strcmp>
    47d0:	00 97       	sbiw	r24, 0x00	; 0
    47d2:	f9 f4       	brne	.+62     	; 0x4812 <data_handler+0x4b6>
    47d4:	8a 81       	ldd	r24, Y+2	; 0x02
    47d6:	9b 81       	ldd	r25, Y+3	; 0x03
    47d8:	89 2b       	or	r24, r25
    47da:	d9 f4       	brne	.+54     	; 0x4812 <data_handler+0x4b6>
    47dc:	8c 81       	ldd	r24, Y+4	; 0x04
    47de:	9d 81       	ldd	r25, Y+5	; 0x05
    47e0:	ae 81       	ldd	r26, Y+6	; 0x06
    47e2:	bf 81       	ldd	r27, Y+7	; 0x07
    47e4:	40 91 c6 2b 	lds	r20, 0x2BC6
    47e8:	50 91 c7 2b 	lds	r21, 0x2BC7
    47ec:	60 91 c8 2b 	lds	r22, 0x2BC8
    47f0:	70 91 c9 2b 	lds	r23, 0x2BC9
    47f4:	48 17       	cp	r20, r24
    47f6:	59 07       	cpc	r21, r25
    47f8:	6a 07       	cpc	r22, r26
    47fa:	7b 07       	cpc	r23, r27
    47fc:	09 f4       	brne	.+2      	; 0x4800 <data_handler+0x4a4>
    47fe:	2d c1       	rjmp	.+602    	; 0x4a5a <data_handler+0x6fe>
    4800:	80 93 c6 2b 	sts	0x2BC6, r24
    4804:	90 93 c7 2b 	sts	0x2BC7, r25
    4808:	a0 93 c8 2b 	sts	0x2BC8, r26
    480c:	b0 93 c9 2b 	sts	0x2BC9, r27
    4810:	ff cd       	rjmp	.-1026   	; 0x4410 <data_handler+0xb4>
    4812:	6c e4       	ldi	r22, 0x4C	; 76
    4814:	72 e2       	ldi	r23, 0x22	; 34
    4816:	c8 01       	movw	r24, r16
    4818:	0e 94 45 32 	call	0x648a	; 0x648a <strcmp>
    481c:	00 97       	sbiw	r24, 0x00	; 0
    481e:	f9 f4       	brne	.+62     	; 0x485e <data_handler+0x502>
    4820:	8a 81       	ldd	r24, Y+2	; 0x02
    4822:	9b 81       	ldd	r25, Y+3	; 0x03
    4824:	89 2b       	or	r24, r25
    4826:	d9 f4       	brne	.+54     	; 0x485e <data_handler+0x502>
    4828:	8c 81       	ldd	r24, Y+4	; 0x04
    482a:	9d 81       	ldd	r25, Y+5	; 0x05
    482c:	ae 81       	ldd	r26, Y+6	; 0x06
    482e:	bf 81       	ldd	r27, Y+7	; 0x07
    4830:	40 91 ca 2b 	lds	r20, 0x2BCA
    4834:	50 91 cb 2b 	lds	r21, 0x2BCB
    4838:	60 91 cc 2b 	lds	r22, 0x2BCC
    483c:	70 91 cd 2b 	lds	r23, 0x2BCD
    4840:	48 17       	cp	r20, r24
    4842:	59 07       	cpc	r21, r25
    4844:	6a 07       	cpc	r22, r26
    4846:	7b 07       	cpc	r23, r27
    4848:	09 f4       	brne	.+2      	; 0x484c <data_handler+0x4f0>
    484a:	07 c1       	rjmp	.+526    	; 0x4a5a <data_handler+0x6fe>
    484c:	80 93 ca 2b 	sts	0x2BCA, r24
    4850:	90 93 cb 2b 	sts	0x2BCB, r25
    4854:	a0 93 cc 2b 	sts	0x2BCC, r26
    4858:	b0 93 cd 2b 	sts	0x2BCD, r27
    485c:	d9 cd       	rjmp	.-1102   	; 0x4410 <data_handler+0xb4>
    485e:	62 e5       	ldi	r22, 0x52	; 82
    4860:	72 e2       	ldi	r23, 0x22	; 34
    4862:	c8 01       	movw	r24, r16
    4864:	0e 94 45 32 	call	0x648a	; 0x648a <strcmp>
    4868:	00 97       	sbiw	r24, 0x00	; 0
    486a:	f9 f4       	brne	.+62     	; 0x48aa <data_handler+0x54e>
    486c:	8a 81       	ldd	r24, Y+2	; 0x02
    486e:	9b 81       	ldd	r25, Y+3	; 0x03
    4870:	89 2b       	or	r24, r25
    4872:	d9 f4       	brne	.+54     	; 0x48aa <data_handler+0x54e>
    4874:	8c 81       	ldd	r24, Y+4	; 0x04
    4876:	9d 81       	ldd	r25, Y+5	; 0x05
    4878:	ae 81       	ldd	r26, Y+6	; 0x06
    487a:	bf 81       	ldd	r27, Y+7	; 0x07
    487c:	40 91 ce 2b 	lds	r20, 0x2BCE
    4880:	50 91 cf 2b 	lds	r21, 0x2BCF
    4884:	60 91 d0 2b 	lds	r22, 0x2BD0
    4888:	70 91 d1 2b 	lds	r23, 0x2BD1
    488c:	48 17       	cp	r20, r24
    488e:	59 07       	cpc	r21, r25
    4890:	6a 07       	cpc	r22, r26
    4892:	7b 07       	cpc	r23, r27
    4894:	09 f4       	brne	.+2      	; 0x4898 <data_handler+0x53c>
    4896:	e1 c0       	rjmp	.+450    	; 0x4a5a <data_handler+0x6fe>
    4898:	80 93 ce 2b 	sts	0x2BCE, r24
    489c:	90 93 cf 2b 	sts	0x2BCF, r25
    48a0:	a0 93 d0 2b 	sts	0x2BD0, r26
    48a4:	b0 93 d1 2b 	sts	0x2BD1, r27
    48a8:	b3 cd       	rjmp	.-1178   	; 0x4410 <data_handler+0xb4>
    48aa:	68 e5       	ldi	r22, 0x58	; 88
    48ac:	72 e2       	ldi	r23, 0x22	; 34
    48ae:	c8 01       	movw	r24, r16
    48b0:	0e 94 45 32 	call	0x648a	; 0x648a <strcmp>
    48b4:	00 97       	sbiw	r24, 0x00	; 0
    48b6:	49 f5       	brne	.+82     	; 0x490a <data_handler+0x5ae>
    48b8:	8a 81       	ldd	r24, Y+2	; 0x02
    48ba:	9b 81       	ldd	r25, Y+3	; 0x03
    48bc:	89 2b       	or	r24, r25
    48be:	29 f5       	brne	.+74     	; 0x490a <data_handler+0x5ae>
    48c0:	4c 81       	ldd	r20, Y+4	; 0x04
    48c2:	5d 81       	ldd	r21, Y+5	; 0x05
    48c4:	6e 81       	ldd	r22, Y+6	; 0x06
    48c6:	7f 81       	ldd	r23, Y+7	; 0x07
    48c8:	80 91 a4 2b 	lds	r24, 0x2BA4
    48cc:	90 91 a5 2b 	lds	r25, 0x2BA5
    48d0:	aa 27       	eor	r26, r26
    48d2:	97 fd       	sbrc	r25, 7
    48d4:	a0 95       	com	r26
    48d6:	ba 2f       	mov	r27, r26
    48d8:	8a 01       	movw	r16, r20
    48da:	9b 01       	movw	r18, r22
    48dc:	64 e0       	ldi	r22, 0x04	; 4
    48de:	00 0f       	add	r16, r16
    48e0:	11 1f       	adc	r17, r17
    48e2:	22 1f       	adc	r18, r18
    48e4:	33 1f       	adc	r19, r19
    48e6:	6a 95       	dec	r22
    48e8:	d1 f7       	brne	.-12     	; 0x48de <data_handler+0x582>
    48ea:	80 17       	cp	r24, r16
    48ec:	91 07       	cpc	r25, r17
    48ee:	a2 07       	cpc	r26, r18
    48f0:	b3 07       	cpc	r27, r19
    48f2:	09 f4       	brne	.+2      	; 0x48f6 <data_handler+0x59a>
    48f4:	b2 c0       	rjmp	.+356    	; 0x4a5a <data_handler+0x6fe>
    48f6:	f4 e0       	ldi	r31, 0x04	; 4
    48f8:	44 0f       	add	r20, r20
    48fa:	55 1f       	adc	r21, r21
    48fc:	fa 95       	dec	r31
    48fe:	e1 f7       	brne	.-8      	; 0x48f8 <data_handler+0x59c>
    4900:	40 93 a4 2b 	sts	0x2BA4, r20
    4904:	50 93 a5 2b 	sts	0x2BA5, r21
    4908:	83 cd       	rjmp	.-1274   	; 0x4410 <data_handler+0xb4>
    490a:	60 e6       	ldi	r22, 0x60	; 96
    490c:	72 e2       	ldi	r23, 0x22	; 34
    490e:	c8 01       	movw	r24, r16
    4910:	0e 94 45 32 	call	0x648a	; 0x648a <strcmp>
    4914:	00 97       	sbiw	r24, 0x00	; 0
    4916:	c9 f4       	brne	.+50     	; 0x494a <data_handler+0x5ee>
    4918:	8a 81       	ldd	r24, Y+2	; 0x02
    491a:	9b 81       	ldd	r25, Y+3	; 0x03
    491c:	89 2b       	or	r24, r25
    491e:	a9 f4       	brne	.+42     	; 0x494a <data_handler+0x5ee>
    4920:	4c 81       	ldd	r20, Y+4	; 0x04
    4922:	5d 81       	ldd	r21, Y+5	; 0x05
    4924:	6e 81       	ldd	r22, Y+6	; 0x06
    4926:	7f 81       	ldd	r23, Y+7	; 0x07
    4928:	80 91 a6 2b 	lds	r24, 0x2BA6
    492c:	90 91 a7 2b 	lds	r25, 0x2BA7
    4930:	a0 e0       	ldi	r26, 0x00	; 0
    4932:	b0 e0       	ldi	r27, 0x00	; 0
    4934:	84 17       	cp	r24, r20
    4936:	95 07       	cpc	r25, r21
    4938:	a6 07       	cpc	r26, r22
    493a:	b7 07       	cpc	r27, r23
    493c:	09 f4       	brne	.+2      	; 0x4940 <data_handler+0x5e4>
    493e:	8d c0       	rjmp	.+282    	; 0x4a5a <data_handler+0x6fe>
    4940:	40 93 a6 2b 	sts	0x2BA6, r20
    4944:	50 93 a7 2b 	sts	0x2BA7, r21
    4948:	63 cd       	rjmp	.-1338   	; 0x4410 <data_handler+0xb4>
    494a:	64 e6       	ldi	r22, 0x64	; 100
    494c:	72 e2       	ldi	r23, 0x22	; 34
    494e:	c8 01       	movw	r24, r16
    4950:	0e 94 45 32 	call	0x648a	; 0x648a <strcmp>
    4954:	00 97       	sbiw	r24, 0x00	; 0
    4956:	69 f4       	brne	.+26     	; 0x4972 <data_handler+0x616>
    4958:	8a 81       	ldd	r24, Y+2	; 0x02
    495a:	9b 81       	ldd	r25, Y+3	; 0x03
    495c:	02 97       	sbiw	r24, 0x02	; 2
    495e:	49 f4       	brne	.+18     	; 0x4972 <data_handler+0x616>
    4960:	8c 81       	ldd	r24, Y+4	; 0x04
    4962:	90 91 a8 2b 	lds	r25, 0x2BA8
    4966:	98 17       	cp	r25, r24
    4968:	09 f4       	brne	.+2      	; 0x496c <data_handler+0x610>
    496a:	77 c0       	rjmp	.+238    	; 0x4a5a <data_handler+0x6fe>
    496c:	80 93 a8 2b 	sts	0x2BA8, r24
    4970:	4f cd       	rjmp	.-1378   	; 0x4410 <data_handler+0xb4>
    4972:	6a e6       	ldi	r22, 0x6A	; 106
    4974:	72 e2       	ldi	r23, 0x22	; 34
    4976:	c8 01       	movw	r24, r16
    4978:	0e 94 45 32 	call	0x648a	; 0x648a <strcmp>
    497c:	00 97       	sbiw	r24, 0x00	; 0
    497e:	69 f4       	brne	.+26     	; 0x499a <data_handler+0x63e>
    4980:	8a 81       	ldd	r24, Y+2	; 0x02
    4982:	9b 81       	ldd	r25, Y+3	; 0x03
    4984:	02 97       	sbiw	r24, 0x02	; 2
    4986:	49 f4       	brne	.+18     	; 0x499a <data_handler+0x63e>
    4988:	8c 81       	ldd	r24, Y+4	; 0x04
    498a:	90 91 a9 2b 	lds	r25, 0x2BA9
    498e:	98 17       	cp	r25, r24
    4990:	09 f4       	brne	.+2      	; 0x4994 <data_handler+0x638>
    4992:	63 c0       	rjmp	.+198    	; 0x4a5a <data_handler+0x6fe>
    4994:	80 93 a9 2b 	sts	0x2BA9, r24
    4998:	3b cd       	rjmp	.-1418   	; 0x4410 <data_handler+0xb4>
    499a:	60 e7       	ldi	r22, 0x70	; 112
    499c:	72 e2       	ldi	r23, 0x22	; 34
    499e:	c8 01       	movw	r24, r16
    49a0:	0e 94 45 32 	call	0x648a	; 0x648a <strcmp>
    49a4:	00 97       	sbiw	r24, 0x00	; 0
    49a6:	41 f5       	brne	.+80     	; 0x49f8 <data_handler+0x69c>
    49a8:	8a 81       	ldd	r24, Y+2	; 0x02
    49aa:	9b 81       	ldd	r25, Y+3	; 0x03
    49ac:	89 2b       	or	r24, r25
    49ae:	21 f5       	brne	.+72     	; 0x49f8 <data_handler+0x69c>
    49b0:	4c 81       	ldd	r20, Y+4	; 0x04
    49b2:	5d 81       	ldd	r21, Y+5	; 0x05
    49b4:	6e 81       	ldd	r22, Y+6	; 0x06
    49b6:	7f 81       	ldd	r23, Y+7	; 0x07
    49b8:	80 91 aa 2b 	lds	r24, 0x2BAA
    49bc:	90 91 ab 2b 	lds	r25, 0x2BAB
    49c0:	aa 27       	eor	r26, r26
    49c2:	97 fd       	sbrc	r25, 7
    49c4:	a0 95       	com	r26
    49c6:	ba 2f       	mov	r27, r26
    49c8:	8a 01       	movw	r16, r20
    49ca:	9b 01       	movw	r18, r22
    49cc:	e4 e0       	ldi	r30, 0x04	; 4
    49ce:	00 0f       	add	r16, r16
    49d0:	11 1f       	adc	r17, r17
    49d2:	22 1f       	adc	r18, r18
    49d4:	33 1f       	adc	r19, r19
    49d6:	ea 95       	dec	r30
    49d8:	d1 f7       	brne	.-12     	; 0x49ce <data_handler+0x672>
    49da:	80 17       	cp	r24, r16
    49dc:	91 07       	cpc	r25, r17
    49de:	a2 07       	cpc	r26, r18
    49e0:	b3 07       	cpc	r27, r19
    49e2:	d9 f1       	breq	.+118    	; 0x4a5a <data_handler+0x6fe>
    49e4:	74 e0       	ldi	r23, 0x04	; 4
    49e6:	44 0f       	add	r20, r20
    49e8:	55 1f       	adc	r21, r21
    49ea:	7a 95       	dec	r23
    49ec:	e1 f7       	brne	.-8      	; 0x49e6 <data_handler+0x68a>
    49ee:	40 93 aa 2b 	sts	0x2BAA, r20
    49f2:	50 93 ab 2b 	sts	0x2BAB, r21
    49f6:	0c cd       	rjmp	.-1512   	; 0x4410 <data_handler+0xb4>
    49f8:	69 e7       	ldi	r22, 0x79	; 121
    49fa:	72 e2       	ldi	r23, 0x22	; 34
    49fc:	c8 01       	movw	r24, r16
    49fe:	0e 94 45 32 	call	0x648a	; 0x648a <strcmp>
    4a02:	00 97       	sbiw	r24, 0x00	; 0
    4a04:	41 f5       	brne	.+80     	; 0x4a56 <data_handler+0x6fa>
    4a06:	8a 81       	ldd	r24, Y+2	; 0x02
    4a08:	9b 81       	ldd	r25, Y+3	; 0x03
    4a0a:	89 2b       	or	r24, r25
    4a0c:	21 f5       	brne	.+72     	; 0x4a56 <data_handler+0x6fa>
    4a0e:	4c 81       	ldd	r20, Y+4	; 0x04
    4a10:	5d 81       	ldd	r21, Y+5	; 0x05
    4a12:	6e 81       	ldd	r22, Y+6	; 0x06
    4a14:	7f 81       	ldd	r23, Y+7	; 0x07
    4a16:	80 91 ac 2b 	lds	r24, 0x2BAC
    4a1a:	90 91 ad 2b 	lds	r25, 0x2BAD
    4a1e:	aa 27       	eor	r26, r26
    4a20:	97 fd       	sbrc	r25, 7
    4a22:	a0 95       	com	r26
    4a24:	ba 2f       	mov	r27, r26
    4a26:	8a 01       	movw	r16, r20
    4a28:	9b 01       	movw	r18, r22
    4a2a:	64 e0       	ldi	r22, 0x04	; 4
    4a2c:	00 0f       	add	r16, r16
    4a2e:	11 1f       	adc	r17, r17
    4a30:	22 1f       	adc	r18, r18
    4a32:	33 1f       	adc	r19, r19
    4a34:	6a 95       	dec	r22
    4a36:	d1 f7       	brne	.-12     	; 0x4a2c <data_handler+0x6d0>
    4a38:	80 17       	cp	r24, r16
    4a3a:	91 07       	cpc	r25, r17
    4a3c:	a2 07       	cpc	r26, r18
    4a3e:	b3 07       	cpc	r27, r19
    4a40:	61 f0       	breq	.+24     	; 0x4a5a <data_handler+0x6fe>
    4a42:	04 e0       	ldi	r16, 0x04	; 4
    4a44:	44 0f       	add	r20, r20
    4a46:	55 1f       	adc	r21, r21
    4a48:	0a 95       	dec	r16
    4a4a:	e1 f7       	brne	.-8      	; 0x4a44 <data_handler+0x6e8>
    4a4c:	40 93 ac 2b 	sts	0x2BAC, r20
    4a50:	50 93 ad 2b 	sts	0x2BAD, r21
    4a54:	dd cc       	rjmp	.-1606   	; 0x4410 <data_handler+0xb4>
    4a56:	80 e0       	ldi	r24, 0x00	; 0
    4a58:	01 c0       	rjmp	.+2      	; 0x4a5c <data_handler+0x700>
    4a5a:	81 e0       	ldi	r24, 0x01	; 1
    4a5c:	83 94       	inc	r8
    4a5e:	28 96       	adiw	r28, 0x08	; 8
    4a60:	88 23       	and	r24, r24
    4a62:	a1 f0       	breq	.+40     	; 0x4a8c <data_handler+0x730>
    4a64:	83 10       	cpse	r8, r3
    4a66:	a7 cc       	rjmp	.-1714   	; 0x43b6 <data_handler+0x5a>
    4a68:	17 c0       	rjmp	.+46     	; 0x4a98 <data_handler+0x73c>
    4a6a:	5b dc       	rcall	.-1866   	; 0x4322 <eeprom_write_config>
    4a6c:	10 92 af 28 	sts	0x28AF, r1
    4a70:	10 92 b0 28 	sts	0x28B0, r1
    4a74:	a3 01       	movw	r20, r6
    4a76:	92 01       	movw	r18, r4
    4a78:	b7 01       	movw	r22, r14
    4a7a:	81 e0       	ldi	r24, 0x01	; 1
    4a7c:	0e 94 2e 07 	call	0xe5c	; 0xe5c <awt_buffer_ack_req>
    4a80:	88 23       	and	r24, r24
    4a82:	21 f0       	breq	.+8      	; 0x4a8c <data_handler+0x730>
    4a84:	10 92 ad 28 	sts	0x28AD, r1
    4a88:	10 92 ae 28 	sts	0x28AE, r1
    4a8c:	81 e0       	ldi	r24, 0x01	; 1
    4a8e:	80 93 aa 28 	sts	0x28AA, r24
    4a92:	80 93 ab 28 	sts	0x28AB, r24
    4a96:	03 c0       	rjmp	.+6      	; 0x4a9e <data_handler+0x742>
    4a98:	99 20       	and	r9, r9
    4a9a:	61 f3       	breq	.-40     	; 0x4a74 <data_handler+0x718>
    4a9c:	e6 cf       	rjmp	.-52     	; 0x4a6a <data_handler+0x70e>
    4a9e:	df 91       	pop	r29
    4aa0:	cf 91       	pop	r28
    4aa2:	1f 91       	pop	r17
    4aa4:	0f 91       	pop	r16
    4aa6:	ff 90       	pop	r15
    4aa8:	ef 90       	pop	r14
    4aaa:	df 90       	pop	r13
    4aac:	cf 90       	pop	r12
    4aae:	bf 90       	pop	r11
    4ab0:	af 90       	pop	r10
    4ab2:	9f 90       	pop	r9
    4ab4:	8f 90       	pop	r8
    4ab6:	7f 90       	pop	r7
    4ab8:	6f 90       	pop	r6
    4aba:	5f 90       	pop	r5
    4abc:	4f 90       	pop	r4
    4abe:	3f 90       	pop	r3
    4ac0:	08 95       	ret

00004ac2 <eeprom_write_pulse_counters>:
    4ac2:	cf 93       	push	r28
    4ac4:	df 93       	push	r29
    4ac6:	cd b7       	in	r28, 0x3d	; 61
    4ac8:	de b7       	in	r29, 0x3e	; 62
    4aca:	61 97       	sbiw	r28, 0x11	; 17
    4acc:	cd bf       	out	0x3d, r28	; 61
    4ace:	de bf       	out	0x3e, r29	; 62
    4ad0:	80 e0       	ldi	r24, 0x00	; 0
    4ad2:	0e 94 f9 1b 	call	0x37f2	; 0x37f2 <get_current_pulse_counter>
    4ad6:	69 83       	std	Y+1, r22	; 0x01
    4ad8:	7a 83       	std	Y+2, r23	; 0x02
    4ada:	8b 83       	std	Y+3, r24	; 0x03
    4adc:	9c 83       	std	Y+4, r25	; 0x04
    4ade:	81 e0       	ldi	r24, 0x01	; 1
    4ae0:	0e 94 f9 1b 	call	0x37f2	; 0x37f2 <get_current_pulse_counter>
    4ae4:	6d 83       	std	Y+5, r22	; 0x05
    4ae6:	7e 83       	std	Y+6, r23	; 0x06
    4ae8:	8f 83       	std	Y+7, r24	; 0x07
    4aea:	98 87       	std	Y+8, r25	; 0x08
    4aec:	2f b7       	in	r18, 0x3f	; 63
    4aee:	f8 94       	cli
    4af0:	80 91 51 2b 	lds	r24, 0x2B51
    4af4:	90 91 52 2b 	lds	r25, 0x2B52
    4af8:	a0 91 53 2b 	lds	r26, 0x2B53
    4afc:	b0 91 54 2b 	lds	r27, 0x2B54
    4b00:	2f bf       	out	0x3f, r18	; 63
    4b02:	89 87       	std	Y+9, r24	; 0x09
    4b04:	9a 87       	std	Y+10, r25	; 0x0a
    4b06:	ab 87       	std	Y+11, r26	; 0x0b
    4b08:	bc 87       	std	Y+12, r27	; 0x0c
    4b0a:	2f b7       	in	r18, 0x3f	; 63
    4b0c:	f8 94       	cli
    4b0e:	80 91 55 2b 	lds	r24, 0x2B55
    4b12:	90 91 56 2b 	lds	r25, 0x2B56
    4b16:	a0 91 57 2b 	lds	r26, 0x2B57
    4b1a:	b0 91 58 2b 	lds	r27, 0x2B58
    4b1e:	2f bf       	out	0x3f, r18	; 63
    4b20:	8d 87       	std	Y+13, r24	; 0x0d
    4b22:	9e 87       	std	Y+14, r25	; 0x0e
    4b24:	af 87       	std	Y+15, r26	; 0x0f
    4b26:	b8 8b       	std	Y+16, r27	; 0x10
    4b28:	60 e1       	ldi	r22, 0x10	; 16
    4b2a:	ce 01       	movw	r24, r28
    4b2c:	01 96       	adiw	r24, 0x01	; 1
    4b2e:	0e 94 7a 0a 	call	0x14f4	; 0x14f4 <crc8_compute>
    4b32:	89 8b       	std	Y+17, r24	; 0x11
    4b34:	41 e1       	ldi	r20, 0x11	; 17
    4b36:	50 e0       	ldi	r21, 0x00	; 0
    4b38:	be 01       	movw	r22, r28
    4b3a:	6f 5f       	subi	r22, 0xFF	; 255
    4b3c:	7f 4f       	sbci	r23, 0xFF	; 255
    4b3e:	83 ec       	ldi	r24, 0xC3	; 195
    4b40:	90 e0       	ldi	r25, 0x00	; 0
    4b42:	0e 94 87 12 	call	0x250e	; 0x250e <nvm_eeprom_erase_and_write_buffer>
    4b46:	80 91 cf 01 	lds	r24, 0x01CF
    4b4a:	87 fd       	sbrc	r24, 7
    4b4c:	fc cf       	rjmp	.-8      	; 0x4b46 <eeprom_write_pulse_counters+0x84>
    4b4e:	89 e5       	ldi	r24, 0x59	; 89
    4b50:	93 e2       	ldi	r25, 0x23	; 35
    4b52:	0e 94 93 10 	call	0x2126	; 0x2126 <DEBUG_putcrlf>
    4b56:	61 96       	adiw	r28, 0x11	; 17
    4b58:	cd bf       	out	0x3d, r28	; 61
    4b5a:	de bf       	out	0x3e, r29	; 62
    4b5c:	df 91       	pop	r29
    4b5e:	cf 91       	pop	r28
    4b60:	08 95       	ret

00004b62 <reset_avr>:
    4b62:	af df       	rcall	.-162    	; 0x4ac2 <eeprom_write_pulse_counters>
    4b64:	f8 94       	cli
    4b66:	61 e0       	ldi	r22, 0x01	; 1
    4b68:	89 e7       	ldi	r24, 0x79	; 121
    4b6a:	90 e0       	ldi	r25, 0x00	; 0
    4b6c:	0e 94 be 11 	call	0x237c	; 0x237c <ccp_write_io>
    4b70:	ff cf       	rjmp	.-2      	; 0x4b70 <reset_avr+0xe>

00004b72 <command_handler>:
    4b72:	2f 92       	push	r2
    4b74:	3f 92       	push	r3
    4b76:	4f 92       	push	r4
    4b78:	5f 92       	push	r5
    4b7a:	6f 92       	push	r6
    4b7c:	7f 92       	push	r7
    4b7e:	8f 92       	push	r8
    4b80:	9f 92       	push	r9
    4b82:	af 92       	push	r10
    4b84:	bf 92       	push	r11
    4b86:	cf 92       	push	r12
    4b88:	df 92       	push	r13
    4b8a:	ef 92       	push	r14
    4b8c:	ff 92       	push	r15
    4b8e:	0f 93       	push	r16
    4b90:	1f 93       	push	r17
    4b92:	cf 93       	push	r28
    4b94:	df 93       	push	r29
    4b96:	00 d0       	rcall	.+0      	; 0x4b98 <command_handler+0x26>
    4b98:	cd b7       	in	r28, 0x3d	; 61
    4b9a:	de b7       	in	r29, 0x3e	; 62
    4b9c:	4b 01       	movw	r8, r22
    4b9e:	5c 01       	movw	r10, r24
    4ba0:	49 83       	std	Y+1, r20	; 0x01
    4ba2:	5a 83       	std	Y+2, r21	; 0x02
    4ba4:	69 01       	movw	r12, r18
    4ba6:	62 e8       	ldi	r22, 0x82	; 130
    4ba8:	72 e2       	ldi	r23, 0x22	; 34
    4baa:	c9 01       	movw	r24, r18
    4bac:	0e 94 45 32 	call	0x648a	; 0x648a <strcmp>
    4bb0:	00 97       	sbiw	r24, 0x00	; 0
    4bb2:	29 f5       	brne	.+74     	; 0x4bfe <command_handler+0x8c>
    4bb4:	a5 01       	movw	r20, r10
    4bb6:	94 01       	movw	r18, r8
    4bb8:	69 81       	ldd	r22, Y+1	; 0x01
    4bba:	7a 81       	ldd	r23, Y+2	; 0x02
    4bbc:	81 e0       	ldi	r24, 0x01	; 1
    4bbe:	0e 94 2e 07 	call	0xe5c	; 0xe5c <awt_buffer_ack_req>
    4bc2:	85 e0       	ldi	r24, 0x05	; 5
    4bc4:	0e 94 e9 1b 	call	0x37d2	; 0x37d2 <timeout_stop>
    4bc8:	68 e2       	ldi	r22, 0x28	; 40
    4bca:	70 e0       	ldi	r23, 0x00	; 0
    4bcc:	85 e0       	ldi	r24, 0x05	; 5
    4bce:	0e 94 c3 1b 	call	0x3786	; 0x3786 <timeout_start_singleshot>
    4bd2:	04 c0       	rjmp	.+8      	; 0x4bdc <command_handler+0x6a>
    4bd4:	83 e7       	ldi	r24, 0x73	; 115
    4bd6:	9e e1       	ldi	r25, 0x1E	; 30
    4bd8:	0e 94 85 06 	call	0xd0a	; 0xd0a <awt_send_any_enqueued_acks>
    4bdc:	85 e0       	ldi	r24, 0x05	; 5
    4bde:	0e 94 c9 1b 	call	0x3792	; 0x3792 <timeout_test_and_clear_expired>
    4be2:	88 23       	and	r24, r24
    4be4:	b9 f3       	breq	.-18     	; 0x4bd4 <command_handler+0x62>
    4be6:	f7 01       	movw	r30, r14
    4be8:	82 81       	ldd	r24, Z+2	; 0x02
    4bea:	88 23       	and	r24, r24
    4bec:	09 f4       	brne	.+2      	; 0x4bf0 <command_handler+0x7e>
    4bee:	c1 c0       	rjmp	.+386    	; 0x4d72 <command_handler+0x200>
    4bf0:	62 ef       	ldi	r22, 0xF2	; 242
    4bf2:	74 e0       	ldi	r23, 0x04	; 4
    4bf4:	80 e0       	ldi	r24, 0x00	; 0
    4bf6:	90 e0       	ldi	r25, 0x00	; 0
    4bf8:	0e 94 66 07 	call	0xecc	; 0xecc <awt_reset_modem>
    4bfc:	ba c0       	rjmp	.+372    	; 0x4d72 <command_handler+0x200>
    4bfe:	68 e8       	ldi	r22, 0x88	; 136
    4c00:	72 e2       	ldi	r23, 0x22	; 34
    4c02:	c6 01       	movw	r24, r12
    4c04:	0e 94 45 32 	call	0x648a	; 0x648a <strcmp>
    4c08:	00 97       	sbiw	r24, 0x00	; 0
    4c0a:	09 f0       	breq	.+2      	; 0x4c0e <command_handler+0x9c>
    4c0c:	3c c0       	rjmp	.+120    	; 0x4c86 <command_handler+0x114>
    4c0e:	01 30       	cpi	r16, 0x01	; 1
    4c10:	09 f0       	breq	.+2      	; 0x4c14 <command_handler+0xa2>
    4c12:	ba c1       	rjmp	.+884    	; 0x4f88 <command_handler+0x416>
    4c14:	f7 01       	movw	r30, r14
    4c16:	80 81       	ld	r24, Z
    4c18:	91 81       	ldd	r25, Z+1	; 0x01
    4c1a:	89 2b       	or	r24, r25
    4c1c:	09 f0       	breq	.+2      	; 0x4c20 <command_handler+0xae>
    4c1e:	b4 c1       	rjmp	.+872    	; 0x4f88 <command_handler+0x416>
    4c20:	12 81       	ldd	r17, Z+2	; 0x02
    4c22:	01 2f       	mov	r16, r17
    4c24:	10 ff       	sbrs	r17, 0
    4c26:	11 c0       	rjmp	.+34     	; 0x4c4a <command_handler+0xd8>
    4c28:	8f b7       	in	r24, 0x3f	; 63
    4c2a:	f8 94       	cli
    4c2c:	10 92 22 2b 	sts	0x2B22, r1
    4c30:	10 92 23 2b 	sts	0x2B23, r1
    4c34:	10 92 24 2b 	sts	0x2B24, r1
    4c38:	10 92 25 2b 	sts	0x2B25, r1
    4c3c:	8f bf       	out	0x3f, r24	; 63
    4c3e:	40 e0       	ldi	r20, 0x00	; 0
    4c40:	50 e0       	ldi	r21, 0x00	; 0
    4c42:	ba 01       	movw	r22, r20
    4c44:	80 e0       	ldi	r24, 0x00	; 0
    4c46:	0e 94 07 1c 	call	0x380e	; 0x380e <set_midnight_pulse_counter>
    4c4a:	11 ff       	sbrs	r17, 1
    4c4c:	11 c0       	rjmp	.+34     	; 0x4c70 <command_handler+0xfe>
    4c4e:	8f b7       	in	r24, 0x3f	; 63
    4c50:	f8 94       	cli
    4c52:	10 92 26 2b 	sts	0x2B26, r1
    4c56:	10 92 27 2b 	sts	0x2B27, r1
    4c5a:	10 92 28 2b 	sts	0x2B28, r1
    4c5e:	10 92 29 2b 	sts	0x2B29, r1
    4c62:	8f bf       	out	0x3f, r24	; 63
    4c64:	40 e0       	ldi	r20, 0x00	; 0
    4c66:	50 e0       	ldi	r21, 0x00	; 0
    4c68:	ba 01       	movw	r22, r20
    4c6a:	81 e0       	ldi	r24, 0x01	; 1
    4c6c:	0e 94 07 1c 	call	0x380e	; 0x380e <set_midnight_pulse_counter>
    4c70:	00 23       	and	r16, r16
    4c72:	19 f0       	breq	.+6      	; 0x4c7a <command_handler+0x108>
    4c74:	26 df       	rcall	.-436    	; 0x4ac2 <eeprom_write_pulse_counters>
    4c76:	0e 94 ca 1d 	call	0x3b94	; 0x3b94 <eeprom_read_pulse_counters>
    4c7a:	a5 01       	movw	r20, r10
    4c7c:	94 01       	movw	r18, r8
    4c7e:	69 81       	ldd	r22, Y+1	; 0x01
    4c80:	7a 81       	ldd	r23, Y+2	; 0x02
    4c82:	81 e0       	ldi	r24, 0x01	; 1
    4c84:	86 c1       	rjmp	.+780    	; 0x4f92 <command_handler+0x420>
    4c86:	6a e8       	ldi	r22, 0x8A	; 138
    4c88:	72 e2       	ldi	r23, 0x22	; 34
    4c8a:	c6 01       	movw	r24, r12
    4c8c:	0e 94 45 32 	call	0x648a	; 0x648a <strcmp>
    4c90:	00 97       	sbiw	r24, 0x00	; 0
    4c92:	39 f5       	brne	.+78     	; 0x4ce2 <command_handler+0x170>
    4c94:	02 30       	cpi	r16, 0x02	; 2
    4c96:	09 f0       	breq	.+2      	; 0x4c9a <command_handler+0x128>
    4c98:	77 c1       	rjmp	.+750    	; 0x4f88 <command_handler+0x416>
    4c9a:	f7 01       	movw	r30, r14
    4c9c:	80 81       	ld	r24, Z
    4c9e:	91 81       	ldd	r25, Z+1	; 0x01
    4ca0:	89 2b       	or	r24, r25
    4ca2:	09 f0       	breq	.+2      	; 0x4ca6 <command_handler+0x134>
    4ca4:	71 c1       	rjmp	.+738    	; 0x4f88 <command_handler+0x416>
    4ca6:	86 81       	ldd	r24, Z+6	; 0x06
    4ca8:	97 81       	ldd	r25, Z+7	; 0x07
    4caa:	89 2b       	or	r24, r25
    4cac:	09 f0       	breq	.+2      	; 0x4cb0 <command_handler+0x13e>
    4cae:	6c c1       	rjmp	.+728    	; 0x4f88 <command_handler+0x416>
    4cb0:	82 81       	ldd	r24, Z+2	; 0x02
    4cb2:	81 50       	subi	r24, 0x01	; 1
    4cb4:	82 30       	cpi	r24, 0x02	; 2
    4cb6:	08 f0       	brcs	.+2      	; 0x4cba <command_handler+0x148>
    4cb8:	67 c1       	rjmp	.+718    	; 0x4f88 <command_handler+0x416>
    4cba:	40 85       	ldd	r20, Z+8	; 0x08
    4cbc:	51 85       	ldd	r21, Z+9	; 0x09
    4cbe:	62 85       	ldd	r22, Z+10	; 0x0a
    4cc0:	73 85       	ldd	r23, Z+11	; 0x0b
    4cc2:	9f b7       	in	r25, 0x3f	; 63
    4cc4:	f8 94       	cli
    4cc6:	24 e0       	ldi	r18, 0x04	; 4
    4cc8:	82 9f       	mul	r24, r18
    4cca:	f0 01       	movw	r30, r0
    4ccc:	11 24       	eor	r1, r1
    4cce:	ee 5d       	subi	r30, 0xDE	; 222
    4cd0:	f4 4d       	sbci	r31, 0xD4	; 212
    4cd2:	40 83       	st	Z, r20
    4cd4:	51 83       	std	Z+1, r21	; 0x01
    4cd6:	62 83       	std	Z+2, r22	; 0x02
    4cd8:	73 83       	std	Z+3, r23	; 0x03
    4cda:	9f bf       	out	0x3f, r25	; 63
    4cdc:	0e 94 07 1c 	call	0x380e	; 0x380e <set_midnight_pulse_counter>
    4ce0:	c9 cf       	rjmp	.-110    	; 0x4c74 <command_handler+0x102>
    4ce2:	6c e9       	ldi	r22, 0x9C	; 156
    4ce4:	72 e2       	ldi	r23, 0x22	; 34
    4ce6:	c6 01       	movw	r24, r12
    4ce8:	0e 94 45 32 	call	0x648a	; 0x648a <strcmp>
    4cec:	00 97       	sbiw	r24, 0x00	; 0
    4cee:	09 f0       	breq	.+2      	; 0x4cf2 <command_handler+0x180>
    4cf0:	41 c0       	rjmp	.+130    	; 0x4d74 <command_handler+0x202>
    4cf2:	a5 01       	movw	r20, r10
    4cf4:	94 01       	movw	r18, r8
    4cf6:	69 81       	ldd	r22, Y+1	; 0x01
    4cf8:	7a 81       	ldd	r23, Y+2	; 0x02
    4cfa:	81 e0       	ldi	r24, 0x01	; 1
    4cfc:	0e 94 2e 07 	call	0xe5c	; 0xe5c <awt_buffer_ack_req>
    4d00:	85 e0       	ldi	r24, 0x05	; 5
    4d02:	0e 94 e9 1b 	call	0x37d2	; 0x37d2 <timeout_stop>
    4d06:	68 e2       	ldi	r22, 0x28	; 40
    4d08:	70 e0       	ldi	r23, 0x00	; 0
    4d0a:	85 e0       	ldi	r24, 0x05	; 5
    4d0c:	0e 94 c3 1b 	call	0x3786	; 0x3786 <timeout_start_singleshot>
    4d10:	04 c0       	rjmp	.+8      	; 0x4d1a <command_handler+0x1a8>
    4d12:	83 e7       	ldi	r24, 0x73	; 115
    4d14:	9e e1       	ldi	r25, 0x1E	; 30
    4d16:	0e 94 85 06 	call	0xd0a	; 0xd0a <awt_send_any_enqueued_acks>
    4d1a:	85 e0       	ldi	r24, 0x05	; 5
    4d1c:	0e 94 c9 1b 	call	0x3792	; 0x3792 <timeout_test_and_clear_expired>
    4d20:	88 23       	and	r24, r24
    4d22:	b9 f3       	breq	.-18     	; 0x4d12 <command_handler+0x1a0>
    4d24:	f8 94       	cli
    4d26:	0e 94 d6 12 	call	0x25ac	; 0x25ac <nvm_eeprom_erase_all>
    4d2a:	80 91 cf 01 	lds	r24, 0x01CF
    4d2e:	87 fd       	sbrc	r24, 7
    4d30:	fc cf       	rjmp	.-8      	; 0x4d2a <command_handler+0x1b8>
    4d32:	10 92 22 2b 	sts	0x2B22, r1
    4d36:	10 92 23 2b 	sts	0x2B23, r1
    4d3a:	10 92 24 2b 	sts	0x2B24, r1
    4d3e:	10 92 25 2b 	sts	0x2B25, r1
    4d42:	10 92 26 2b 	sts	0x2B26, r1
    4d46:	10 92 27 2b 	sts	0x2B27, r1
    4d4a:	10 92 28 2b 	sts	0x2B28, r1
    4d4e:	10 92 29 2b 	sts	0x2B29, r1
    4d52:	10 92 51 2b 	sts	0x2B51, r1
    4d56:	10 92 52 2b 	sts	0x2B52, r1
    4d5a:	10 92 53 2b 	sts	0x2B53, r1
    4d5e:	10 92 54 2b 	sts	0x2B54, r1
    4d62:	10 92 55 2b 	sts	0x2B55, r1
    4d66:	10 92 56 2b 	sts	0x2B56, r1
    4d6a:	10 92 57 2b 	sts	0x2B57, r1
    4d6e:	10 92 58 2b 	sts	0x2B58, r1
    4d72:	f7 de       	rcall	.-530    	; 0x4b62 <reset_avr>
    4d74:	6b ea       	ldi	r22, 0xAB	; 171
    4d76:	72 e2       	ldi	r23, 0x22	; 34
    4d78:	c6 01       	movw	r24, r12
    4d7a:	0e 94 45 32 	call	0x648a	; 0x648a <strcmp>
    4d7e:	00 97       	sbiw	r24, 0x00	; 0
    4d80:	09 f0       	breq	.+2      	; 0x4d84 <command_handler+0x212>
    4d82:	02 c1       	rjmp	.+516    	; 0x4f88 <command_handler+0x416>
    4d84:	03 30       	cpi	r16, 0x03	; 3
    4d86:	09 f0       	breq	.+2      	; 0x4d8a <command_handler+0x218>
    4d88:	ff c0       	rjmp	.+510    	; 0x4f88 <command_handler+0x416>
    4d8a:	f7 01       	movw	r30, r14
    4d8c:	80 81       	ld	r24, Z
    4d8e:	91 81       	ldd	r25, Z+1	; 0x01
    4d90:	01 97       	sbiw	r24, 0x01	; 1
    4d92:	09 f0       	breq	.+2      	; 0x4d96 <command_handler+0x224>
    4d94:	f9 c0       	rjmp	.+498    	; 0x4f88 <command_handler+0x416>
    4d96:	86 81       	ldd	r24, Z+6	; 0x06
    4d98:	97 81       	ldd	r25, Z+7	; 0x07
    4d9a:	01 97       	sbiw	r24, 0x01	; 1
    4d9c:	09 f0       	breq	.+2      	; 0x4da0 <command_handler+0x22e>
    4d9e:	f4 c0       	rjmp	.+488    	; 0x4f88 <command_handler+0x416>
    4da0:	84 85       	ldd	r24, Z+12	; 0x0c
    4da2:	95 85       	ldd	r25, Z+13	; 0x0d
    4da4:	01 97       	sbiw	r24, 0x01	; 1
    4da6:	09 f0       	breq	.+2      	; 0x4daa <command_handler+0x238>
    4da8:	ef c0       	rjmp	.+478    	; 0x4f88 <command_handler+0x416>
    4daa:	52 81       	ldd	r21, Z+2	; 0x02
    4dac:	43 81       	ldd	r20, Z+3	; 0x03
    4dae:	e5 2f       	mov	r30, r21
    4db0:	f4 2f       	mov	r31, r20
    4db2:	df 01       	movw	r26, r30
    4db4:	0d 90       	ld	r0, X+
    4db6:	00 20       	and	r0, r0
    4db8:	e9 f7       	brne	.-6      	; 0x4db4 <command_handler+0x242>
    4dba:	51 97       	sbiw	r26, 0x11	; 17
    4dbc:	ae 17       	cp	r26, r30
    4dbe:	bf 07       	cpc	r27, r31
    4dc0:	09 f0       	breq	.+2      	; 0x4dc4 <command_handler+0x252>
    4dc2:	e2 c0       	rjmp	.+452    	; 0x4f88 <command_handler+0x416>
    4dc4:	f7 01       	movw	r30, r14
    4dc6:	30 85       	ldd	r19, Z+8	; 0x08
    4dc8:	21 85       	ldd	r18, Z+9	; 0x09
    4dca:	e3 2f       	mov	r30, r19
    4dcc:	f2 2f       	mov	r31, r18
    4dce:	df 01       	movw	r26, r30
    4dd0:	0d 90       	ld	r0, X+
    4dd2:	00 20       	and	r0, r0
    4dd4:	e9 f7       	brne	.-6      	; 0x4dd0 <command_handler+0x25e>
    4dd6:	51 97       	sbiw	r26, 0x11	; 17
    4dd8:	ae 17       	cp	r26, r30
    4dda:	bf 07       	cpc	r27, r31
    4ddc:	09 f0       	breq	.+2      	; 0x4de0 <command_handler+0x26e>
    4dde:	d4 c0       	rjmp	.+424    	; 0x4f88 <command_handler+0x416>
    4de0:	f7 01       	movw	r30, r14
    4de2:	96 85       	ldd	r25, Z+14	; 0x0e
    4de4:	87 85       	ldd	r24, Z+15	; 0x0f
    4de6:	e9 2f       	mov	r30, r25
    4de8:	f8 2f       	mov	r31, r24
    4dea:	df 01       	movw	r26, r30
    4dec:	0d 90       	ld	r0, X+
    4dee:	00 20       	and	r0, r0
    4df0:	e9 f7       	brne	.-6      	; 0x4dec <command_handler+0x27a>
    4df2:	51 97       	sbiw	r26, 0x11	; 17
    4df4:	ae 17       	cp	r26, r30
    4df6:	bf 07       	cpc	r27, r31
    4df8:	09 f0       	breq	.+2      	; 0x4dfc <command_handler+0x28a>
    4dfa:	c6 c0       	rjmp	.+396    	; 0x4f88 <command_handler+0x416>
    4dfc:	65 2f       	mov	r22, r21
    4dfe:	74 2f       	mov	r23, r20
    4e00:	a9 2f       	mov	r26, r25
    4e02:	b8 2f       	mov	r27, r24
    4e04:	83 2f       	mov	r24, r19
    4e06:	92 2f       	mov	r25, r18
    4e08:	40 e0       	ldi	r20, 0x00	; 0
    4e0a:	fb 01       	movw	r30, r22
    4e0c:	21 91       	ld	r18, Z+
    4e0e:	bf 01       	movw	r22, r30
    4e10:	32 2f       	mov	r19, r18
    4e12:	30 53       	subi	r19, 0x30	; 48
    4e14:	3a 30       	cpi	r19, 0x0A	; 10
    4e16:	48 f0       	brcs	.+18     	; 0x4e2a <command_handler+0x2b8>
    4e18:	52 2f       	mov	r21, r18
    4e1a:	51 54       	subi	r21, 0x41	; 65
    4e1c:	21 e0       	ldi	r18, 0x01	; 1
    4e1e:	30 e0       	ldi	r19, 0x00	; 0
    4e20:	56 30       	cpi	r21, 0x06	; 6
    4e22:	28 f0       	brcs	.+10     	; 0x4e2e <command_handler+0x2bc>
    4e24:	20 e0       	ldi	r18, 0x00	; 0
    4e26:	30 e0       	ldi	r19, 0x00	; 0
    4e28:	02 c0       	rjmp	.+4      	; 0x4e2e <command_handler+0x2bc>
    4e2a:	21 e0       	ldi	r18, 0x01	; 1
    4e2c:	30 e0       	ldi	r19, 0x00	; 0
    4e2e:	20 ff       	sbrs	r18, 0
    4e30:	ab c0       	rjmp	.+342    	; 0x4f88 <command_handler+0x416>
    4e32:	fc 01       	movw	r30, r24
    4e34:	21 91       	ld	r18, Z+
    4e36:	cf 01       	movw	r24, r30
    4e38:	32 2f       	mov	r19, r18
    4e3a:	30 53       	subi	r19, 0x30	; 48
    4e3c:	3a 30       	cpi	r19, 0x0A	; 10
    4e3e:	48 f0       	brcs	.+18     	; 0x4e52 <command_handler+0x2e0>
    4e40:	52 2f       	mov	r21, r18
    4e42:	51 54       	subi	r21, 0x41	; 65
    4e44:	21 e0       	ldi	r18, 0x01	; 1
    4e46:	30 e0       	ldi	r19, 0x00	; 0
    4e48:	56 30       	cpi	r21, 0x06	; 6
    4e4a:	28 f0       	brcs	.+10     	; 0x4e56 <command_handler+0x2e4>
    4e4c:	20 e0       	ldi	r18, 0x00	; 0
    4e4e:	30 e0       	ldi	r19, 0x00	; 0
    4e50:	02 c0       	rjmp	.+4      	; 0x4e56 <command_handler+0x2e4>
    4e52:	21 e0       	ldi	r18, 0x01	; 1
    4e54:	30 e0       	ldi	r19, 0x00	; 0
    4e56:	20 ff       	sbrs	r18, 0
    4e58:	97 c0       	rjmp	.+302    	; 0x4f88 <command_handler+0x416>
    4e5a:	2d 91       	ld	r18, X+
    4e5c:	32 2f       	mov	r19, r18
    4e5e:	30 53       	subi	r19, 0x30	; 48
    4e60:	3a 30       	cpi	r19, 0x0A	; 10
    4e62:	48 f0       	brcs	.+18     	; 0x4e76 <command_handler+0x304>
    4e64:	52 2f       	mov	r21, r18
    4e66:	51 54       	subi	r21, 0x41	; 65
    4e68:	21 e0       	ldi	r18, 0x01	; 1
    4e6a:	30 e0       	ldi	r19, 0x00	; 0
    4e6c:	56 30       	cpi	r21, 0x06	; 6
    4e6e:	28 f0       	brcs	.+10     	; 0x4e7a <command_handler+0x308>
    4e70:	20 e0       	ldi	r18, 0x00	; 0
    4e72:	30 e0       	ldi	r19, 0x00	; 0
    4e74:	02 c0       	rjmp	.+4      	; 0x4e7a <command_handler+0x308>
    4e76:	21 e0       	ldi	r18, 0x01	; 1
    4e78:	30 e0       	ldi	r19, 0x00	; 0
    4e7a:	20 ff       	sbrs	r18, 0
    4e7c:	85 c0       	rjmp	.+266    	; 0x4f88 <command_handler+0x416>
    4e7e:	4f 5f       	subi	r20, 0xFF	; 255
    4e80:	40 31       	cpi	r20, 0x10	; 16
    4e82:	19 f6       	brne	.-122    	; 0x4e0a <command_handler+0x298>
    4e84:	10 92 73 2b 	sts	0x2B73, r1
    4e88:	10 92 7c 2b 	sts	0x2B7C, r1
    4e8c:	10 92 85 2b 	sts	0x2B85, r1
    4e90:	b4 e7       	ldi	r27, 0x74	; 116
    4e92:	4b 2e       	mov	r4, r27
    4e94:	bb e2       	ldi	r27, 0x2B	; 43
    4e96:	5b 2e       	mov	r5, r27
    4e98:	1d e7       	ldi	r17, 0x7D	; 125
    4e9a:	61 2e       	mov	r6, r17
    4e9c:	1b e2       	ldi	r17, 0x2B	; 43
    4e9e:	71 2e       	mov	r7, r17
    4ea0:	06 e8       	ldi	r16, 0x86	; 134
    4ea2:	1b e2       	ldi	r17, 0x2B	; 43
    4ea4:	c1 2c       	mov	r12, r1
    4ea6:	d1 2c       	mov	r13, r1
    4ea8:	f7 01       	movw	r30, r14
    4eaa:	82 81       	ldd	r24, Z+2	; 0x02
    4eac:	93 81       	ldd	r25, Z+3	; 0x03
    4eae:	8c 0d       	add	r24, r12
    4eb0:	9d 1d       	adc	r25, r13
    4eb2:	0e 94 53 1e 	call	0x3ca6	; 0x3ca6 <hex_byte>
    4eb6:	28 2e       	mov	r2, r24
    4eb8:	f2 01       	movw	r30, r4
    4eba:	81 93       	st	Z+, r24
    4ebc:	2f 01       	movw	r4, r30
    4ebe:	f7 01       	movw	r30, r14
    4ec0:	80 85       	ldd	r24, Z+8	; 0x08
    4ec2:	91 85       	ldd	r25, Z+9	; 0x09
    4ec4:	8c 0d       	add	r24, r12
    4ec6:	9d 1d       	adc	r25, r13
    4ec8:	0e 94 53 1e 	call	0x3ca6	; 0x3ca6 <hex_byte>
    4ecc:	38 2e       	mov	r3, r24
    4ece:	f3 01       	movw	r30, r6
    4ed0:	81 93       	st	Z+, r24
    4ed2:	3f 01       	movw	r6, r30
    4ed4:	f7 01       	movw	r30, r14
    4ed6:	86 85       	ldd	r24, Z+14	; 0x0e
    4ed8:	97 85       	ldd	r25, Z+15	; 0x0f
    4eda:	8c 0d       	add	r24, r12
    4edc:	9d 1d       	adc	r25, r13
    4ede:	0e 94 53 1e 	call	0x3ca6	; 0x3ca6 <hex_byte>
    4ee2:	f8 01       	movw	r30, r16
    4ee4:	81 93       	st	Z+, r24
    4ee6:	8f 01       	movw	r16, r30
    4ee8:	90 91 73 2b 	lds	r25, 0x2B73
    4eec:	21 e0       	ldi	r18, 0x01	; 1
    4eee:	30 e0       	ldi	r19, 0x00	; 0
    4ef0:	91 11       	cpse	r25, r1
    4ef2:	05 c0       	rjmp	.+10     	; 0x4efe <command_handler+0x38c>
    4ef4:	ff ef       	ldi	r31, 0xFF	; 255
    4ef6:	2f 12       	cpse	r2, r31
    4ef8:	02 c0       	rjmp	.+4      	; 0x4efe <command_handler+0x38c>
    4efa:	20 e0       	ldi	r18, 0x00	; 0
    4efc:	30 e0       	ldi	r19, 0x00	; 0
    4efe:	21 70       	andi	r18, 0x01	; 1
    4f00:	20 93 73 2b 	sts	0x2B73, r18
    4f04:	90 91 7c 2b 	lds	r25, 0x2B7C
    4f08:	21 e0       	ldi	r18, 0x01	; 1
    4f0a:	30 e0       	ldi	r19, 0x00	; 0
    4f0c:	91 11       	cpse	r25, r1
    4f0e:	05 c0       	rjmp	.+10     	; 0x4f1a <command_handler+0x3a8>
    4f10:	9f ef       	ldi	r25, 0xFF	; 255
    4f12:	39 12       	cpse	r3, r25
    4f14:	02 c0       	rjmp	.+4      	; 0x4f1a <command_handler+0x3a8>
    4f16:	20 e0       	ldi	r18, 0x00	; 0
    4f18:	30 e0       	ldi	r19, 0x00	; 0
    4f1a:	21 70       	andi	r18, 0x01	; 1
    4f1c:	20 93 7c 2b 	sts	0x2B7C, r18
    4f20:	90 91 85 2b 	lds	r25, 0x2B85
    4f24:	91 11       	cpse	r25, r1
    4f26:	08 c0       	rjmp	.+16     	; 0x4f38 <command_handler+0x3c6>
    4f28:	21 e0       	ldi	r18, 0x01	; 1
    4f2a:	30 e0       	ldi	r19, 0x00	; 0
    4f2c:	8f 3f       	cpi	r24, 0xFF	; 255
    4f2e:	11 f4       	brne	.+4      	; 0x4f34 <command_handler+0x3c2>
    4f30:	20 e0       	ldi	r18, 0x00	; 0
    4f32:	30 e0       	ldi	r19, 0x00	; 0
    4f34:	c9 01       	movw	r24, r18
    4f36:	02 c0       	rjmp	.+4      	; 0x4f3c <command_handler+0x3ca>
    4f38:	81 e0       	ldi	r24, 0x01	; 1
    4f3a:	90 e0       	ldi	r25, 0x00	; 0
    4f3c:	81 70       	andi	r24, 0x01	; 1
    4f3e:	80 93 85 2b 	sts	0x2B85, r24
    4f42:	e2 e0       	ldi	r30, 0x02	; 2
    4f44:	ce 0e       	add	r12, r30
    4f46:	d1 1c       	adc	r13, r1
    4f48:	f0 e1       	ldi	r31, 0x10	; 16
    4f4a:	cf 16       	cp	r12, r31
    4f4c:	d1 04       	cpc	r13, r1
    4f4e:	09 f0       	breq	.+2      	; 0x4f52 <command_handler+0x3e0>
    4f50:	ab cf       	rjmp	.-170    	; 0x4ea8 <command_handler+0x336>
    4f52:	e7 d9       	rcall	.-3122   	; 0x4322 <eeprom_write_config>
    4f54:	a5 01       	movw	r20, r10
    4f56:	94 01       	movw	r18, r8
    4f58:	69 81       	ldd	r22, Y+1	; 0x01
    4f5a:	7a 81       	ldd	r23, Y+2	; 0x02
    4f5c:	81 e0       	ldi	r24, 0x01	; 1
    4f5e:	0e 94 2e 07 	call	0xe5c	; 0xe5c <awt_buffer_ack_req>
    4f62:	85 e0       	ldi	r24, 0x05	; 5
    4f64:	0e 94 e9 1b 	call	0x37d2	; 0x37d2 <timeout_stop>
    4f68:	60 e5       	ldi	r22, 0x50	; 80
    4f6a:	70 e0       	ldi	r23, 0x00	; 0
    4f6c:	85 e0       	ldi	r24, 0x05	; 5
    4f6e:	0e 94 c3 1b 	call	0x3786	; 0x3786 <timeout_start_singleshot>
    4f72:	04 c0       	rjmp	.+8      	; 0x4f7c <command_handler+0x40a>
    4f74:	83 e7       	ldi	r24, 0x73	; 115
    4f76:	9e e1       	ldi	r25, 0x1E	; 30
    4f78:	0e 94 85 06 	call	0xd0a	; 0xd0a <awt_send_any_enqueued_acks>
    4f7c:	85 e0       	ldi	r24, 0x05	; 5
    4f7e:	0e 94 c9 1b 	call	0x3792	; 0x3792 <timeout_test_and_clear_expired>
    4f82:	88 23       	and	r24, r24
    4f84:	b9 f3       	breq	.-18     	; 0x4f74 <command_handler+0x402>
    4f86:	f5 ce       	rjmp	.-534    	; 0x4d72 <command_handler+0x200>
    4f88:	a5 01       	movw	r20, r10
    4f8a:	94 01       	movw	r18, r8
    4f8c:	69 81       	ldd	r22, Y+1	; 0x01
    4f8e:	7a 81       	ldd	r23, Y+2	; 0x02
    4f90:	80 e0       	ldi	r24, 0x00	; 0
    4f92:	0f 90       	pop	r0
    4f94:	0f 90       	pop	r0
    4f96:	df 91       	pop	r29
    4f98:	cf 91       	pop	r28
    4f9a:	1f 91       	pop	r17
    4f9c:	0f 91       	pop	r16
    4f9e:	ff 90       	pop	r15
    4fa0:	ef 90       	pop	r14
    4fa2:	df 90       	pop	r13
    4fa4:	cf 90       	pop	r12
    4fa6:	bf 90       	pop	r11
    4fa8:	af 90       	pop	r10
    4faa:	9f 90       	pop	r9
    4fac:	8f 90       	pop	r8
    4fae:	7f 90       	pop	r7
    4fb0:	6f 90       	pop	r6
    4fb2:	5f 90       	pop	r5
    4fb4:	4f 90       	pop	r4
    4fb6:	3f 90       	pop	r3
    4fb8:	2f 90       	pop	r2
    4fba:	0c 94 2e 07 	jmp	0xe5c	; 0xe5c <awt_buffer_ack_req>

00004fbe <__vector_64>:
    4fbe:	1f 92       	push	r1
    4fc0:	0f 92       	push	r0
    4fc2:	0f b6       	in	r0, 0x3f	; 63
    4fc4:	0f 92       	push	r0
    4fc6:	11 24       	eor	r1, r1
    4fc8:	8f 93       	push	r24
    4fca:	ef 93       	push	r30
    4fcc:	ff 93       	push	r31
    4fce:	81 e0       	ldi	r24, 0x01	; 1
    4fd0:	e0 e6       	ldi	r30, 0x60	; 96
    4fd2:	f6 e0       	ldi	r31, 0x06	; 6
    4fd4:	84 87       	std	Z+12, r24	; 0x0c
    4fd6:	ff 91       	pop	r31
    4fd8:	ef 91       	pop	r30
    4fda:	8f 91       	pop	r24
    4fdc:	0f 90       	pop	r0
    4fde:	0f be       	out	0x3f, r0	; 63
    4fe0:	0f 90       	pop	r0
    4fe2:	1f 90       	pop	r1
    4fe4:	18 95       	reti

00004fe6 <__vector_2>:
    4fe6:	1f 92       	push	r1
    4fe8:	0f 92       	push	r0
    4fea:	0f b6       	in	r0, 0x3f	; 63
    4fec:	0f 92       	push	r0
    4fee:	11 24       	eor	r1, r1
    4ff0:	8f 93       	push	r24
    4ff2:	ef 93       	push	r30
    4ff4:	ff 93       	push	r31
    4ff6:	81 e0       	ldi	r24, 0x01	; 1
    4ff8:	e0 e4       	ldi	r30, 0x40	; 64
    4ffa:	f6 e0       	ldi	r31, 0x06	; 6
    4ffc:	84 87       	std	Z+12, r24	; 0x0c
    4ffe:	ff 91       	pop	r31
    5000:	ef 91       	pop	r30
    5002:	8f 91       	pop	r24
    5004:	0f 90       	pop	r0
    5006:	0f be       	out	0x3f, r0	; 63
    5008:	0f 90       	pop	r0
    500a:	1f 90       	pop	r1
    500c:	18 95       	reti

0000500e <__vector_34>:
    500e:	1f 92       	push	r1
    5010:	0f 92       	push	r0
    5012:	0f b6       	in	r0, 0x3f	; 63
    5014:	0f 92       	push	r0
    5016:	11 24       	eor	r1, r1
    5018:	8f 93       	push	r24
    501a:	ef 93       	push	r30
    501c:	ff 93       	push	r31
    501e:	81 e0       	ldi	r24, 0x01	; 1
    5020:	e0 e2       	ldi	r30, 0x20	; 32
    5022:	f6 e0       	ldi	r31, 0x06	; 6
    5024:	84 87       	std	Z+12, r24	; 0x0c
    5026:	ff 91       	pop	r31
    5028:	ef 91       	pop	r30
    502a:	8f 91       	pop	r24
    502c:	0f 90       	pop	r0
    502e:	0f be       	out	0x3f, r0	; 63
    5030:	0f 90       	pop	r0
    5032:	1f 90       	pop	r1
    5034:	18 95       	reti

00005036 <__vector_66>:
    5036:	1f 92       	push	r1
    5038:	0f 92       	push	r0
    503a:	0f b6       	in	r0, 0x3f	; 63
    503c:	0f 92       	push	r0
    503e:	11 24       	eor	r1, r1
    5040:	8f 93       	push	r24
    5042:	ef 93       	push	r30
    5044:	ff 93       	push	r31
    5046:	81 e0       	ldi	r24, 0x01	; 1
    5048:	e0 e0       	ldi	r30, 0x00	; 0
    504a:	f6 e0       	ldi	r31, 0x06	; 6
    504c:	84 87       	std	Z+12, r24	; 0x0c
    504e:	ff 91       	pop	r31
    5050:	ef 91       	pop	r30
    5052:	8f 91       	pop	r24
    5054:	0f 90       	pop	r0
    5056:	0f be       	out	0x3f, r0	; 63
    5058:	0f 90       	pop	r0
    505a:	1f 90       	pop	r1
    505c:	18 95       	reti

0000505e <main>:
    505e:	cf 93       	push	r28
    5060:	df 93       	push	r29
    5062:	cd b7       	in	r28, 0x3d	; 61
    5064:	de b7       	in	r29, 0x3e	; 62
    5066:	c3 58       	subi	r28, 0x83	; 131
    5068:	d1 09       	sbc	r29, r1
    506a:	cd bf       	out	0x3d, r28	; 61
    506c:	de bf       	out	0x3e, r29	; 62
    506e:	87 e0       	ldi	r24, 0x07	; 7
    5070:	80 93 a2 00 	sts	0x00A2, r24
    5074:	80 93 a2 00 	sts	0x00A2, r24
    5078:	0e 94 64 11 	call	0x22c8	; 0x22c8 <sysclk_init>
    507c:	0e 94 91 1b 	call	0x3722	; 0x3722 <timeout_init>
    5080:	0e 94 02 11 	call	0x2204	; 0x2204 <board_init>
    5084:	10 92 85 2d 	sts	0x2D85, r1
    5088:	10 92 86 2d 	sts	0x2D86, r1
    508c:	10 92 87 2d 	sts	0x2D87, r1
    5090:	10 92 88 2d 	sts	0x2D88, r1
    5094:	10 92 89 2d 	sts	0x2D89, r1
    5098:	81 e0       	ldi	r24, 0x01	; 1
    509a:	80 93 8a 2d 	sts	0x2D8A, r24
    509e:	78 94       	sei
    50a0:	80 e0       	ldi	r24, 0x00	; 0
    50a2:	98 e0       	ldi	r25, 0x08	; 8
    50a4:	0e 94 d1 17 	call	0x2fa2	; 0x2fa2 <tc_enable>
    50a8:	67 ec       	ldi	r22, 0xC7	; 199
    50aa:	7b e0       	ldi	r23, 0x0B	; 11
    50ac:	80 e0       	ldi	r24, 0x00	; 0
    50ae:	98 e0       	ldi	r25, 0x08	; 8
    50b0:	0e 94 0e 18 	call	0x301c	; 0x301c <tc_set_overflow_interrupt_callback>
    50b4:	80 91 01 08 	lds	r24, 0x0801
    50b8:	88 7f       	andi	r24, 0xF8	; 248
    50ba:	80 93 01 08 	sts	0x0801, r24
    50be:	82 e1       	ldi	r24, 0x12	; 18
    50c0:	9a e7       	ldi	r25, 0x7A	; 122
    50c2:	80 93 26 08 	sts	0x0826, r24
    50c6:	90 93 27 08 	sts	0x0827, r25
    50ca:	80 91 06 08 	lds	r24, 0x0806
    50ce:	8c 7f       	andi	r24, 0xFC	; 252
    50d0:	80 93 06 08 	sts	0x0806, r24
    50d4:	80 91 06 08 	lds	r24, 0x0806
    50d8:	82 60       	ori	r24, 0x02	; 2
    50da:	80 93 06 08 	sts	0x0806, r24
    50de:	80 91 00 08 	lds	r24, 0x0800
    50e2:	80 7f       	andi	r24, 0xF0	; 240
    50e4:	87 60       	ori	r24, 0x07	; 7
    50e6:	80 93 00 08 	sts	0x0800, r24
    50ea:	80 e0       	ldi	r24, 0x00	; 0
    50ec:	99 e0       	ldi	r25, 0x09	; 9
    50ee:	0e 94 d1 17 	call	0x2fa2	; 0x2fa2 <tc_enable>
    50f2:	61 e5       	ldi	r22, 0x51	; 81
    50f4:	7d e1       	ldi	r23, 0x1D	; 29
    50f6:	80 e0       	ldi	r24, 0x00	; 0
    50f8:	99 e0       	ldi	r25, 0x09	; 9
    50fa:	0e 94 0e 18 	call	0x301c	; 0x301c <tc_set_overflow_interrupt_callback>
    50fe:	80 91 01 09 	lds	r24, 0x0901
    5102:	88 7f       	andi	r24, 0xF8	; 248
    5104:	80 93 01 09 	sts	0x0901, r24
    5108:	8c e9       	ldi	r24, 0x9C	; 156
    510a:	90 e0       	ldi	r25, 0x00	; 0
    510c:	80 93 26 09 	sts	0x0926, r24
    5110:	90 93 27 09 	sts	0x0927, r25
    5114:	80 91 06 09 	lds	r24, 0x0906
    5118:	8c 7f       	andi	r24, 0xFC	; 252
    511a:	80 93 06 09 	sts	0x0906, r24
    511e:	80 91 06 09 	lds	r24, 0x0906
    5122:	83 60       	ori	r24, 0x03	; 3
    5124:	80 93 06 09 	sts	0x0906, r24
    5128:	80 91 00 09 	lds	r24, 0x0900
    512c:	80 7f       	andi	r24, 0xF0	; 240
    512e:	87 60       	ori	r24, 0x07	; 7
    5130:	80 93 00 09 	sts	0x0900, r24
    5134:	0e 94 55 0f 	call	0x1eaa	; 0x1eaa <_uartc1_init>
    5138:	81 e0       	ldi	r24, 0x01	; 1
    513a:	90 e0       	ldi	r25, 0x00	; 0
    513c:	0e 94 4c 0f 	call	0x1e98	; 0x1e98 <_uartc1_enable_interrupt>
    5140:	64 ed       	ldi	r22, 0xD4	; 212
    5142:	70 e0       	ldi	r23, 0x00	; 0
    5144:	80 e0       	ldi	r24, 0x00	; 0
    5146:	90 e0       	ldi	r25, 0x00	; 0
    5148:	0e 94 99 10 	call	0x2132	; 0x2132 <DEBUG_putu>
    514c:	88 ed       	ldi	r24, 0xD8	; 216
    514e:	92 e2       	ldi	r25, 0x22	; 34
    5150:	0e 94 88 10 	call	0x2110	; 0x2110 <DEBUG_puts>
    5154:	62 e0       	ldi	r22, 0x02	; 2
    5156:	70 e0       	ldi	r23, 0x00	; 0
    5158:	80 e0       	ldi	r24, 0x00	; 0
    515a:	90 e0       	ldi	r25, 0x00	; 0
    515c:	0e 94 99 10 	call	0x2132	; 0x2132 <DEBUG_putu>
    5160:	80 e0       	ldi	r24, 0x00	; 0
    5162:	90 e0       	ldi	r25, 0x00	; 0
    5164:	0e 94 93 10 	call	0x2126	; 0x2126 <DEBUG_putcrlf>
    5168:	83 e6       	ldi	r24, 0x63	; 99
    516a:	e0 e7       	ldi	r30, 0x70	; 112
    516c:	fb e2       	ldi	r31, 0x2B	; 43
    516e:	df 01       	movw	r26, r30
    5170:	1d 92       	st	X+, r1
    5172:	8a 95       	dec	r24
    5174:	e9 f7       	brne	.-6      	; 0x5170 <main+0x112>
    5176:	43 e6       	ldi	r20, 0x63	; 99
    5178:	50 e0       	ldi	r21, 0x00	; 0
    517a:	bf 01       	movw	r22, r30
    517c:	80 e6       	ldi	r24, 0x60	; 96
    517e:	90 e0       	ldi	r25, 0x00	; 0
    5180:	0e 94 d9 11 	call	0x23b2	; 0x23b2 <nvm_eeprom_read_buffer>
    5184:	80 91 70 2b 	lds	r24, 0x2B70
    5188:	82 30       	cpi	r24, 0x02	; 2
    518a:	21 f0       	breq	.+8      	; 0x5194 <main+0x136>
    518c:	83 30       	cpi	r24, 0x03	; 3
    518e:	09 f0       	breq	.+2      	; 0x5192 <main+0x134>
    5190:	ea c0       	rjmp	.+468    	; 0x5366 <main+0x308>
    5192:	e1 c0       	rjmp	.+450    	; 0x5356 <main+0x2f8>
    5194:	6f e3       	ldi	r22, 0x3F	; 63
    5196:	80 e7       	ldi	r24, 0x70	; 112
    5198:	9b e2       	ldi	r25, 0x2B	; 43
    519a:	0e 94 7a 0a 	call	0x14f4	; 0x14f4 <crc8_compute>
    519e:	81 11       	cpse	r24, r1
    51a0:	e2 c0       	rjmp	.+452    	; 0x5366 <main+0x308>
    51a2:	80 91 98 2b 	lds	r24, 0x2B98
    51a6:	90 91 99 2b 	lds	r25, 0x2B99
    51aa:	a0 91 9a 2b 	lds	r26, 0x2B9A
    51ae:	b0 91 9b 2b 	lds	r27, 0x2B9B
    51b2:	80 93 ae 2b 	sts	0x2BAE, r24
    51b6:	90 93 af 2b 	sts	0x2BAF, r25
    51ba:	a0 93 b0 2b 	sts	0x2BB0, r26
    51be:	b0 93 b1 2b 	sts	0x2BB1, r27
    51c2:	10 92 ba 2b 	sts	0x2BBA, r1
    51c6:	10 92 bb 2b 	sts	0x2BBB, r1
    51ca:	10 92 bc 2b 	sts	0x2BBC, r1
    51ce:	10 92 bd 2b 	sts	0x2BBD, r1
    51d2:	10 92 c6 2b 	sts	0x2BC6, r1
    51d6:	10 92 c7 2b 	sts	0x2BC7, r1
    51da:	10 92 c8 2b 	sts	0x2BC8, r1
    51de:	10 92 c9 2b 	sts	0x2BC9, r1
    51e2:	80 91 9c 2b 	lds	r24, 0x2B9C
    51e6:	90 91 9d 2b 	lds	r25, 0x2B9D
    51ea:	a0 91 9e 2b 	lds	r26, 0x2B9E
    51ee:	b0 91 9f 2b 	lds	r27, 0x2B9F
    51f2:	80 93 b2 2b 	sts	0x2BB2, r24
    51f6:	90 93 b3 2b 	sts	0x2BB3, r25
    51fa:	a0 93 b4 2b 	sts	0x2BB4, r26
    51fe:	b0 93 b5 2b 	sts	0x2BB5, r27
    5202:	10 92 be 2b 	sts	0x2BBE, r1
    5206:	10 92 bf 2b 	sts	0x2BBF, r1
    520a:	10 92 c0 2b 	sts	0x2BC0, r1
    520e:	10 92 c1 2b 	sts	0x2BC1, r1
    5212:	10 92 ca 2b 	sts	0x2BCA, r1
    5216:	10 92 cb 2b 	sts	0x2BCB, r1
    521a:	10 92 cc 2b 	sts	0x2BCC, r1
    521e:	10 92 cd 2b 	sts	0x2BCD, r1
    5222:	80 91 a0 2b 	lds	r24, 0x2BA0
    5226:	90 91 a1 2b 	lds	r25, 0x2BA1
    522a:	a0 91 a2 2b 	lds	r26, 0x2BA2
    522e:	b0 91 a3 2b 	lds	r27, 0x2BA3
    5232:	80 93 b6 2b 	sts	0x2BB6, r24
    5236:	90 93 b7 2b 	sts	0x2BB7, r25
    523a:	a0 93 b8 2b 	sts	0x2BB8, r26
    523e:	b0 93 b9 2b 	sts	0x2BB9, r27
    5242:	10 92 c2 2b 	sts	0x2BC2, r1
    5246:	10 92 c3 2b 	sts	0x2BC3, r1
    524a:	10 92 c4 2b 	sts	0x2BC4, r1
    524e:	10 92 c5 2b 	sts	0x2BC5, r1
    5252:	10 92 ce 2b 	sts	0x2BCE, r1
    5256:	10 92 cf 2b 	sts	0x2BCF, r1
    525a:	10 92 d0 2b 	sts	0x2BD0, r1
    525e:	10 92 d1 2b 	sts	0x2BD1, r1
    5262:	41 e1       	ldi	r20, 0x11	; 17
    5264:	50 e0       	ldi	r21, 0x00	; 0
    5266:	8e 01       	movw	r16, r28
    5268:	0f 5f       	subi	r16, 0xFF	; 255
    526a:	1f 4f       	sbci	r17, 0xFF	; 255
    526c:	b8 01       	movw	r22, r16
    526e:	8f e9       	ldi	r24, 0x9F	; 159
    5270:	90 e0       	ldi	r25, 0x00	; 0
    5272:	0e 94 d9 11 	call	0x23b2	; 0x23b2 <nvm_eeprom_read_buffer>
    5276:	61 e1       	ldi	r22, 0x11	; 17
    5278:	c8 01       	movw	r24, r16
    527a:	0e 94 7a 0a 	call	0x14f4	; 0x14f4 <crc8_compute>
    527e:	81 11       	cpse	r24, r1
    5280:	35 c0       	rjmp	.+106    	; 0x52ec <main+0x28e>
    5282:	89 81       	ldd	r24, Y+1	; 0x01
    5284:	9a 81       	ldd	r25, Y+2	; 0x02
    5286:	ab 81       	ldd	r26, Y+3	; 0x03
    5288:	bc 81       	ldd	r27, Y+4	; 0x04
    528a:	8f 3f       	cpi	r24, 0xFF	; 255
    528c:	9f 4f       	sbci	r25, 0xFF	; 255
    528e:	af 4f       	sbci	r26, 0xFF	; 255
    5290:	bf 4f       	sbci	r27, 0xFF	; 255
    5292:	21 f4       	brne	.+8      	; 0x529c <main+0x23e>
    5294:	19 82       	std	Y+1, r1	; 0x01
    5296:	1a 82       	std	Y+2, r1	; 0x02
    5298:	1b 82       	std	Y+3, r1	; 0x03
    529a:	1c 82       	std	Y+4, r1	; 0x04
    529c:	89 85       	ldd	r24, Y+9	; 0x09
    529e:	9a 85       	ldd	r25, Y+10	; 0x0a
    52a0:	ab 85       	ldd	r26, Y+11	; 0x0b
    52a2:	bc 85       	ldd	r27, Y+12	; 0x0c
    52a4:	8f 3f       	cpi	r24, 0xFF	; 255
    52a6:	9f 4f       	sbci	r25, 0xFF	; 255
    52a8:	af 4f       	sbci	r26, 0xFF	; 255
    52aa:	bf 4f       	sbci	r27, 0xFF	; 255
    52ac:	21 f4       	brne	.+8      	; 0x52b6 <main+0x258>
    52ae:	19 86       	std	Y+9, r1	; 0x09
    52b0:	1a 86       	std	Y+10, r1	; 0x0a
    52b2:	1b 86       	std	Y+11, r1	; 0x0b
    52b4:	1c 86       	std	Y+12, r1	; 0x0c
    52b6:	8d 81       	ldd	r24, Y+5	; 0x05
    52b8:	9e 81       	ldd	r25, Y+6	; 0x06
    52ba:	af 81       	ldd	r26, Y+7	; 0x07
    52bc:	b8 85       	ldd	r27, Y+8	; 0x08
    52be:	8f 3f       	cpi	r24, 0xFF	; 255
    52c0:	9f 4f       	sbci	r25, 0xFF	; 255
    52c2:	af 4f       	sbci	r26, 0xFF	; 255
    52c4:	bf 4f       	sbci	r27, 0xFF	; 255
    52c6:	21 f4       	brne	.+8      	; 0x52d0 <main+0x272>
    52c8:	1d 82       	std	Y+5, r1	; 0x05
    52ca:	1e 82       	std	Y+6, r1	; 0x06
    52cc:	1f 82       	std	Y+7, r1	; 0x07
    52ce:	18 86       	std	Y+8, r1	; 0x08
    52d0:	8d 85       	ldd	r24, Y+13	; 0x0d
    52d2:	9e 85       	ldd	r25, Y+14	; 0x0e
    52d4:	af 85       	ldd	r26, Y+15	; 0x0f
    52d6:	b8 89       	ldd	r27, Y+16	; 0x10
    52d8:	8f 3f       	cpi	r24, 0xFF	; 255
    52da:	9f 4f       	sbci	r25, 0xFF	; 255
    52dc:	af 4f       	sbci	r26, 0xFF	; 255
    52de:	bf 4f       	sbci	r27, 0xFF	; 255
    52e0:	51 f4       	brne	.+20     	; 0x52f6 <main+0x298>
    52e2:	1d 86       	std	Y+13, r1	; 0x0d
    52e4:	1e 86       	std	Y+14, r1	; 0x0e
    52e6:	1f 86       	std	Y+15, r1	; 0x0f
    52e8:	18 8a       	std	Y+16, r1	; 0x10
    52ea:	05 c0       	rjmp	.+10     	; 0x52f6 <main+0x298>
    52ec:	81 e1       	ldi	r24, 0x11	; 17
    52ee:	d8 01       	movw	r26, r16
    52f0:	1d 92       	st	X+, r1
    52f2:	8a 95       	dec	r24
    52f4:	e9 f7       	brne	.-6      	; 0x52f0 <main+0x292>
    52f6:	89 81       	ldd	r24, Y+1	; 0x01
    52f8:	9a 81       	ldd	r25, Y+2	; 0x02
    52fa:	ab 81       	ldd	r26, Y+3	; 0x03
    52fc:	bc 81       	ldd	r27, Y+4	; 0x04
    52fe:	2f b7       	in	r18, 0x3f	; 63
    5300:	f8 94       	cli
    5302:	80 93 22 2b 	sts	0x2B22, r24
    5306:	90 93 23 2b 	sts	0x2B23, r25
    530a:	a0 93 24 2b 	sts	0x2B24, r26
    530e:	b0 93 25 2b 	sts	0x2B25, r27
    5312:	2f bf       	out	0x3f, r18	; 63
    5314:	8d 81       	ldd	r24, Y+5	; 0x05
    5316:	9e 81       	ldd	r25, Y+6	; 0x06
    5318:	af 81       	ldd	r26, Y+7	; 0x07
    531a:	b8 85       	ldd	r27, Y+8	; 0x08
    531c:	2f b7       	in	r18, 0x3f	; 63
    531e:	f8 94       	cli
    5320:	80 93 26 2b 	sts	0x2B26, r24
    5324:	90 93 27 2b 	sts	0x2B27, r25
    5328:	a0 93 28 2b 	sts	0x2B28, r26
    532c:	b0 93 29 2b 	sts	0x2B29, r27
    5330:	2f bf       	out	0x3f, r18	; 63
    5332:	49 85       	ldd	r20, Y+9	; 0x09
    5334:	5a 85       	ldd	r21, Y+10	; 0x0a
    5336:	6b 85       	ldd	r22, Y+11	; 0x0b
    5338:	7c 85       	ldd	r23, Y+12	; 0x0c
    533a:	80 e0       	ldi	r24, 0x00	; 0
    533c:	0e 94 07 1c 	call	0x380e	; 0x380e <set_midnight_pulse_counter>
    5340:	4d 85       	ldd	r20, Y+13	; 0x0d
    5342:	5e 85       	ldd	r21, Y+14	; 0x0e
    5344:	6f 85       	ldd	r22, Y+15	; 0x0f
    5346:	78 89       	ldd	r23, Y+16	; 0x10
    5348:	81 e0       	ldi	r24, 0x01	; 1
    534a:	0e 94 07 1c 	call	0x380e	; 0x380e <set_midnight_pulse_counter>
    534e:	0e 94 91 21 	call	0x4322	; 0x4322 <eeprom_write_config>
    5352:	b7 db       	rcall	.-2194   	; 0x4ac2 <eeprom_write_pulse_counters>
    5354:	bd c0       	rjmp	.+378    	; 0x54d0 <main+0x472>
    5356:	63 e6       	ldi	r22, 0x63	; 99
    5358:	80 e7       	ldi	r24, 0x70	; 112
    535a:	9b e2       	ldi	r25, 0x2B	; 43
    535c:	0e 94 7a 0a 	call	0x14f4	; 0x14f4 <crc8_compute>
    5360:	81 11       	cpse	r24, r1
    5362:	01 c0       	rjmp	.+2      	; 0x5366 <main+0x308>
    5364:	b3 c0       	rjmp	.+358    	; 0x54cc <main+0x46e>
    5366:	43 e6       	ldi	r20, 0x63	; 99
    5368:	50 e0       	ldi	r21, 0x00	; 0
    536a:	6f ef       	ldi	r22, 0xFF	; 255
    536c:	70 e0       	ldi	r23, 0x00	; 0
    536e:	80 e7       	ldi	r24, 0x70	; 112
    5370:	9b e2       	ldi	r25, 0x2B	; 43
    5372:	0e 94 3e 32 	call	0x647c	; 0x647c <memset>
    5376:	83 e0       	ldi	r24, 0x03	; 3
    5378:	80 93 70 2b 	sts	0x2B70, r24
    537c:	88 e5       	ldi	r24, 0x58	; 88
    537e:	92 e0       	ldi	r25, 0x02	; 2
    5380:	80 93 71 2b 	sts	0x2B71, r24
    5384:	90 93 72 2b 	sts	0x2B72, r25
    5388:	10 92 73 2b 	sts	0x2B73, r1
    538c:	10 92 7c 2b 	sts	0x2B7C, r1
    5390:	10 92 85 2b 	sts	0x2B85, r1
    5394:	80 e1       	ldi	r24, 0x10	; 16
    5396:	90 e0       	ldi	r25, 0x00	; 0
    5398:	80 93 8e 2b 	sts	0x2B8E, r24
    539c:	90 93 8f 2b 	sts	0x2B8F, r25
    53a0:	88 e2       	ldi	r24, 0x28	; 40
    53a2:	90 e0       	ldi	r25, 0x00	; 0
    53a4:	a0 e0       	ldi	r26, 0x00	; 0
    53a6:	b0 e0       	ldi	r27, 0x00	; 0
    53a8:	80 93 90 2b 	sts	0x2B90, r24
    53ac:	90 93 91 2b 	sts	0x2B91, r25
    53b0:	a0 93 92 2b 	sts	0x2B92, r26
    53b4:	b0 93 93 2b 	sts	0x2B93, r27
    53b8:	80 ef       	ldi	r24, 0xF0	; 240
    53ba:	90 e0       	ldi	r25, 0x00	; 0
    53bc:	a0 e0       	ldi	r26, 0x00	; 0
    53be:	b0 e0       	ldi	r27, 0x00	; 0
    53c0:	80 93 94 2b 	sts	0x2B94, r24
    53c4:	90 93 95 2b 	sts	0x2B95, r25
    53c8:	a0 93 96 2b 	sts	0x2B96, r26
    53cc:	b0 93 97 2b 	sts	0x2B97, r27
    53d0:	10 92 98 2b 	sts	0x2B98, r1
    53d4:	10 92 99 2b 	sts	0x2B99, r1
    53d8:	10 92 9a 2b 	sts	0x2B9A, r1
    53dc:	10 92 9b 2b 	sts	0x2B9B, r1
    53e0:	10 92 9c 2b 	sts	0x2B9C, r1
    53e4:	10 92 9d 2b 	sts	0x2B9D, r1
    53e8:	10 92 9e 2b 	sts	0x2B9E, r1
    53ec:	10 92 9f 2b 	sts	0x2B9F, r1
    53f0:	10 92 a0 2b 	sts	0x2BA0, r1
    53f4:	10 92 a1 2b 	sts	0x2BA1, r1
    53f8:	10 92 a2 2b 	sts	0x2BA2, r1
    53fc:	10 92 a3 2b 	sts	0x2BA3, r1
    5400:	10 92 ae 2b 	sts	0x2BAE, r1
    5404:	10 92 af 2b 	sts	0x2BAF, r1
    5408:	10 92 b0 2b 	sts	0x2BB0, r1
    540c:	10 92 b1 2b 	sts	0x2BB1, r1
    5410:	10 92 b2 2b 	sts	0x2BB2, r1
    5414:	10 92 b3 2b 	sts	0x2BB3, r1
    5418:	10 92 b4 2b 	sts	0x2BB4, r1
    541c:	10 92 b5 2b 	sts	0x2BB5, r1
    5420:	10 92 b6 2b 	sts	0x2BB6, r1
    5424:	10 92 b7 2b 	sts	0x2BB7, r1
    5428:	10 92 b8 2b 	sts	0x2BB8, r1
    542c:	10 92 b9 2b 	sts	0x2BB9, r1
    5430:	10 92 ba 2b 	sts	0x2BBA, r1
    5434:	10 92 bb 2b 	sts	0x2BBB, r1
    5438:	10 92 bc 2b 	sts	0x2BBC, r1
    543c:	10 92 bd 2b 	sts	0x2BBD, r1
    5440:	10 92 be 2b 	sts	0x2BBE, r1
    5444:	10 92 bf 2b 	sts	0x2BBF, r1
    5448:	10 92 c0 2b 	sts	0x2BC0, r1
    544c:	10 92 c1 2b 	sts	0x2BC1, r1
    5450:	10 92 c2 2b 	sts	0x2BC2, r1
    5454:	10 92 c3 2b 	sts	0x2BC3, r1
    5458:	10 92 c4 2b 	sts	0x2BC4, r1
    545c:	10 92 c5 2b 	sts	0x2BC5, r1
    5460:	10 92 c6 2b 	sts	0x2BC6, r1
    5464:	10 92 c7 2b 	sts	0x2BC7, r1
    5468:	10 92 c8 2b 	sts	0x2BC8, r1
    546c:	10 92 c9 2b 	sts	0x2BC9, r1
    5470:	10 92 ca 2b 	sts	0x2BCA, r1
    5474:	10 92 cb 2b 	sts	0x2BCB, r1
    5478:	10 92 cc 2b 	sts	0x2BCC, r1
    547c:	10 92 cd 2b 	sts	0x2BCD, r1
    5480:	10 92 ce 2b 	sts	0x2BCE, r1
    5484:	10 92 cf 2b 	sts	0x2BCF, r1
    5488:	10 92 d0 2b 	sts	0x2BD0, r1
    548c:	10 92 d1 2b 	sts	0x2BD1, r1
    5490:	80 ec       	ldi	r24, 0xC0	; 192
    5492:	93 e0       	ldi	r25, 0x03	; 3
    5494:	80 93 a4 2b 	sts	0x2BA4, r24
    5498:	90 93 a5 2b 	sts	0x2BA5, r25
    549c:	81 e0       	ldi	r24, 0x01	; 1
    549e:	90 e0       	ldi	r25, 0x00	; 0
    54a0:	80 93 a6 2b 	sts	0x2BA6, r24
    54a4:	90 93 a7 2b 	sts	0x2BA7, r25
    54a8:	10 92 a8 2b 	sts	0x2BA8, r1
    54ac:	10 92 a9 2b 	sts	0x2BA9, r1
    54b0:	80 e1       	ldi	r24, 0x10	; 16
    54b2:	94 e0       	ldi	r25, 0x04	; 4
    54b4:	80 93 aa 2b 	sts	0x2BAA, r24
    54b8:	90 93 ab 2b 	sts	0x2BAB, r25
    54bc:	80 ea       	ldi	r24, 0xA0	; 160
    54be:	90 e0       	ldi	r25, 0x00	; 0
    54c0:	80 93 ac 2b 	sts	0x2BAC, r24
    54c4:	90 93 ad 2b 	sts	0x2BAD, r25
    54c8:	0e 94 91 21 	call	0x4322	; 0x4322 <eeprom_write_config>
    54cc:	0e 94 ca 1d 	call	0x3b94	; 0x3b94 <eeprom_read_pulse_counters>
    54d0:	94 e0       	ldi	r25, 0x04	; 4
    54d2:	90 93 b0 00 	sts	0x00B0, r25
    54d6:	80 e1       	ldi	r24, 0x10	; 16
    54d8:	80 93 50 06 	sts	0x0650, r24
    54dc:	90 93 b0 00 	sts	0x00B0, r25
    54e0:	80 93 70 06 	sts	0x0670, r24
    54e4:	9f b7       	in	r25, 0x3f	; 63
    54e6:	f8 94       	cli
    54e8:	80 91 52 06 	lds	r24, 0x0652
    54ec:	88 7f       	andi	r24, 0xF8	; 248
    54ee:	80 93 52 06 	sts	0x0652, r24
    54f2:	80 91 52 06 	lds	r24, 0x0652
    54f6:	80 93 52 06 	sts	0x0652, r24
    54fa:	9f bf       	out	0x3f, r25	; 63
    54fc:	9f b7       	in	r25, 0x3f	; 63
    54fe:	f8 94       	cli
    5500:	80 91 72 06 	lds	r24, 0x0672
    5504:	88 7f       	andi	r24, 0xF8	; 248
    5506:	80 93 72 06 	sts	0x0672, r24
    550a:	80 91 72 06 	lds	r24, 0x0672
    550e:	80 93 72 06 	sts	0x0672, r24
    5512:	9f bf       	out	0x3f, r25	; 63
    5514:	10 92 ad 28 	sts	0x28AD, r1
    5518:	10 92 ae 28 	sts	0x28AE, r1
    551c:	10 92 a7 28 	sts	0x28A7, r1
    5520:	10 92 a8 28 	sts	0x28A8, r1
    5524:	81 e0       	ldi	r24, 0x01	; 1
    5526:	80 93 aa 28 	sts	0x28AA, r24
    552a:	80 93 ab 28 	sts	0x28AB, r24
    552e:	80 93 ac 28 	sts	0x28AC, r24
    5532:	80 93 a9 28 	sts	0x28A9, r24
    5536:	10 92 1a 2b 	sts	0x2B1A, r1
    553a:	10 92 1b 2b 	sts	0x2B1B, r1
    553e:	80 e0       	ldi	r24, 0x00	; 0
    5540:	90 e8       	ldi	r25, 0x80	; 128
    5542:	80 93 1c 2b 	sts	0x2B1C, r24
    5546:	90 93 1d 2b 	sts	0x2B1D, r25
    554a:	80 93 1e 2b 	sts	0x2B1E, r24
    554e:	90 93 1f 2b 	sts	0x2B1F, r25
    5552:	80 93 20 2b 	sts	0x2B20, r24
    5556:	90 93 21 2b 	sts	0x2B21, r25
    555a:	82 e0       	ldi	r24, 0x02	; 2
    555c:	80 93 19 2b 	sts	0x2B19, r24
    5560:	10 92 2a 2b 	sts	0x2B2A, r1
    5564:	10 92 2b 2b 	sts	0x2B2B, r1
    5568:	10 92 2c 2b 	sts	0x2B2C, r1
    556c:	10 92 2d 2b 	sts	0x2B2D, r1
    5570:	10 92 2e 2b 	sts	0x2B2E, r1
    5574:	80 91 78 00 	lds	r24, 0x0078
    5578:	80 93 a6 28 	sts	0x28A6, r24
    557c:	8f e7       	ldi	r24, 0x7F	; 127
    557e:	80 93 78 00 	sts	0x0078, r24
    5582:	82 e8       	ldi	r24, 0x82	; 130
    5584:	e1 eb       	ldi	r30, 0xB1	; 177
    5586:	f8 e2       	ldi	r31, 0x28	; 40
    5588:	df 01       	movw	r26, r30
    558a:	1d 92       	st	X+, r1
    558c:	8a 95       	dec	r24
    558e:	e9 f7       	brne	.-6      	; 0x558a <main+0x52c>
    5590:	82 ee       	ldi	r24, 0xE2	; 226
    5592:	91 e0       	ldi	r25, 0x01	; 1
    5594:	e3 e3       	ldi	r30, 0x33	; 51
    5596:	f9 e2       	ldi	r31, 0x29	; 41
    5598:	df 01       	movw	r26, r30
    559a:	9c 01       	movw	r18, r24
    559c:	1d 92       	st	X+, r1
    559e:	21 50       	subi	r18, 0x01	; 1
    55a0:	30 40       	sbci	r19, 0x00	; 0
    55a2:	e1 f7       	brne	.-8      	; 0x559c <main+0x53e>
    55a4:	80 e5       	ldi	r24, 0x50	; 80
    55a6:	93 ec       	ldi	r25, 0xC3	; 195
    55a8:	a0 e0       	ldi	r26, 0x00	; 0
    55aa:	b0 e0       	ldi	r27, 0x00	; 0
    55ac:	80 93 67 2b 	sts	0x2B67, r24
    55b0:	90 93 68 2b 	sts	0x2B68, r25
    55b4:	a0 93 69 2b 	sts	0x2B69, r26
    55b8:	b0 93 6a 2b 	sts	0x2B6A, r27
    55bc:	88 e1       	ldi	r24, 0x18	; 24
    55be:	80 93 6f 2b 	sts	0x2B6F, r24
    55c2:	8b e3       	ldi	r24, 0x3B	; 59
    55c4:	91 e0       	ldi	r25, 0x01	; 1
    55c6:	a0 e0       	ldi	r26, 0x00	; 0
    55c8:	b0 e0       	ldi	r27, 0x00	; 0
    55ca:	80 93 6b 2b 	sts	0x2B6B, r24
    55ce:	90 93 6c 2b 	sts	0x2B6C, r25
    55d2:	a0 93 6d 2b 	sts	0x2B6D, r26
    55d6:	b0 93 6e 2b 	sts	0x2B6E, r27
    55da:	60 e4       	ldi	r22, 0x40	; 64
    55dc:	83 e0       	ldi	r24, 0x03	; 3
    55de:	90 e0       	ldi	r25, 0x00	; 0
    55e0:	0e 94 91 11 	call	0x2322	; 0x2322 <sysclk_enable_module>
    55e4:	67 e6       	ldi	r22, 0x67	; 103
    55e6:	7b e2       	ldi	r23, 0x2B	; 43
    55e8:	80 e8       	ldi	r24, 0x80	; 128
    55ea:	94 e0       	ldi	r25, 0x04	; 4
    55ec:	0e 94 14 19 	call	0x3228	; 0x3228 <twi_master_init>
    55f0:	10 92 84 2d 	sts	0x2D84, r1
    55f4:	0e 94 2b 0b 	call	0x1656	; 0x1656 <ds18b20_init>
    55f8:	98 e0       	ldi	r25, 0x08	; 8
    55fa:	90 93 25 06 	sts	0x0625, r25
    55fe:	80 e2       	ldi	r24, 0x20	; 32
    5600:	80 93 06 06 	sts	0x0606, r24
    5604:	90 93 25 06 	sts	0x0625, r25
    5608:	80 93 05 06 	sts	0x0605, r24
    560c:	1f e0       	ldi	r17, 0x0F	; 15
    560e:	e8 e0       	ldi	r30, 0x08	; 8
    5610:	fe 2e       	mov	r15, r30
    5612:	00 e2       	ldi	r16, 0x20	; 32
    5614:	68 e0       	ldi	r22, 0x08	; 8
    5616:	70 e0       	ldi	r23, 0x00	; 0
    5618:	80 e0       	ldi	r24, 0x00	; 0
    561a:	0e 94 c3 1b 	call	0x3786	; 0x3786 <timeout_start_singleshot>
    561e:	80 e0       	ldi	r24, 0x00	; 0
    5620:	0e 94 c9 1b 	call	0x3792	; 0x3792 <timeout_test_and_clear_expired>
    5624:	88 23       	and	r24, r24
    5626:	d9 f3       	breq	.-10     	; 0x561e <main+0x5c0>
    5628:	f0 92 27 06 	sts	0x0627, r15
    562c:	00 93 07 06 	sts	0x0607, r16
    5630:	11 50       	subi	r17, 0x01	; 1
    5632:	81 f7       	brne	.-32     	; 0x5614 <main+0x5b6>
    5634:	0e ea       	ldi	r16, 0xAE	; 174
    5636:	11 e2       	ldi	r17, 0x21	; 33
    5638:	29 eb       	ldi	r18, 0xB9	; 185
    563a:	35 e2       	ldi	r19, 0x25	; 37
    563c:	45 e1       	ldi	r20, 0x15	; 21
    563e:	5c e1       	ldi	r21, 0x1C	; 28
    5640:	6f ee       	ldi	r22, 0xEF	; 239
    5642:	7c e1       	ldi	r23, 0x1C	; 28
    5644:	81 eb       	ldi	r24, 0xB1	; 177
    5646:	95 e2       	ldi	r25, 0x25	; 37
    5648:	0e 94 c1 09 	call	0x1382	; 0x1382 <awt_init>
    564c:	81 11       	cpse	r24, r1
    564e:	16 c0       	rjmp	.+44     	; 0x567c <main+0x61e>
    5650:	6c ef       	ldi	r22, 0xFC	; 252
    5652:	75 e0       	ldi	r23, 0x05	; 5
    5654:	80 e0       	ldi	r24, 0x00	; 0
    5656:	90 e0       	ldi	r25, 0x00	; 0
    5658:	0e 94 66 07 	call	0xecc	; 0xecc <awt_reset_modem>
    565c:	61 e0       	ldi	r22, 0x01	; 1
    565e:	70 e0       	ldi	r23, 0x00	; 0
    5660:	80 e0       	ldi	r24, 0x00	; 0
    5662:	0e 94 c7 1b 	call	0x378e	; 0x378e <timeout_start_periodic>
    5666:	08 e2       	ldi	r16, 0x28	; 40
    5668:	10 e0       	ldi	r17, 0x00	; 0
    566a:	80 e0       	ldi	r24, 0x00	; 0
    566c:	0e 94 c9 1b 	call	0x3792	; 0x3792 <timeout_test_and_clear_expired>
    5670:	88 23       	and	r24, r24
    5672:	d9 f3       	breq	.-10     	; 0x566a <main+0x60c>
    5674:	01 50       	subi	r16, 0x01	; 1
    5676:	11 09       	sbc	r17, r1
    5678:	c1 f7       	brne	.-16     	; 0x566a <main+0x60c>
    567a:	73 da       	rcall	.-2842   	; 0x4b62 <reset_avr>
    567c:	88 e0       	ldi	r24, 0x08	; 8
    567e:	80 93 26 06 	sts	0x0626, r24
    5682:	80 e2       	ldi	r24, 0x20	; 32
    5684:	80 93 06 06 	sts	0x0606, r24
    5688:	60 e5       	ldi	r22, 0x50	; 80
    568a:	70 e0       	ldi	r23, 0x00	; 0
    568c:	84 e0       	ldi	r24, 0x04	; 4
    568e:	0e 94 c7 1b 	call	0x378e	; 0x378e <timeout_start_periodic>
    5692:	60 e1       	ldi	r22, 0x10	; 16
    5694:	70 e0       	ldi	r23, 0x00	; 0
    5696:	87 e0       	ldi	r24, 0x07	; 7
    5698:	0e 94 c7 1b 	call	0x378e	; 0x378e <timeout_start_periodic>
    569c:	60 e5       	ldi	r22, 0x50	; 80
    569e:	70 e0       	ldi	r23, 0x00	; 0
    56a0:	86 e0       	ldi	r24, 0x06	; 6
    56a2:	0e 94 c7 1b 	call	0x378e	; 0x378e <timeout_start_periodic>
    56a6:	60 e8       	ldi	r22, 0x80	; 128
    56a8:	70 e7       	ldi	r23, 0x70	; 112
    56aa:	85 e0       	ldi	r24, 0x05	; 5
    56ac:	0e 94 c7 1b 	call	0x378e	; 0x378e <timeout_start_periodic>
    56b0:	80 91 71 2b 	lds	r24, 0x2B71
    56b4:	90 91 72 2b 	lds	r25, 0x2B72
    56b8:	80 93 af 28 	sts	0x28AF, r24
    56bc:	90 93 b0 28 	sts	0x28B0, r25
    56c0:	79 e0       	ldi	r23, 0x09	; 9
    56c2:	f7 2e       	mov	r15, r23
    56c4:	8e 01       	movw	r16, r28
    56c6:	07 59       	subi	r16, 0x97	; 151
    56c8:	1f 4f       	sbci	r17, 0xFF	; 255
    56ca:	85 e0       	ldi	r24, 0x05	; 5
    56cc:	0e 94 c9 1b 	call	0x3792	; 0x3792 <timeout_test_and_clear_expired>
    56d0:	88 23       	and	r24, r24
    56d2:	19 f0       	breq	.+6      	; 0x56da <main+0x67c>
    56d4:	f6 d9       	rcall	.-3092   	; 0x4ac2 <eeprom_write_pulse_counters>
    56d6:	0e 94 ca 1d 	call	0x3b94	; 0x3b94 <eeprom_read_pulse_counters>
    56da:	0e 94 73 1e 	call	0x3ce6	; 0x3ce6 <update_asset_state>
    56de:	80 91 a0 26 	lds	r24, 0x26A0
    56e2:	88 23       	and	r24, r24
    56e4:	a9 f0       	breq	.+42     	; 0x5710 <main+0x6b2>
    56e6:	10 92 a0 26 	sts	0x26A0, r1
    56ea:	80 e0       	ldi	r24, 0x00	; 0
    56ec:	0e 94 f9 1b 	call	0x37f2	; 0x37f2 <get_current_pulse_counter>
    56f0:	ab 01       	movw	r20, r22
    56f2:	bc 01       	movw	r22, r24
    56f4:	80 e0       	ldi	r24, 0x00	; 0
    56f6:	0e 94 07 1c 	call	0x380e	; 0x380e <set_midnight_pulse_counter>
    56fa:	81 e0       	ldi	r24, 0x01	; 1
    56fc:	0e 94 f9 1b 	call	0x37f2	; 0x37f2 <get_current_pulse_counter>
    5700:	ab 01       	movw	r20, r22
    5702:	bc 01       	movw	r22, r24
    5704:	81 e0       	ldi	r24, 0x01	; 1
    5706:	0e 94 07 1c 	call	0x380e	; 0x380e <set_midnight_pulse_counter>
    570a:	db d9       	rcall	.-3146   	; 0x4ac2 <eeprom_write_pulse_counters>
    570c:	0e 94 ca 1d 	call	0x3b94	; 0x3b94 <eeprom_read_pulse_counters>
    5710:	84 e0       	ldi	r24, 0x04	; 4
    5712:	0e 94 c9 1b 	call	0x3792	; 0x3792 <timeout_test_and_clear_expired>
    5716:	88 23       	and	r24, r24
    5718:	69 f0       	breq	.+26     	; 0x5734 <main+0x6d6>
    571a:	20 91 af 28 	lds	r18, 0x28AF
    571e:	30 91 b0 28 	lds	r19, 0x28B0
    5722:	c9 01       	movw	r24, r18
    5724:	0a 96       	adiw	r24, 0x0a	; 10
    5726:	28 17       	cp	r18, r24
    5728:	39 07       	cpc	r19, r25
    572a:	20 f4       	brcc	.+8      	; 0x5734 <main+0x6d6>
    572c:	80 93 af 28 	sts	0x28AF, r24
    5730:	90 93 b0 28 	sts	0x28B0, r25
    5734:	83 e7       	ldi	r24, 0x73	; 115
    5736:	9e e1       	ldi	r25, 0x1E	; 30
    5738:	0e 94 18 08 	call	0x1030	; 0x1030 <awt_service>
    573c:	86 e0       	ldi	r24, 0x06	; 6
    573e:	0e 94 c9 1b 	call	0x3792	; 0x3792 <timeout_test_and_clear_expired>
    5742:	88 23       	and	r24, r24
    5744:	d9 f0       	breq	.+54     	; 0x577c <main+0x71e>
    5746:	80 91 ad 28 	lds	r24, 0x28AD
    574a:	90 91 ae 28 	lds	r25, 0x28AE
    574e:	0a 96       	adiw	r24, 0x0a	; 10
    5750:	80 93 ad 28 	sts	0x28AD, r24
    5754:	90 93 ae 28 	sts	0x28AE, r25
    5758:	40 91 71 2b 	lds	r20, 0x2B71
    575c:	50 91 72 2b 	lds	r21, 0x2B72
    5760:	9a 01       	movw	r18, r20
    5762:	22 0f       	add	r18, r18
    5764:	33 1f       	adc	r19, r19
    5766:	24 0f       	add	r18, r20
    5768:	35 1f       	adc	r19, r21
    576a:	82 17       	cp	r24, r18
    576c:	93 07       	cpc	r25, r19
    576e:	30 f0       	brcs	.+12     	; 0x577c <main+0x71e>
    5770:	68 e3       	ldi	r22, 0x38	; 56
    5772:	76 e0       	ldi	r23, 0x06	; 6
    5774:	83 e7       	ldi	r24, 0x73	; 115
    5776:	9e e1       	ldi	r25, 0x1E	; 30
    5778:	0e 94 66 07 	call	0xecc	; 0xecc <awt_reset_modem>
    577c:	87 e0       	ldi	r24, 0x07	; 7
    577e:	0e 94 c9 1b 	call	0x3792	; 0x3792 <timeout_test_and_clear_expired>
    5782:	88 23       	and	r24, r24
    5784:	09 f4       	brne	.+2      	; 0x5788 <main+0x72a>
    5786:	da c0       	rjmp	.+436    	; 0x593c <main+0x8de>
    5788:	80 91 84 2d 	lds	r24, 0x2D84
    578c:	83 30       	cpi	r24, 0x03	; 3
    578e:	31 f4       	brne	.+12     	; 0x579c <main+0x73e>
    5790:	80 91 84 2d 	lds	r24, 0x2D84
    5794:	88 23       	and	r24, r24
    5796:	09 f4       	brne	.+2      	; 0x579a <main+0x73c>
    5798:	d1 c0       	rjmp	.+418    	; 0x593c <main+0x8de>
    579a:	b0 c0       	rjmp	.+352    	; 0x58fc <main+0x89e>
    579c:	86 eb       	ldi	r24, 0xB6	; 182
    579e:	92 e2       	ldi	r25, 0x22	; 34
    57a0:	0e 94 93 10 	call	0x2126	; 0x2126 <DEBUG_putcrlf>
    57a4:	0e 94 45 0e 	call	0x1c8a	; 0x1c8a <ow_detect_sensors>
    57a8:	e1 2c       	mov	r14, r1
    57aa:	91 e1       	ldi	r25, 0x11	; 17
    57ac:	69 2e       	mov	r6, r25
    57ae:	28 e0       	ldi	r18, 0x08	; 8
    57b0:	52 2e       	mov	r5, r18
    57b2:	77 24       	eor	r7, r7
    57b4:	73 94       	inc	r7
    57b6:	8e c0       	rjmp	.+284    	; 0x58d4 <main+0x876>
    57b8:	d4 01       	movw	r26, r8
    57ba:	8c 91       	ld	r24, X
    57bc:	88 23       	and	r24, r24
    57be:	71 f0       	breq	.+28     	; 0x57dc <main+0x77e>
    57c0:	fc 9c       	mul	r15, r12
    57c2:	b0 01       	movw	r22, r0
    57c4:	fd 9c       	mul	r15, r13
    57c6:	70 0d       	add	r23, r0
    57c8:	11 24       	eor	r1, r1
    57ca:	6c 58       	subi	r22, 0x8C	; 140
    57cc:	74 4d       	sbci	r23, 0xD4	; 212
    57ce:	48 e0       	ldi	r20, 0x08	; 8
    57d0:	50 e0       	ldi	r21, 0x00	; 0
    57d2:	c5 01       	movw	r24, r10
    57d4:	3d d6       	rcall	.+3194   	; 0x6450 <memcmp>
    57d6:	00 97       	sbiw	r24, 0x00	; 0
    57d8:	09 f4       	brne	.+2      	; 0x57dc <main+0x77e>
    57da:	7b c0       	rjmp	.+246    	; 0x58d2 <main+0x874>
    57dc:	bf ef       	ldi	r27, 0xFF	; 255
    57de:	cb 1a       	sub	r12, r27
    57e0:	db 0a       	sbc	r13, r27
    57e2:	e9 e0       	ldi	r30, 0x09	; 9
    57e4:	8e 0e       	add	r8, r30
    57e6:	91 1c       	adc	r9, r1
    57e8:	f3 e0       	ldi	r31, 0x03	; 3
    57ea:	cf 16       	cp	r12, r31
    57ec:	d1 04       	cpc	r13, r1
    57ee:	21 f7       	brne	.-56     	; 0x57b8 <main+0x75a>
    57f0:	ab c4       	rjmp	.+2390   	; 0x6148 <main+0x10ea>
    57f2:	80 91 7c 2b 	lds	r24, 0x2B7C
    57f6:	88 23       	and	r24, r24
    57f8:	49 f0       	breq	.+18     	; 0x580c <main+0x7ae>
    57fa:	80 91 85 2b 	lds	r24, 0x2B85
    57fe:	88 23       	and	r24, r24
    5800:	49 f0       	breq	.+18     	; 0x5814 <main+0x7b6>
    5802:	89 ec       	ldi	r24, 0xC9	; 201
    5804:	92 e2       	ldi	r25, 0x22	; 34
    5806:	0e 94 93 10 	call	0x2126	; 0x2126 <DEBUG_putcrlf>
    580a:	63 c0       	rjmp	.+198    	; 0x58d2 <main+0x874>
    580c:	81 e0       	ldi	r24, 0x01	; 1
    580e:	90 e0       	ldi	r25, 0x00	; 0
    5810:	41 e0       	ldi	r20, 0x01	; 1
    5812:	03 c0       	rjmp	.+6      	; 0x581a <main+0x7bc>
    5814:	82 e0       	ldi	r24, 0x02	; 2
    5816:	90 e0       	ldi	r25, 0x00	; 0
    5818:	42 e0       	ldi	r20, 0x02	; 2
    581a:	ee 2d       	mov	r30, r14
    581c:	f0 e0       	ldi	r31, 0x00	; 0
    581e:	6e 9e       	mul	r6, r30
    5820:	b0 01       	movw	r22, r0
    5822:	6f 9e       	mul	r6, r31
    5824:	70 0d       	add	r23, r0
    5826:	11 24       	eor	r1, r1
    5828:	6c 50       	subi	r22, 0x0C	; 12
    582a:	74 4d       	sbci	r23, 0xD4	; 212
    582c:	f8 9e       	mul	r15, r24
    582e:	90 01       	movw	r18, r0
    5830:	f9 9e       	mul	r15, r25
    5832:	30 0d       	add	r19, r0
    5834:	11 24       	eor	r1, r1
    5836:	d9 01       	movw	r26, r18
    5838:	ac 58       	subi	r26, 0x8C	; 140
    583a:	b4 4d       	sbci	r27, 0xD4	; 212
    583c:	83 e0       	ldi	r24, 0x03	; 3
    583e:	ee 0f       	add	r30, r30
    5840:	ff 1f       	adc	r31, r31
    5842:	8a 95       	dec	r24
    5844:	e1 f7       	brne	.-8      	; 0x583e <main+0x7e0>
    5846:	ec 5f       	subi	r30, 0xFC	; 252
    5848:	f2 4d       	sbci	r31, 0xD2	; 210
    584a:	85 2d       	mov	r24, r5
    584c:	01 90       	ld	r0, Z+
    584e:	0d 92       	st	X+, r0
    5850:	8a 95       	dec	r24
    5852:	e1 f7       	brne	.-8      	; 0x584c <main+0x7ee>
    5854:	f9 01       	movw	r30, r18
    5856:	e0 59       	subi	r30, 0x90	; 144
    5858:	f4 4d       	sbci	r31, 0xD4	; 212
    585a:	73 82       	std	Z+3, r7	; 0x03
    585c:	cd 57       	subi	r28, 0x7D	; 125
    585e:	df 4f       	sbci	r29, 0xFF	; 255
    5860:	48 83       	st	Y, r20
    5862:	c3 58       	subi	r28, 0x83	; 131
    5864:	d0 40       	sbci	r29, 0x00	; 0
    5866:	cf 57       	subi	r28, 0x7F	; 127
    5868:	df 4f       	sbci	r29, 0xFF	; 255
    586a:	68 83       	st	Y, r22
    586c:	c1 58       	subi	r28, 0x81	; 129
    586e:	d0 40       	sbci	r29, 0x00	; 0
    5870:	ce 57       	subi	r28, 0x7E	; 126
    5872:	df 4f       	sbci	r29, 0xFF	; 255
    5874:	78 83       	st	Y, r23
    5876:	c2 58       	subi	r28, 0x82	; 130
    5878:	d0 40       	sbci	r29, 0x00	; 0
    587a:	0e 94 91 21 	call	0x4322	; 0x4322 <eeprom_write_config>
    587e:	cd 57       	subi	r28, 0x7D	; 125
    5880:	df 4f       	sbci	r29, 0xFF	; 255
    5882:	48 81       	ld	r20, Y
    5884:	c3 58       	subi	r28, 0x83	; 131
    5886:	d0 40       	sbci	r29, 0x00	; 0
    5888:	cf 57       	subi	r28, 0x7F	; 127
    588a:	df 4f       	sbci	r29, 0xFF	; 255
    588c:	68 81       	ld	r22, Y
    588e:	c1 58       	subi	r28, 0x81	; 129
    5890:	d0 40       	sbci	r29, 0x00	; 0
    5892:	ce 57       	subi	r28, 0x7E	; 126
    5894:	df 4f       	sbci	r29, 0xFF	; 255
    5896:	78 81       	ld	r23, Y
    5898:	c2 58       	subi	r28, 0x82	; 130
    589a:	d0 40       	sbci	r29, 0x00	; 0
    589c:	41 30       	cpi	r20, 0x01	; 1
    589e:	21 f0       	breq	.+8      	; 0x58a8 <main+0x84a>
    58a0:	42 30       	cpi	r20, 0x02	; 2
    58a2:	91 f0       	breq	.+36     	; 0x58c8 <main+0x86a>
    58a4:	8f e6       	ldi	r24, 0x6F	; 111
    58a6:	11 c0       	rjmp	.+34     	; 0x58ca <main+0x86c>
    58a8:	80 e7       	ldi	r24, 0x70	; 112
    58aa:	cd 57       	subi	r28, 0x7D	; 125
    58ac:	df 4f       	sbci	r29, 0xFF	; 255
    58ae:	48 83       	st	Y, r20
    58b0:	c3 58       	subi	r28, 0x83	; 131
    58b2:	d0 40       	sbci	r29, 0x00	; 0
    58b4:	0e 94 89 1c 	call	0x3912	; 0x3912 <buffer_str_event>
    58b8:	cd 57       	subi	r28, 0x7D	; 125
    58ba:	df 4f       	sbci	r29, 0xFF	; 255
    58bc:	48 81       	ld	r20, Y
    58be:	c3 58       	subi	r28, 0x83	; 131
    58c0:	d0 40       	sbci	r29, 0x00	; 0
    58c2:	40 93 ac 28 	sts	0x28AC, r20
    58c6:	05 c0       	rjmp	.+10     	; 0x58d2 <main+0x874>
    58c8:	81 e7       	ldi	r24, 0x71	; 113
    58ca:	0e 94 89 1c 	call	0x3912	; 0x3912 <buffer_str_event>
    58ce:	70 92 ac 28 	sts	0x28AC, r7
    58d2:	e3 94       	inc	r14
    58d4:	80 91 84 2d 	lds	r24, 0x2D84
    58d8:	e8 16       	cp	r14, r24
    58da:	08 f0       	brcs	.+2      	; 0x58de <main+0x880>
    58dc:	59 cf       	rjmp	.-334    	; 0x5790 <main+0x732>
    58de:	73 e7       	ldi	r23, 0x73	; 115
    58e0:	87 2e       	mov	r8, r23
    58e2:	7b e2       	ldi	r23, 0x2B	; 43
    58e4:	97 2e       	mov	r9, r23
    58e6:	c1 2c       	mov	r12, r1
    58e8:	d1 2c       	mov	r13, r1
    58ea:	28 e0       	ldi	r18, 0x08	; 8
    58ec:	e2 9e       	mul	r14, r18
    58ee:	50 01       	movw	r10, r0
    58f0:	11 24       	eor	r1, r1
    58f2:	84 e0       	ldi	r24, 0x04	; 4
    58f4:	9d e2       	ldi	r25, 0x2D	; 45
    58f6:	a8 0e       	add	r10, r24
    58f8:	b9 1e       	adc	r11, r25
    58fa:	5e cf       	rjmp	.-324    	; 0x57b8 <main+0x75a>
    58fc:	8a e0       	ldi	r24, 0x0A	; 10
    58fe:	90 e0       	ldi	r25, 0x00	; 0
    5900:	0e 94 32 1b 	call	0x3664	; 0x3664 <wdt_set_timeout_period>
    5904:	0e 94 47 1b 	call	0x368e	; 0x368e <wdt_enable>
    5908:	0e 94 89 0a 	call	0x1512	; 0x1512 <ds18b20_update_sensors>
    590c:	0e 94 3f 1b 	call	0x367e	; 0x367e <wdt_disable>
    5910:	83 ed       	ldi	r24, 0xD3	; 211
    5912:	92 e2       	ldi	r25, 0x22	; 34
    5914:	0e 94 88 10 	call	0x2110	; 0x2110 <DEBUG_puts>
    5918:	80 e0       	ldi	r24, 0x00	; 0
    591a:	0e 94 f9 1b 	call	0x37f2	; 0x37f2 <get_current_pulse_counter>
    591e:	0e 94 99 10 	call	0x2132	; 0x2132 <DEBUG_putu>
    5922:	88 ed       	ldi	r24, 0xD8	; 216
    5924:	92 e2       	ldi	r25, 0x22	; 34
    5926:	0e 94 88 10 	call	0x2110	; 0x2110 <DEBUG_puts>
    592a:	81 e0       	ldi	r24, 0x01	; 1
    592c:	0e 94 f9 1b 	call	0x37f2	; 0x37f2 <get_current_pulse_counter>
    5930:	0e 94 99 10 	call	0x2132	; 0x2132 <DEBUG_putu>
    5934:	8a ed       	ldi	r24, 0xDA	; 218
    5936:	92 e2       	ldi	r25, 0x22	; 34
    5938:	0e 94 93 10 	call	0x2126	; 0x2126 <DEBUG_putcrlf>
    593c:	80 91 a7 28 	lds	r24, 0x28A7
    5940:	88 23       	and	r24, r24
    5942:	09 f4       	brne	.+2      	; 0x5946 <main+0x8e8>
    5944:	c2 ce       	rjmp	.-636    	; 0x56ca <main+0x66c>
    5946:	80 91 a8 28 	lds	r24, 0x28A8
    594a:	81 11       	cpse	r24, r1
    594c:	be ce       	rjmp	.-644    	; 0x56ca <main+0x66c>
    594e:	80 91 a9 28 	lds	r24, 0x28A9
    5952:	88 23       	and	r24, r24
    5954:	51 f1       	breq	.+84     	; 0x59aa <main+0x94c>
    5956:	9e 01       	movw	r18, r28
    5958:	2f 5f       	subi	r18, 0xFF	; 255
    595a:	3f 4f       	sbci	r19, 0xFF	; 255
    595c:	80 e1       	ldi	r24, 0x10	; 16
    595e:	d9 01       	movw	r26, r18
    5960:	1d 92       	st	X+, r1
    5962:	8a 95       	dec	r24
    5964:	e9 f7       	brne	.-6      	; 0x5960 <main+0x902>
    5966:	81 ee       	ldi	r24, 0xE1	; 225
    5968:	92 e2       	ldi	r25, 0x22	; 34
    596a:	89 83       	std	Y+1, r24	; 0x01
    596c:	9a 83       	std	Y+2, r25	; 0x02
    596e:	81 e0       	ldi	r24, 0x01	; 1
    5970:	90 e0       	ldi	r25, 0x00	; 0
    5972:	8b 83       	std	Y+3, r24	; 0x03
    5974:	9c 83       	std	Y+4, r25	; 0x04
    5976:	85 ee       	ldi	r24, 0xE5	; 229
    5978:	92 e2       	ldi	r25, 0x22	; 34
    597a:	8d 83       	std	Y+5, r24	; 0x05
    597c:	9e 83       	std	Y+6, r25	; 0x06
    597e:	83 ef       	ldi	r24, 0xF3	; 243
    5980:	92 e2       	ldi	r25, 0x22	; 34
    5982:	89 87       	std	Y+9, r24	; 0x09
    5984:	9a 87       	std	Y+10, r25	; 0x0a
    5986:	80 91 a6 28 	lds	r24, 0x28A6
    598a:	90 e0       	ldi	r25, 0x00	; 0
    598c:	a0 e0       	ldi	r26, 0x00	; 0
    598e:	b0 e0       	ldi	r27, 0x00	; 0
    5990:	8d 87       	std	Y+13, r24	; 0x0d
    5992:	9e 87       	std	Y+14, r25	; 0x0e
    5994:	af 87       	std	Y+15, r26	; 0x0f
    5996:	b8 8b       	std	Y+16, r27	; 0x10
    5998:	81 e0       	ldi	r24, 0x01	; 1
    599a:	80 93 a8 28 	sts	0x28A8, r24
    599e:	42 e0       	ldi	r20, 0x02	; 2
    59a0:	66 ef       	ldi	r22, 0xF6	; 246
    59a2:	72 e2       	ldi	r23, 0x22	; 34
    59a4:	85 e4       	ldi	r24, 0x45	; 69
    59a6:	9c e1       	ldi	r25, 0x1C	; 28
    59a8:	cc c3       	rjmp	.+1944   	; 0x6142 <main+0x10e4>
    59aa:	80 91 ac 28 	lds	r24, 0x28AC
    59ae:	88 23       	and	r24, r24
    59b0:	09 f4       	brne	.+2      	; 0x59b4 <main+0x956>
    59b2:	7b c0       	rjmp	.+246    	; 0x5aaa <main+0xa4c>
    59b4:	88 e1       	ldi	r24, 0x18	; 24
    59b6:	f8 01       	movw	r30, r16
    59b8:	11 92       	st	Z+, r1
    59ba:	8a 95       	dec	r24
    59bc:	e9 f7       	brne	.-6      	; 0x59b8 <main+0x95a>
    59be:	85 e0       	ldi	r24, 0x05	; 5
    59c0:	93 e2       	ldi	r25, 0x23	; 35
    59c2:	d8 01       	movw	r26, r16
    59c4:	8d 93       	st	X+, r24
    59c6:	9c 93       	st	X, r25
    59c8:	11 97       	sbiw	r26, 0x01	; 1
    59ca:	81 e0       	ldi	r24, 0x01	; 1
    59cc:	90 e0       	ldi	r25, 0x00	; 0
    59ce:	12 96       	adiw	r26, 0x02	; 2
    59d0:	8d 93       	st	X+, r24
    59d2:	9c 93       	st	X, r25
    59d4:	13 97       	sbiw	r26, 0x03	; 3
    59d6:	9e 01       	movw	r18, r28
    59d8:	2f 5f       	subi	r18, 0xFF	; 255
    59da:	3f 4f       	sbci	r19, 0xFF	; 255
    59dc:	14 96       	adiw	r26, 0x04	; 4
    59de:	2d 93       	st	X+, r18
    59e0:	3c 93       	st	X, r19
    59e2:	15 97       	sbiw	r26, 0x05	; 5
    59e4:	49 e0       	ldi	r20, 0x09	; 9
    59e6:	53 e2       	ldi	r21, 0x23	; 35
    59e8:	18 96       	adiw	r26, 0x08	; 8
    59ea:	4d 93       	st	X+, r20
    59ec:	5c 93       	st	X, r21
    59ee:	19 97       	sbiw	r26, 0x09	; 9
    59f0:	1a 96       	adiw	r26, 0x0a	; 10
    59f2:	8d 93       	st	X+, r24
    59f4:	9c 93       	st	X, r25
    59f6:	1b 97       	sbiw	r26, 0x0b	; 11
    59f8:	ae 01       	movw	r20, r28
    59fa:	4e 5e       	subi	r20, 0xEE	; 238
    59fc:	5f 4f       	sbci	r21, 0xFF	; 255
    59fe:	1c 96       	adiw	r26, 0x0c	; 12
    5a00:	4d 93       	st	X+, r20
    5a02:	5c 93       	st	X, r21
    5a04:	1d 97       	sbiw	r26, 0x0d	; 13
    5a06:	4d e0       	ldi	r20, 0x0D	; 13
    5a08:	53 e2       	ldi	r21, 0x23	; 35
    5a0a:	50 96       	adiw	r26, 0x10	; 16
    5a0c:	4d 93       	st	X+, r20
    5a0e:	5c 93       	st	X, r21
    5a10:	51 97       	sbiw	r26, 0x11	; 17
    5a12:	52 96       	adiw	r26, 0x12	; 18
    5a14:	8d 93       	st	X+, r24
    5a16:	9c 93       	st	X, r25
    5a18:	53 97       	sbiw	r26, 0x13	; 19
    5a1a:	ce 01       	movw	r24, r28
    5a1c:	83 96       	adiw	r24, 0x23	; 35
    5a1e:	54 96       	adiw	r26, 0x14	; 20
    5a20:	8d 93       	st	X+, r24
    5a22:	9c 93       	st	X, r25
    5a24:	55 97       	sbiw	r26, 0x15	; 21
    5a26:	40 e7       	ldi	r20, 0x70	; 112
    5a28:	5b e2       	ldi	r21, 0x2B	; 43
    5a2a:	80 e0       	ldi	r24, 0x00	; 0
    5a2c:	90 e0       	ldi	r25, 0x00	; 0
    5a2e:	61 e1       	ldi	r22, 0x11	; 17
    5a30:	b6 2e       	mov	r11, r22
    5a32:	69 01       	movw	r12, r18
    5a34:	b8 9e       	mul	r11, r24
    5a36:	40 01       	movw	r8, r0
    5a38:	b9 9e       	mul	r11, r25
    5a3a:	90 0c       	add	r9, r0
    5a3c:	11 24       	eor	r1, r1
    5a3e:	8c 0c       	add	r8, r12
    5a40:	9d 1c       	adc	r9, r13
    5a42:	d4 01       	movw	r26, r8
    5a44:	20 e0       	ldi	r18, 0x00	; 0
    5a46:	30 e0       	ldi	r19, 0x00	; 0
    5a48:	ba 01       	movw	r22, r20
    5a4a:	62 0f       	add	r22, r18
    5a4c:	73 1f       	adc	r23, r19
    5a4e:	fb 01       	movw	r30, r22
    5a50:	e4 80       	ldd	r14, Z+4	; 0x04
    5a52:	6e 2d       	mov	r22, r14
    5a54:	62 95       	swap	r22
    5a56:	6f 70       	andi	r22, 0x0F	; 15
    5a58:	70 e0       	ldi	r23, 0x00	; 0
    5a5a:	63 52       	subi	r22, 0x23	; 35
    5a5c:	7e 4d       	sbci	r23, 0xDE	; 222
    5a5e:	fb 01       	movw	r30, r22
    5a60:	60 81       	ld	r22, Z
    5a62:	6c 93       	st	X, r22
    5a64:	6e 2d       	mov	r22, r14
    5a66:	6f 70       	andi	r22, 0x0F	; 15
    5a68:	70 e0       	ldi	r23, 0x00	; 0
    5a6a:	63 52       	subi	r22, 0x23	; 35
    5a6c:	7e 4d       	sbci	r23, 0xDE	; 222
    5a6e:	fb 01       	movw	r30, r22
    5a70:	60 81       	ld	r22, Z
    5a72:	11 96       	adiw	r26, 0x01	; 1
    5a74:	6c 93       	st	X, r22
    5a76:	11 97       	sbiw	r26, 0x01	; 1
    5a78:	12 96       	adiw	r26, 0x02	; 2
    5a7a:	2f 5f       	subi	r18, 0xFF	; 255
    5a7c:	3f 4f       	sbci	r19, 0xFF	; 255
    5a7e:	28 30       	cpi	r18, 0x08	; 8
    5a80:	31 05       	cpc	r19, r1
    5a82:	11 f7       	brne	.-60     	; 0x5a48 <main+0x9ea>
    5a84:	d4 01       	movw	r26, r8
    5a86:	50 96       	adiw	r26, 0x10	; 16
    5a88:	1c 92       	st	X, r1
    5a8a:	01 96       	adiw	r24, 0x01	; 1
    5a8c:	47 5f       	subi	r20, 0xF7	; 247
    5a8e:	5f 4f       	sbci	r21, 0xFF	; 255
    5a90:	83 30       	cpi	r24, 0x03	; 3
    5a92:	91 05       	cpc	r25, r1
    5a94:	79 f6       	brne	.-98     	; 0x5a34 <main+0x9d6>
    5a96:	81 e0       	ldi	r24, 0x01	; 1
    5a98:	80 93 a8 28 	sts	0x28A8, r24
    5a9c:	98 01       	movw	r18, r16
    5a9e:	43 e0       	ldi	r20, 0x03	; 3
    5aa0:	61 ef       	ldi	r22, 0xF1	; 241
    5aa2:	71 e2       	ldi	r23, 0x21	; 33
    5aa4:	86 e3       	ldi	r24, 0x36	; 54
    5aa6:	9c e1       	ldi	r25, 0x1C	; 28
    5aa8:	4c c3       	rjmp	.+1688   	; 0x6142 <main+0x10e4>
    5aaa:	80 91 aa 28 	lds	r24, 0x28AA
    5aae:	88 23       	and	r24, r24
    5ab0:	09 f4       	brne	.+2      	; 0x5ab4 <main+0xa56>
    5ab2:	d3 c0       	rjmp	.+422    	; 0x5c5a <main+0xbfc>
    5ab4:	fe 01       	movw	r30, r28
    5ab6:	31 96       	adiw	r30, 0x01	; 1
    5ab8:	80 e5       	ldi	r24, 0x50	; 80
    5aba:	df 01       	movw	r26, r30
    5abc:	1d 92       	st	X+, r1
    5abe:	8a 95       	dec	r24
    5ac0:	e9 f7       	brne	.-6      	; 0x5abc <main+0xa5e>
    5ac2:	80 e0       	ldi	r24, 0x00	; 0
    5ac4:	92 e2       	ldi	r25, 0x22	; 34
    5ac6:	89 83       	std	Y+1, r24	; 0x01
    5ac8:	9a 83       	std	Y+2, r25	; 0x02
    5aca:	80 91 71 2b 	lds	r24, 0x2B71
    5ace:	90 91 72 2b 	lds	r25, 0x2B72
    5ad2:	a0 e0       	ldi	r26, 0x00	; 0
    5ad4:	b0 e0       	ldi	r27, 0x00	; 0
    5ad6:	8d 83       	std	Y+5, r24	; 0x05
    5ad8:	9e 83       	std	Y+6, r25	; 0x06
    5ada:	af 83       	std	Y+7, r26	; 0x07
    5adc:	b8 87       	std	Y+8, r27	; 0x08
    5ade:	84 e0       	ldi	r24, 0x04	; 4
    5ae0:	92 e2       	ldi	r25, 0x22	; 34
    5ae2:	89 87       	std	Y+9, r24	; 0x09
    5ae4:	9a 87       	std	Y+10, r25	; 0x0a
    5ae6:	20 91 8e 2b 	lds	r18, 0x2B8E
    5aea:	30 91 8f 2b 	lds	r19, 0x2B8F
    5aee:	37 ff       	sbrs	r19, 7
    5af0:	02 c0       	rjmp	.+4      	; 0x5af6 <main+0xa98>
    5af2:	21 5f       	subi	r18, 0xF1	; 241
    5af4:	3f 4f       	sbci	r19, 0xFF	; 255
    5af6:	c9 01       	movw	r24, r18
    5af8:	54 e0       	ldi	r21, 0x04	; 4
    5afa:	95 95       	asr	r25
    5afc:	87 95       	ror	r24
    5afe:	5a 95       	dec	r21
    5b00:	e1 f7       	brne	.-8      	; 0x5afa <main+0xa9c>
    5b02:	aa 27       	eor	r26, r26
    5b04:	97 fd       	sbrc	r25, 7
    5b06:	a0 95       	com	r26
    5b08:	ba 2f       	mov	r27, r26
    5b0a:	8d 87       	std	Y+13, r24	; 0x0d
    5b0c:	9e 87       	std	Y+14, r25	; 0x0e
    5b0e:	af 87       	std	Y+15, r26	; 0x0f
    5b10:	b8 8b       	std	Y+16, r27	; 0x10
    5b12:	8c e0       	ldi	r24, 0x0C	; 12
    5b14:	92 e2       	ldi	r25, 0x22	; 34
    5b16:	89 8b       	std	Y+17, r24	; 0x11
    5b18:	9a 8b       	std	Y+18, r25	; 0x12
    5b1a:	80 91 94 2b 	lds	r24, 0x2B94
    5b1e:	90 91 95 2b 	lds	r25, 0x2B95
    5b22:	a0 91 96 2b 	lds	r26, 0x2B96
    5b26:	b0 91 97 2b 	lds	r27, 0x2B97
    5b2a:	8d 8b       	std	Y+21, r24	; 0x15
    5b2c:	9e 8b       	std	Y+22, r25	; 0x16
    5b2e:	af 8b       	std	Y+23, r26	; 0x17
    5b30:	b8 8f       	std	Y+24, r27	; 0x18
    5b32:	81 e1       	ldi	r24, 0x11	; 17
    5b34:	92 e2       	ldi	r25, 0x22	; 34
    5b36:	89 8f       	std	Y+25, r24	; 0x19
    5b38:	9a 8f       	std	Y+26, r25	; 0x1a
    5b3a:	80 91 90 2b 	lds	r24, 0x2B90
    5b3e:	90 91 91 2b 	lds	r25, 0x2B91
    5b42:	a0 91 92 2b 	lds	r26, 0x2B92
    5b46:	b0 91 93 2b 	lds	r27, 0x2B93
    5b4a:	8d 8f       	std	Y+29, r24	; 0x1d
    5b4c:	9e 8f       	std	Y+30, r25	; 0x1e
    5b4e:	af 8f       	std	Y+31, r26	; 0x1f
    5b50:	b8 a3       	std	Y+32, r27	; 0x20
    5b52:	88 e5       	ldi	r24, 0x58	; 88
    5b54:	92 e2       	ldi	r25, 0x22	; 34
    5b56:	89 a3       	std	Y+33, r24	; 0x21
    5b58:	9a a3       	std	Y+34, r25	; 0x22
    5b5a:	20 91 a4 2b 	lds	r18, 0x2BA4
    5b5e:	30 91 a5 2b 	lds	r19, 0x2BA5
    5b62:	37 ff       	sbrs	r19, 7
    5b64:	02 c0       	rjmp	.+4      	; 0x5b6a <main+0xb0c>
    5b66:	21 5f       	subi	r18, 0xF1	; 241
    5b68:	3f 4f       	sbci	r19, 0xFF	; 255
    5b6a:	c9 01       	movw	r24, r18
    5b6c:	44 e0       	ldi	r20, 0x04	; 4
    5b6e:	95 95       	asr	r25
    5b70:	87 95       	ror	r24
    5b72:	4a 95       	dec	r20
    5b74:	e1 f7       	brne	.-8      	; 0x5b6e <main+0xb10>
    5b76:	aa 27       	eor	r26, r26
    5b78:	97 fd       	sbrc	r25, 7
    5b7a:	a0 95       	com	r26
    5b7c:	ba 2f       	mov	r27, r26
    5b7e:	8d a3       	std	Y+37, r24	; 0x25
    5b80:	9e a3       	std	Y+38, r25	; 0x26
    5b82:	af a3       	std	Y+39, r26	; 0x27
    5b84:	b8 a7       	std	Y+40, r27	; 0x28
    5b86:	80 e6       	ldi	r24, 0x60	; 96
    5b88:	92 e2       	ldi	r25, 0x22	; 34
    5b8a:	89 a7       	std	Y+41, r24	; 0x29
    5b8c:	9a a7       	std	Y+42, r25	; 0x2a
    5b8e:	80 91 a6 2b 	lds	r24, 0x2BA6
    5b92:	90 91 a7 2b 	lds	r25, 0x2BA7
    5b96:	a0 e0       	ldi	r26, 0x00	; 0
    5b98:	b0 e0       	ldi	r27, 0x00	; 0
    5b9a:	8d a7       	std	Y+45, r24	; 0x2d
    5b9c:	9e a7       	std	Y+46, r25	; 0x2e
    5b9e:	af a7       	std	Y+47, r26	; 0x2f
    5ba0:	b8 ab       	std	Y+48, r27	; 0x30
    5ba2:	84 e6       	ldi	r24, 0x64	; 100
    5ba4:	92 e2       	ldi	r25, 0x22	; 34
    5ba6:	89 ab       	std	Y+49, r24	; 0x31
    5ba8:	9a ab       	std	Y+50, r25	; 0x32
    5baa:	82 e0       	ldi	r24, 0x02	; 2
    5bac:	90 e0       	ldi	r25, 0x00	; 0
    5bae:	8b ab       	std	Y+51, r24	; 0x33
    5bb0:	9c ab       	std	Y+52, r25	; 0x34
    5bb2:	20 91 a8 2b 	lds	r18, 0x2BA8
    5bb6:	2d ab       	std	Y+53, r18	; 0x35
    5bb8:	2a e6       	ldi	r18, 0x6A	; 106
    5bba:	32 e2       	ldi	r19, 0x22	; 34
    5bbc:	29 af       	std	Y+57, r18	; 0x39
    5bbe:	3a af       	std	Y+58, r19	; 0x3a
    5bc0:	8b af       	std	Y+59, r24	; 0x3b
    5bc2:	9c af       	std	Y+60, r25	; 0x3c
    5bc4:	80 91 a9 2b 	lds	r24, 0x2BA9
    5bc8:	8d af       	std	Y+61, r24	; 0x3d
    5bca:	80 e7       	ldi	r24, 0x70	; 112
    5bcc:	92 e2       	ldi	r25, 0x22	; 34
    5bce:	23 96       	adiw	r28, 0x03	; 3
    5bd0:	8e af       	std	Y+62, r24	; 0x3e
    5bd2:	9f af       	std	Y+63, r25	; 0x3f
    5bd4:	23 97       	sbiw	r28, 0x03	; 3
    5bd6:	20 91 aa 2b 	lds	r18, 0x2BAA
    5bda:	30 91 ab 2b 	lds	r19, 0x2BAB
    5bde:	37 ff       	sbrs	r19, 7
    5be0:	02 c0       	rjmp	.+4      	; 0x5be6 <main+0xb88>
    5be2:	21 5f       	subi	r18, 0xF1	; 241
    5be4:	3f 4f       	sbci	r19, 0xFF	; 255
    5be6:	c9 01       	movw	r24, r18
    5be8:	34 e0       	ldi	r19, 0x04	; 4
    5bea:	95 95       	asr	r25
    5bec:	87 95       	ror	r24
    5bee:	3a 95       	dec	r19
    5bf0:	e1 f7       	brne	.-8      	; 0x5bea <main+0xb8c>
    5bf2:	aa 27       	eor	r26, r26
    5bf4:	97 fd       	sbrc	r25, 7
    5bf6:	a0 95       	com	r26
    5bf8:	ba 2f       	mov	r27, r26
    5bfa:	29 96       	adiw	r28, 0x09	; 9
    5bfc:	8c af       	std	Y+60, r24	; 0x3c
    5bfe:	9d af       	std	Y+61, r25	; 0x3d
    5c00:	ae af       	std	Y+62, r26	; 0x3e
    5c02:	bf af       	std	Y+63, r27	; 0x3f
    5c04:	29 97       	sbiw	r28, 0x09	; 9
    5c06:	89 e7       	ldi	r24, 0x79	; 121
    5c08:	92 e2       	ldi	r25, 0x22	; 34
    5c0a:	2b 96       	adiw	r28, 0x0b	; 11
    5c0c:	8e af       	std	Y+62, r24	; 0x3e
    5c0e:	9f af       	std	Y+63, r25	; 0x3f
    5c10:	2b 97       	sbiw	r28, 0x0b	; 11
    5c12:	20 91 ac 2b 	lds	r18, 0x2BAC
    5c16:	30 91 ad 2b 	lds	r19, 0x2BAD
    5c1a:	37 ff       	sbrs	r19, 7
    5c1c:	02 c0       	rjmp	.+4      	; 0x5c22 <main+0xbc4>
    5c1e:	21 5f       	subi	r18, 0xF1	; 241
    5c20:	3f 4f       	sbci	r19, 0xFF	; 255
    5c22:	c9 01       	movw	r24, r18
    5c24:	24 e0       	ldi	r18, 0x04	; 4
    5c26:	95 95       	asr	r25
    5c28:	87 95       	ror	r24
    5c2a:	2a 95       	dec	r18
    5c2c:	e1 f7       	brne	.-8      	; 0x5c26 <main+0xbc8>
    5c2e:	aa 27       	eor	r26, r26
    5c30:	97 fd       	sbrc	r25, 7
    5c32:	a0 95       	com	r26
    5c34:	ba 2f       	mov	r27, r26
    5c36:	61 96       	adiw	r28, 0x11	; 17
    5c38:	8c af       	std	Y+60, r24	; 0x3c
    5c3a:	9d af       	std	Y+61, r25	; 0x3d
    5c3c:	ae af       	std	Y+62, r26	; 0x3e
    5c3e:	bf af       	std	Y+63, r27	; 0x3f
    5c40:	61 97       	sbiw	r28, 0x11	; 17
    5c42:	81 e0       	ldi	r24, 0x01	; 1
    5c44:	80 93 a8 28 	sts	0x28A8, r24
    5c48:	9e 01       	movw	r18, r28
    5c4a:	2f 5f       	subi	r18, 0xFF	; 255
    5c4c:	3f 4f       	sbci	r19, 0xFF	; 255
    5c4e:	4a e0       	ldi	r20, 0x0A	; 10
    5c50:	61 ef       	ldi	r22, 0xF1	; 241
    5c52:	71 e2       	ldi	r23, 0x21	; 33
    5c54:	88 e1       	ldi	r24, 0x18	; 24
    5c56:	9c e1       	ldi	r25, 0x1C	; 28
    5c58:	74 c2       	rjmp	.+1256   	; 0x6142 <main+0x10e4>
    5c5a:	80 91 ab 28 	lds	r24, 0x28AB
    5c5e:	88 23       	and	r24, r24
    5c60:	09 f4       	brne	.+2      	; 0x5c64 <main+0xc06>
    5c62:	fe c0       	rjmp	.+508    	; 0x5e60 <main+0xe02>
    5c64:	86 e1       	ldi	r24, 0x16	; 22
    5c66:	92 e2       	ldi	r25, 0x22	; 34
    5c68:	89 83       	std	Y+1, r24	; 0x01
    5c6a:	9a 83       	std	Y+2, r25	; 0x02
    5c6c:	1b 82       	std	Y+3, r1	; 0x03
    5c6e:	1c 82       	std	Y+4, r1	; 0x04
    5c70:	80 91 98 2b 	lds	r24, 0x2B98
    5c74:	90 91 99 2b 	lds	r25, 0x2B99
    5c78:	a0 91 9a 2b 	lds	r26, 0x2B9A
    5c7c:	b0 91 9b 2b 	lds	r27, 0x2B9B
    5c80:	8d 83       	std	Y+5, r24	; 0x05
    5c82:	9e 83       	std	Y+6, r25	; 0x06
    5c84:	af 83       	std	Y+7, r26	; 0x07
    5c86:	b8 87       	std	Y+8, r27	; 0x08
    5c88:	8a e1       	ldi	r24, 0x1A	; 26
    5c8a:	92 e2       	ldi	r25, 0x22	; 34
    5c8c:	89 87       	std	Y+9, r24	; 0x09
    5c8e:	9a 87       	std	Y+10, r25	; 0x0a
    5c90:	1b 86       	std	Y+11, r1	; 0x0b
    5c92:	1c 86       	std	Y+12, r1	; 0x0c
    5c94:	80 91 9c 2b 	lds	r24, 0x2B9C
    5c98:	90 91 9d 2b 	lds	r25, 0x2B9D
    5c9c:	a0 91 9e 2b 	lds	r26, 0x2B9E
    5ca0:	b0 91 9f 2b 	lds	r27, 0x2B9F
    5ca4:	8d 87       	std	Y+13, r24	; 0x0d
    5ca6:	9e 87       	std	Y+14, r25	; 0x0e
    5ca8:	af 87       	std	Y+15, r26	; 0x0f
    5caa:	b8 8b       	std	Y+16, r27	; 0x10
    5cac:	8e e1       	ldi	r24, 0x1E	; 30
    5cae:	92 e2       	ldi	r25, 0x22	; 34
    5cb0:	89 8b       	std	Y+17, r24	; 0x11
    5cb2:	9a 8b       	std	Y+18, r25	; 0x12
    5cb4:	1b 8a       	std	Y+19, r1	; 0x13
    5cb6:	1c 8a       	std	Y+20, r1	; 0x14
    5cb8:	80 91 a0 2b 	lds	r24, 0x2BA0
    5cbc:	90 91 a1 2b 	lds	r25, 0x2BA1
    5cc0:	a0 91 a2 2b 	lds	r26, 0x2BA2
    5cc4:	b0 91 a3 2b 	lds	r27, 0x2BA3
    5cc8:	8d 8b       	std	Y+21, r24	; 0x15
    5cca:	9e 8b       	std	Y+22, r25	; 0x16
    5ccc:	af 8b       	std	Y+23, r26	; 0x17
    5cce:	b8 8f       	std	Y+24, r27	; 0x18
    5cd0:	82 e2       	ldi	r24, 0x22	; 34
    5cd2:	92 e2       	ldi	r25, 0x22	; 34
    5cd4:	89 8f       	std	Y+25, r24	; 0x19
    5cd6:	9a 8f       	std	Y+26, r25	; 0x1a
    5cd8:	1b 8e       	std	Y+27, r1	; 0x1b
    5cda:	1c 8e       	std	Y+28, r1	; 0x1c
    5cdc:	80 91 ae 2b 	lds	r24, 0x2BAE
    5ce0:	90 91 af 2b 	lds	r25, 0x2BAF
    5ce4:	a0 91 b0 2b 	lds	r26, 0x2BB0
    5ce8:	b0 91 b1 2b 	lds	r27, 0x2BB1
    5cec:	8d 8f       	std	Y+29, r24	; 0x1d
    5cee:	9e 8f       	std	Y+30, r25	; 0x1e
    5cf0:	af 8f       	std	Y+31, r26	; 0x1f
    5cf2:	b8 a3       	std	Y+32, r27	; 0x20
    5cf4:	88 e2       	ldi	r24, 0x28	; 40
    5cf6:	92 e2       	ldi	r25, 0x22	; 34
    5cf8:	89 a3       	std	Y+33, r24	; 0x21
    5cfa:	9a a3       	std	Y+34, r25	; 0x22
    5cfc:	1b a2       	std	Y+35, r1	; 0x23
    5cfe:	1c a2       	std	Y+36, r1	; 0x24
    5d00:	80 91 b2 2b 	lds	r24, 0x2BB2
    5d04:	90 91 b3 2b 	lds	r25, 0x2BB3
    5d08:	a0 91 b4 2b 	lds	r26, 0x2BB4
    5d0c:	b0 91 b5 2b 	lds	r27, 0x2BB5
    5d10:	8d a3       	std	Y+37, r24	; 0x25
    5d12:	9e a3       	std	Y+38, r25	; 0x26
    5d14:	af a3       	std	Y+39, r26	; 0x27
    5d16:	b8 a7       	std	Y+40, r27	; 0x28
    5d18:	8e e2       	ldi	r24, 0x2E	; 46
    5d1a:	92 e2       	ldi	r25, 0x22	; 34
    5d1c:	89 a7       	std	Y+41, r24	; 0x29
    5d1e:	9a a7       	std	Y+42, r25	; 0x2a
    5d20:	1b a6       	std	Y+43, r1	; 0x2b
    5d22:	1c a6       	std	Y+44, r1	; 0x2c
    5d24:	80 91 b6 2b 	lds	r24, 0x2BB6
    5d28:	90 91 b7 2b 	lds	r25, 0x2BB7
    5d2c:	a0 91 b8 2b 	lds	r26, 0x2BB8
    5d30:	b0 91 b9 2b 	lds	r27, 0x2BB9
    5d34:	8d a7       	std	Y+45, r24	; 0x2d
    5d36:	9e a7       	std	Y+46, r25	; 0x2e
    5d38:	af a7       	std	Y+47, r26	; 0x2f
    5d3a:	b8 ab       	std	Y+48, r27	; 0x30
    5d3c:	84 e3       	ldi	r24, 0x34	; 52
    5d3e:	92 e2       	ldi	r25, 0x22	; 34
    5d40:	89 ab       	std	Y+49, r24	; 0x31
    5d42:	9a ab       	std	Y+50, r25	; 0x32
    5d44:	1b aa       	std	Y+51, r1	; 0x33
    5d46:	1c aa       	std	Y+52, r1	; 0x34
    5d48:	80 91 ba 2b 	lds	r24, 0x2BBA
    5d4c:	90 91 bb 2b 	lds	r25, 0x2BBB
    5d50:	a0 91 bc 2b 	lds	r26, 0x2BBC
    5d54:	b0 91 bd 2b 	lds	r27, 0x2BBD
    5d58:	8d ab       	std	Y+53, r24	; 0x35
    5d5a:	9e ab       	std	Y+54, r25	; 0x36
    5d5c:	af ab       	std	Y+55, r26	; 0x37
    5d5e:	b8 af       	std	Y+56, r27	; 0x38
    5d60:	8a e3       	ldi	r24, 0x3A	; 58
    5d62:	92 e2       	ldi	r25, 0x22	; 34
    5d64:	89 af       	std	Y+57, r24	; 0x39
    5d66:	9a af       	std	Y+58, r25	; 0x3a
    5d68:	1b ae       	std	Y+59, r1	; 0x3b
    5d6a:	1c ae       	std	Y+60, r1	; 0x3c
    5d6c:	80 91 be 2b 	lds	r24, 0x2BBE
    5d70:	90 91 bf 2b 	lds	r25, 0x2BBF
    5d74:	a0 91 c0 2b 	lds	r26, 0x2BC0
    5d78:	b0 91 c1 2b 	lds	r27, 0x2BC1
    5d7c:	21 96       	adiw	r28, 0x01	; 1
    5d7e:	8c af       	std	Y+60, r24	; 0x3c
    5d80:	9d af       	std	Y+61, r25	; 0x3d
    5d82:	ae af       	std	Y+62, r26	; 0x3e
    5d84:	bf af       	std	Y+63, r27	; 0x3f
    5d86:	21 97       	sbiw	r28, 0x01	; 1
    5d88:	80 e4       	ldi	r24, 0x40	; 64
    5d8a:	92 e2       	ldi	r25, 0x22	; 34
    5d8c:	23 96       	adiw	r28, 0x03	; 3
    5d8e:	8e af       	std	Y+62, r24	; 0x3e
    5d90:	9f af       	std	Y+63, r25	; 0x3f
    5d92:	23 97       	sbiw	r28, 0x03	; 3
    5d94:	25 96       	adiw	r28, 0x05	; 5
    5d96:	1e ae       	std	Y+62, r1	; 0x3e
    5d98:	1f ae       	std	Y+63, r1	; 0x3f
    5d9a:	25 97       	sbiw	r28, 0x05	; 5
    5d9c:	80 91 c2 2b 	lds	r24, 0x2BC2
    5da0:	90 91 c3 2b 	lds	r25, 0x2BC3
    5da4:	a0 91 c4 2b 	lds	r26, 0x2BC4
    5da8:	b0 91 c5 2b 	lds	r27, 0x2BC5
    5dac:	29 96       	adiw	r28, 0x09	; 9
    5dae:	8c af       	std	Y+60, r24	; 0x3c
    5db0:	9d af       	std	Y+61, r25	; 0x3d
    5db2:	ae af       	std	Y+62, r26	; 0x3e
    5db4:	bf af       	std	Y+63, r27	; 0x3f
    5db6:	29 97       	sbiw	r28, 0x09	; 9
    5db8:	86 e4       	ldi	r24, 0x46	; 70
    5dba:	92 e2       	ldi	r25, 0x22	; 34
    5dbc:	2b 96       	adiw	r28, 0x0b	; 11
    5dbe:	8e af       	std	Y+62, r24	; 0x3e
    5dc0:	9f af       	std	Y+63, r25	; 0x3f
    5dc2:	2b 97       	sbiw	r28, 0x0b	; 11
    5dc4:	2d 96       	adiw	r28, 0x0d	; 13
    5dc6:	1e ae       	std	Y+62, r1	; 0x3e
    5dc8:	1f ae       	std	Y+63, r1	; 0x3f
    5dca:	2d 97       	sbiw	r28, 0x0d	; 13
    5dcc:	80 91 c6 2b 	lds	r24, 0x2BC6
    5dd0:	90 91 c7 2b 	lds	r25, 0x2BC7
    5dd4:	a0 91 c8 2b 	lds	r26, 0x2BC8
    5dd8:	b0 91 c9 2b 	lds	r27, 0x2BC9
    5ddc:	61 96       	adiw	r28, 0x11	; 17
    5dde:	8c af       	std	Y+60, r24	; 0x3c
    5de0:	9d af       	std	Y+61, r25	; 0x3d
    5de2:	ae af       	std	Y+62, r26	; 0x3e
    5de4:	bf af       	std	Y+63, r27	; 0x3f
    5de6:	61 97       	sbiw	r28, 0x11	; 17
    5de8:	8c e4       	ldi	r24, 0x4C	; 76
    5dea:	92 e2       	ldi	r25, 0x22	; 34
    5dec:	63 96       	adiw	r28, 0x13	; 19
    5dee:	8e af       	std	Y+62, r24	; 0x3e
    5df0:	9f af       	std	Y+63, r25	; 0x3f
    5df2:	63 97       	sbiw	r28, 0x13	; 19
    5df4:	65 96       	adiw	r28, 0x15	; 21
    5df6:	1e ae       	std	Y+62, r1	; 0x3e
    5df8:	1f ae       	std	Y+63, r1	; 0x3f
    5dfa:	65 97       	sbiw	r28, 0x15	; 21
    5dfc:	80 91 ca 2b 	lds	r24, 0x2BCA
    5e00:	90 91 cb 2b 	lds	r25, 0x2BCB
    5e04:	a0 91 cc 2b 	lds	r26, 0x2BCC
    5e08:	b0 91 cd 2b 	lds	r27, 0x2BCD
    5e0c:	69 96       	adiw	r28, 0x19	; 25
    5e0e:	8c af       	std	Y+60, r24	; 0x3c
    5e10:	9d af       	std	Y+61, r25	; 0x3d
    5e12:	ae af       	std	Y+62, r26	; 0x3e
    5e14:	bf af       	std	Y+63, r27	; 0x3f
    5e16:	69 97       	sbiw	r28, 0x19	; 25
    5e18:	82 e5       	ldi	r24, 0x52	; 82
    5e1a:	92 e2       	ldi	r25, 0x22	; 34
    5e1c:	6b 96       	adiw	r28, 0x1b	; 27
    5e1e:	8e af       	std	Y+62, r24	; 0x3e
    5e20:	9f af       	std	Y+63, r25	; 0x3f
    5e22:	6b 97       	sbiw	r28, 0x1b	; 27
    5e24:	6d 96       	adiw	r28, 0x1d	; 29
    5e26:	1e ae       	std	Y+62, r1	; 0x3e
    5e28:	1f ae       	std	Y+63, r1	; 0x3f
    5e2a:	6d 97       	sbiw	r28, 0x1d	; 29
    5e2c:	80 91 ce 2b 	lds	r24, 0x2BCE
    5e30:	90 91 cf 2b 	lds	r25, 0x2BCF
    5e34:	a0 91 d0 2b 	lds	r26, 0x2BD0
    5e38:	b0 91 d1 2b 	lds	r27, 0x2BD1
    5e3c:	a1 96       	adiw	r28, 0x21	; 33
    5e3e:	8c af       	std	Y+60, r24	; 0x3c
    5e40:	9d af       	std	Y+61, r25	; 0x3d
    5e42:	ae af       	std	Y+62, r26	; 0x3e
    5e44:	bf af       	std	Y+63, r27	; 0x3f
    5e46:	a1 97       	sbiw	r28, 0x21	; 33
    5e48:	81 e0       	ldi	r24, 0x01	; 1
    5e4a:	80 93 a8 28 	sts	0x28A8, r24
    5e4e:	9e 01       	movw	r18, r28
    5e50:	2f 5f       	subi	r18, 0xFF	; 255
    5e52:	3f 4f       	sbci	r19, 0xFF	; 255
    5e54:	4c e0       	ldi	r20, 0x0C	; 12
    5e56:	61 ef       	ldi	r22, 0xF1	; 241
    5e58:	71 e2       	ldi	r23, 0x21	; 33
    5e5a:	87 e2       	ldi	r24, 0x27	; 39
    5e5c:	9c e1       	ldi	r25, 0x1C	; 28
    5e5e:	71 c1       	rjmp	.+738    	; 0x6142 <main+0x10e4>
    5e60:	e0 91 31 29 	lds	r30, 0x2931
    5e64:	80 91 32 29 	lds	r24, 0x2932
    5e68:	8e 17       	cp	r24, r30
    5e6a:	09 f4       	brne	.+2      	; 0x5e6e <main+0xe10>
    5e6c:	3f c0       	rjmp	.+126    	; 0x5eec <main+0xe8e>
    5e6e:	b8 e0       	ldi	r27, 0x08	; 8
    5e70:	eb 9f       	mul	r30, r27
    5e72:	f0 01       	movw	r30, r0
    5e74:	11 24       	eor	r1, r1
    5e76:	ef 54       	subi	r30, 0x4F	; 79
    5e78:	f7 4d       	sbci	r31, 0xD7	; 215
    5e7a:	40 81       	ld	r20, Z
    5e7c:	51 81       	ldd	r21, Z+1	; 0x01
    5e7e:	62 81       	ldd	r22, Z+2	; 0x02
    5e80:	73 81       	ldd	r23, Z+3	; 0x03
    5e82:	d8 01       	movw	r26, r16
    5e84:	4d 93       	st	X+, r20
    5e86:	5d 93       	st	X+, r21
    5e88:	6d 93       	st	X+, r22
    5e8a:	7c 93       	st	X, r23
    5e8c:	13 97       	sbiw	r26, 0x03	; 3
    5e8e:	84 81       	ldd	r24, Z+4	; 0x04
    5e90:	48 2f       	mov	r20, r24
    5e92:	50 e0       	ldi	r21, 0x00	; 0
    5e94:	60 e0       	ldi	r22, 0x00	; 0
    5e96:	70 e0       	ldi	r23, 0x00	; 0
    5e98:	14 96       	adiw	r26, 0x04	; 4
    5e9a:	4d 93       	st	X+, r20
    5e9c:	5d 93       	st	X+, r21
    5e9e:	6d 93       	st	X+, r22
    5ea0:	7c 93       	st	X, r23
    5ea2:	17 97       	sbiw	r26, 0x07	; 7
    5ea4:	85 81       	ldd	r24, Z+5	; 0x05
    5ea6:	88 23       	and	r24, r24
    5ea8:	81 f0       	breq	.+32     	; 0x5eca <main+0xe6c>
    5eaa:	66 81       	ldd	r22, Z+6	; 0x06
    5eac:	77 81       	ldd	r23, Z+7	; 0x07
    5eae:	88 27       	eor	r24, r24
    5eb0:	77 fd       	sbrc	r23, 7
    5eb2:	80 95       	com	r24
    5eb4:	98 2f       	mov	r25, r24
    5eb6:	2a e0       	ldi	r18, 0x0A	; 10
    5eb8:	30 e0       	ldi	r19, 0x00	; 0
    5eba:	ae 01       	movw	r20, r28
    5ebc:	4f 5f       	subi	r20, 0xFF	; 255
    5ebe:	5f 4f       	sbci	r21, 0xFF	; 255
    5ec0:	29 d3       	rcall	.+1618   	; 0x6514 <ltoa>
    5ec2:	f8 01       	movw	r30, r16
    5ec4:	80 87       	std	Z+8, r24	; 0x08
    5ec6:	91 87       	std	Z+9, r25	; 0x09
    5ec8:	07 c0       	rjmp	.+14     	; 0x5ed8 <main+0xe7a>
    5eca:	86 81       	ldd	r24, Z+6	; 0x06
    5ecc:	97 81       	ldd	r25, Z+7	; 0x07
    5ece:	d8 01       	movw	r26, r16
    5ed0:	18 96       	adiw	r26, 0x08	; 8
    5ed2:	8d 93       	st	X+, r24
    5ed4:	9c 93       	st	X, r25
    5ed6:	19 97       	sbiw	r26, 0x09	; 9
    5ed8:	81 e0       	ldi	r24, 0x01	; 1
    5eda:	80 93 a8 28 	sts	0x28A8, r24
    5ede:	a8 01       	movw	r20, r16
    5ee0:	61 e1       	ldi	r22, 0x11	; 17
    5ee2:	73 e2       	ldi	r23, 0x23	; 35
    5ee4:	89 e0       	ldi	r24, 0x09	; 9
    5ee6:	9d e1       	ldi	r25, 0x1D	; 29
    5ee8:	0e 94 34 05 	call	0xa68	; 0xa68 <awt_dispatch_event_req>
    5eec:	e0 91 13 2b 	lds	r30, 0x2B13
    5ef0:	80 91 14 2b 	lds	r24, 0x2B14
    5ef4:	8e 17       	cp	r24, r30
    5ef6:	09 f4       	brne	.+2      	; 0x5efa <main+0xe9c>
    5ef8:	e8 cb       	rjmp	.-2096   	; 0x56ca <main+0x66c>
    5efa:	be e1       	ldi	r27, 0x1E	; 30
    5efc:	eb 9f       	mul	r30, r27
    5efe:	f0 01       	movw	r30, r0
    5f00:	11 24       	eor	r1, r1
    5f02:	ed 5c       	subi	r30, 0xCD	; 205
    5f04:	f6 4d       	sbci	r31, 0xD6	; 214
    5f06:	89 e1       	ldi	r24, 0x19	; 25
    5f08:	93 e2       	ldi	r25, 0x23	; 35
    5f0a:	89 83       	std	Y+1, r24	; 0x01
    5f0c:	9a 83       	std	Y+2, r25	; 0x02
    5f0e:	1b 82       	std	Y+3, r1	; 0x03
    5f10:	1c 82       	std	Y+4, r1	; 0x04
    5f12:	80 81       	ld	r24, Z
    5f14:	91 81       	ldd	r25, Z+1	; 0x01
    5f16:	a2 81       	ldd	r26, Z+2	; 0x02
    5f18:	b3 81       	ldd	r27, Z+3	; 0x03
    5f1a:	8d 83       	std	Y+5, r24	; 0x05
    5f1c:	9e 83       	std	Y+6, r25	; 0x06
    5f1e:	af 83       	std	Y+7, r26	; 0x07
    5f20:	b8 87       	std	Y+8, r27	; 0x08
    5f22:	82 e6       	ldi	r24, 0x62	; 98
    5f24:	92 e2       	ldi	r25, 0x22	; 34
    5f26:	89 87       	std	Y+9, r24	; 0x09
    5f28:	9a 87       	std	Y+10, r25	; 0x0a
    5f2a:	1b 86       	std	Y+11, r1	; 0x0b
    5f2c:	1c 86       	std	Y+12, r1	; 0x0c
    5f2e:	84 81       	ldd	r24, Z+4	; 0x04
    5f30:	99 27       	eor	r25, r25
    5f32:	87 fd       	sbrc	r24, 7
    5f34:	90 95       	com	r25
    5f36:	a9 2f       	mov	r26, r25
    5f38:	b9 2f       	mov	r27, r25
    5f3a:	8d 87       	std	Y+13, r24	; 0x0d
    5f3c:	9e 87       	std	Y+14, r25	; 0x0e
    5f3e:	af 87       	std	Y+15, r26	; 0x0f
    5f40:	b8 8b       	std	Y+16, r27	; 0x10
    5f42:	83 e2       	ldi	r24, 0x23	; 35
    5f44:	93 e2       	ldi	r25, 0x23	; 35
    5f46:	89 8b       	std	Y+17, r24	; 0x11
    5f48:	9a 8b       	std	Y+18, r25	; 0x12
    5f4a:	82 e0       	ldi	r24, 0x02	; 2
    5f4c:	90 e0       	ldi	r25, 0x00	; 0
    5f4e:	8b 8b       	std	Y+19, r24	; 0x13
    5f50:	9c 8b       	std	Y+20, r25	; 0x14
    5f52:	25 89       	ldd	r18, Z+21	; 0x15
    5f54:	2d 8b       	std	Y+21, r18	; 0x15
    5f56:	26 e2       	ldi	r18, 0x26	; 38
    5f58:	33 e2       	ldi	r19, 0x23	; 35
    5f5a:	29 8f       	std	Y+25, r18	; 0x19
    5f5c:	3a 8f       	std	Y+26, r19	; 0x1a
    5f5e:	8b 8f       	std	Y+27, r24	; 0x1b
    5f60:	9c 8f       	std	Y+28, r25	; 0x1c
    5f62:	26 89       	ldd	r18, Z+22	; 0x16
    5f64:	2d 8f       	std	Y+29, r18	; 0x1d
    5f66:	29 e2       	ldi	r18, 0x29	; 41
    5f68:	33 e2       	ldi	r19, 0x23	; 35
    5f6a:	29 a3       	std	Y+33, r18	; 0x21
    5f6c:	3a a3       	std	Y+34, r19	; 0x22
    5f6e:	8b a3       	std	Y+35, r24	; 0x23
    5f70:	9c a3       	std	Y+36, r25	; 0x24
    5f72:	87 89       	ldd	r24, Z+23	; 0x17
    5f74:	8d a3       	std	Y+37, r24	; 0x25
    5f76:	8c e2       	ldi	r24, 0x2C	; 44
    5f78:	93 e2       	ldi	r25, 0x23	; 35
    5f7a:	89 a7       	std	Y+41, r24	; 0x29
    5f7c:	9a a7       	std	Y+42, r25	; 0x2a
    5f7e:	1b a6       	std	Y+43, r1	; 0x2b
    5f80:	1c a6       	std	Y+44, r1	; 0x2c
    5f82:	85 85       	ldd	r24, Z+13	; 0x0d
    5f84:	96 85       	ldd	r25, Z+14	; 0x0e
    5f86:	a7 85       	ldd	r26, Z+15	; 0x0f
    5f88:	b0 89       	ldd	r27, Z+16	; 0x10
    5f8a:	8d a7       	std	Y+45, r24	; 0x2d
    5f8c:	9e a7       	std	Y+46, r25	; 0x2e
    5f8e:	af a7       	std	Y+47, r26	; 0x2f
    5f90:	b8 ab       	std	Y+48, r27	; 0x30
    5f92:	21 e3       	ldi	r18, 0x31	; 49
    5f94:	33 e2       	ldi	r19, 0x23	; 35
    5f96:	29 ab       	std	Y+49, r18	; 0x31
    5f98:	3a ab       	std	Y+50, r19	; 0x32
    5f9a:	1b aa       	std	Y+51, r1	; 0x33
    5f9c:	1c aa       	std	Y+52, r1	; 0x34
    5f9e:	41 89       	ldd	r20, Z+17	; 0x11
    5fa0:	52 89       	ldd	r21, Z+18	; 0x12
    5fa2:	63 89       	ldd	r22, Z+19	; 0x13
    5fa4:	74 89       	ldd	r23, Z+20	; 0x14
    5fa6:	4d ab       	std	Y+53, r20	; 0x35
    5fa8:	5e ab       	std	Y+54, r21	; 0x36
    5faa:	6f ab       	std	Y+55, r22	; 0x37
    5fac:	78 af       	std	Y+56, r23	; 0x38
    5fae:	26 e3       	ldi	r18, 0x36	; 54
    5fb0:	33 e2       	ldi	r19, 0x23	; 35
    5fb2:	29 af       	std	Y+57, r18	; 0x39
    5fb4:	3a af       	std	Y+58, r19	; 0x3a
    5fb6:	1b ae       	std	Y+59, r1	; 0x3b
    5fb8:	1c ae       	std	Y+60, r1	; 0x3c
    5fba:	2f b7       	in	r18, 0x3f	; 63
    5fbc:	f8 94       	cli
    5fbe:	40 91 51 2b 	lds	r20, 0x2B51
    5fc2:	50 91 52 2b 	lds	r21, 0x2B52
    5fc6:	60 91 53 2b 	lds	r22, 0x2B53
    5fca:	70 91 54 2b 	lds	r23, 0x2B54
    5fce:	2f bf       	out	0x3f, r18	; 63
    5fd0:	84 1b       	sub	r24, r20
    5fd2:	95 0b       	sbc	r25, r21
    5fd4:	a6 0b       	sbc	r26, r22
    5fd6:	b7 0b       	sbc	r27, r23
    5fd8:	21 96       	adiw	r28, 0x01	; 1
    5fda:	8c af       	std	Y+60, r24	; 0x3c
    5fdc:	9d af       	std	Y+61, r25	; 0x3d
    5fde:	ae af       	std	Y+62, r26	; 0x3e
    5fe0:	bf af       	std	Y+63, r27	; 0x3f
    5fe2:	21 97       	sbiw	r28, 0x01	; 1
    5fe4:	8b e3       	ldi	r24, 0x3B	; 59
    5fe6:	93 e2       	ldi	r25, 0x23	; 35
    5fe8:	23 96       	adiw	r28, 0x03	; 3
    5fea:	8e af       	std	Y+62, r24	; 0x3e
    5fec:	9f af       	std	Y+63, r25	; 0x3f
    5fee:	23 97       	sbiw	r28, 0x03	; 3
    5ff0:	25 96       	adiw	r28, 0x05	; 5
    5ff2:	1e ae       	std	Y+62, r1	; 0x3e
    5ff4:	1f ae       	std	Y+63, r1	; 0x3f
    5ff6:	25 97       	sbiw	r28, 0x05	; 5
    5ff8:	81 89       	ldd	r24, Z+17	; 0x11
    5ffa:	92 89       	ldd	r25, Z+18	; 0x12
    5ffc:	a3 89       	ldd	r26, Z+19	; 0x13
    5ffe:	b4 89       	ldd	r27, Z+20	; 0x14
    6000:	2f b7       	in	r18, 0x3f	; 63
    6002:	f8 94       	cli
    6004:	40 91 55 2b 	lds	r20, 0x2B55
    6008:	50 91 56 2b 	lds	r21, 0x2B56
    600c:	60 91 57 2b 	lds	r22, 0x2B57
    6010:	70 91 58 2b 	lds	r23, 0x2B58
    6014:	2f bf       	out	0x3f, r18	; 63
    6016:	84 1b       	sub	r24, r20
    6018:	95 0b       	sbc	r25, r21
    601a:	a6 0b       	sbc	r26, r22
    601c:	b7 0b       	sbc	r27, r23
    601e:	29 96       	adiw	r28, 0x09	; 9
    6020:	8c af       	std	Y+60, r24	; 0x3c
    6022:	9d af       	std	Y+61, r25	; 0x3d
    6024:	ae af       	std	Y+62, r26	; 0x3e
    6026:	bf af       	std	Y+63, r27	; 0x3f
    6028:	29 97       	sbiw	r28, 0x09	; 9
    602a:	87 81       	ldd	r24, Z+7	; 0x07
    602c:	90 85       	ldd	r25, Z+8	; 0x08
    602e:	81 15       	cp	r24, r1
    6030:	20 e8       	ldi	r18, 0x80	; 128
    6032:	92 07       	cpc	r25, r18
    6034:	b1 f0       	breq	.+44     	; 0x6062 <main+0x1004>
    6036:	20 e4       	ldi	r18, 0x40	; 64
    6038:	33 e2       	ldi	r19, 0x23	; 35
    603a:	2b 96       	adiw	r28, 0x0b	; 11
    603c:	2e af       	std	Y+62, r18	; 0x3e
    603e:	3f af       	std	Y+63, r19	; 0x3f
    6040:	2b 97       	sbiw	r28, 0x0b	; 11
    6042:	2d 96       	adiw	r28, 0x0d	; 13
    6044:	1e ae       	std	Y+62, r1	; 0x3e
    6046:	1f ae       	std	Y+63, r1	; 0x3f
    6048:	2d 97       	sbiw	r28, 0x0d	; 13
    604a:	aa 27       	eor	r26, r26
    604c:	97 fd       	sbrc	r25, 7
    604e:	a0 95       	com	r26
    6050:	ba 2f       	mov	r27, r26
    6052:	61 96       	adiw	r28, 0x11	; 17
    6054:	8c af       	std	Y+60, r24	; 0x3c
    6056:	9d af       	std	Y+61, r25	; 0x3d
    6058:	ae af       	std	Y+62, r26	; 0x3e
    605a:	bf af       	std	Y+63, r27	; 0x3f
    605c:	61 97       	sbiw	r28, 0x11	; 17
    605e:	4a e0       	ldi	r20, 0x0A	; 10
    6060:	01 c0       	rjmp	.+2      	; 0x6064 <main+0x1006>
    6062:	49 e0       	ldi	r20, 0x09	; 9
    6064:	81 85       	ldd	r24, Z+9	; 0x09
    6066:	92 85       	ldd	r25, Z+10	; 0x0a
    6068:	81 15       	cp	r24, r1
    606a:	30 e8       	ldi	r19, 0x80	; 128
    606c:	93 07       	cpc	r25, r19
    606e:	f1 f0       	breq	.+60     	; 0x60ac <main+0x104e>
    6070:	9e 01       	movw	r18, r28
    6072:	2f 5f       	subi	r18, 0xFF	; 255
    6074:	3f 4f       	sbci	r19, 0xFF	; 255
    6076:	58 e0       	ldi	r21, 0x08	; 8
    6078:	45 9f       	mul	r20, r21
    607a:	20 0d       	add	r18, r0
    607c:	31 1d       	adc	r19, r1
    607e:	11 24       	eor	r1, r1
    6080:	67 e4       	ldi	r22, 0x47	; 71
    6082:	73 e2       	ldi	r23, 0x23	; 35
    6084:	d9 01       	movw	r26, r18
    6086:	6d 93       	st	X+, r22
    6088:	7c 93       	st	X, r23
    608a:	11 97       	sbiw	r26, 0x01	; 1
    608c:	12 96       	adiw	r26, 0x02	; 2
    608e:	1d 92       	st	X+, r1
    6090:	1c 92       	st	X, r1
    6092:	13 97       	sbiw	r26, 0x03	; 3
    6094:	4c 01       	movw	r8, r24
    6096:	aa 24       	eor	r10, r10
    6098:	97 fc       	sbrc	r9, 7
    609a:	a0 94       	com	r10
    609c:	ba 2c       	mov	r11, r10
    609e:	14 96       	adiw	r26, 0x04	; 4
    60a0:	8d 92       	st	X+, r8
    60a2:	9d 92       	st	X+, r9
    60a4:	ad 92       	st	X+, r10
    60a6:	bc 92       	st	X, r11
    60a8:	17 97       	sbiw	r26, 0x07	; 7
    60aa:	4f 5f       	subi	r20, 0xFF	; 255
    60ac:	83 85       	ldd	r24, Z+11	; 0x0b
    60ae:	94 85       	ldd	r25, Z+12	; 0x0c
    60b0:	81 15       	cp	r24, r1
    60b2:	b0 e8       	ldi	r27, 0x80	; 128
    60b4:	9b 07       	cpc	r25, r27
    60b6:	f1 f0       	breq	.+60     	; 0x60f4 <main+0x1096>
    60b8:	9e 01       	movw	r18, r28
    60ba:	2f 5f       	subi	r18, 0xFF	; 255
    60bc:	3f 4f       	sbci	r19, 0xFF	; 255
    60be:	58 e0       	ldi	r21, 0x08	; 8
    60c0:	45 9f       	mul	r20, r21
    60c2:	20 0d       	add	r18, r0
    60c4:	31 1d       	adc	r19, r1
    60c6:	11 24       	eor	r1, r1
    60c8:	6e e4       	ldi	r22, 0x4E	; 78
    60ca:	73 e2       	ldi	r23, 0x23	; 35
    60cc:	d9 01       	movw	r26, r18
    60ce:	6d 93       	st	X+, r22
    60d0:	7c 93       	st	X, r23
    60d2:	11 97       	sbiw	r26, 0x01	; 1
    60d4:	12 96       	adiw	r26, 0x02	; 2
    60d6:	1d 92       	st	X+, r1
    60d8:	1c 92       	st	X, r1
    60da:	13 97       	sbiw	r26, 0x03	; 3
    60dc:	4c 01       	movw	r8, r24
    60de:	aa 24       	eor	r10, r10
    60e0:	97 fc       	sbrc	r9, 7
    60e2:	a0 94       	com	r10
    60e4:	ba 2c       	mov	r11, r10
    60e6:	14 96       	adiw	r26, 0x04	; 4
    60e8:	8d 92       	st	X+, r8
    60ea:	9d 92       	st	X+, r9
    60ec:	ad 92       	st	X+, r10
    60ee:	bc 92       	st	X, r11
    60f0:	17 97       	sbiw	r26, 0x07	; 7
    60f2:	4f 5f       	subi	r20, 0xFF	; 255
    60f4:	21 e0       	ldi	r18, 0x01	; 1
    60f6:	30 e0       	ldi	r19, 0x00	; 0
    60f8:	2c 0f       	add	r18, r28
    60fa:	3d 1f       	adc	r19, r29
    60fc:	b8 e0       	ldi	r27, 0x08	; 8
    60fe:	4b 9f       	mul	r20, r27
    6100:	20 0d       	add	r18, r0
    6102:	31 1d       	adc	r19, r1
    6104:	11 24       	eor	r1, r1
    6106:	85 e5       	ldi	r24, 0x55	; 85
    6108:	93 e2       	ldi	r25, 0x23	; 35
    610a:	d9 01       	movw	r26, r18
    610c:	8d 93       	st	X+, r24
    610e:	9c 93       	st	X, r25
    6110:	11 97       	sbiw	r26, 0x01	; 1
    6112:	12 96       	adiw	r26, 0x02	; 2
    6114:	1d 92       	st	X+, r1
    6116:	1c 92       	st	X, r1
    6118:	13 97       	sbiw	r26, 0x03	; 3
    611a:	80 81       	ld	r24, Z
    611c:	91 81       	ldd	r25, Z+1	; 0x01
    611e:	a2 81       	ldd	r26, Z+2	; 0x02
    6120:	b3 81       	ldd	r27, Z+3	; 0x03
    6122:	f9 01       	movw	r30, r18
    6124:	84 83       	std	Z+4, r24	; 0x04
    6126:	95 83       	std	Z+5, r25	; 0x05
    6128:	a6 83       	std	Z+6, r26	; 0x06
    612a:	b7 83       	std	Z+7, r27	; 0x07
    612c:	81 e0       	ldi	r24, 0x01	; 1
    612e:	80 93 a8 28 	sts	0x28A8, r24
    6132:	4f 5f       	subi	r20, 0xFF	; 255
    6134:	9e 01       	movw	r18, r28
    6136:	2f 5f       	subi	r18, 0xFF	; 255
    6138:	3f 4f       	sbci	r19, 0xFF	; 255
    613a:	66 ef       	ldi	r22, 0xF6	; 246
    613c:	72 e2       	ldi	r23, 0x22	; 34
    613e:	8a e1       	ldi	r24, 0x1A	; 26
    6140:	9d e1       	ldi	r25, 0x1D	; 29
    6142:	0e 94 c1 05 	call	0xb82	; 0xb82 <awt_dispatch_data_req>
    6146:	c1 ca       	rjmp	.-2686   	; 0x56ca <main+0x66c>
    6148:	80 91 73 2b 	lds	r24, 0x2B73
    614c:	81 11       	cpse	r24, r1
    614e:	51 cb       	rjmp	.-2398   	; 0x57f2 <main+0x794>
    6150:	80 e0       	ldi	r24, 0x00	; 0
    6152:	90 e0       	ldi	r25, 0x00	; 0
    6154:	40 e0       	ldi	r20, 0x00	; 0
    6156:	61 cb       	rjmp	.-2366   	; 0x581a <main+0x7bc>

00006158 <__udivmodhi4>:
    6158:	aa 1b       	sub	r26, r26
    615a:	bb 1b       	sub	r27, r27
    615c:	51 e1       	ldi	r21, 0x11	; 17
    615e:	07 c0       	rjmp	.+14     	; 0x616e <__udivmodhi4_ep>

00006160 <__udivmodhi4_loop>:
    6160:	aa 1f       	adc	r26, r26
    6162:	bb 1f       	adc	r27, r27
    6164:	a6 17       	cp	r26, r22
    6166:	b7 07       	cpc	r27, r23
    6168:	10 f0       	brcs	.+4      	; 0x616e <__udivmodhi4_ep>
    616a:	a6 1b       	sub	r26, r22
    616c:	b7 0b       	sbc	r27, r23

0000616e <__udivmodhi4_ep>:
    616e:	88 1f       	adc	r24, r24
    6170:	99 1f       	adc	r25, r25
    6172:	5a 95       	dec	r21
    6174:	a9 f7       	brne	.-22     	; 0x6160 <__udivmodhi4_loop>
    6176:	80 95       	com	r24
    6178:	90 95       	com	r25
    617a:	bc 01       	movw	r22, r24
    617c:	cd 01       	movw	r24, r26
    617e:	08 95       	ret

00006180 <__divmodhi4>:
    6180:	97 fb       	bst	r25, 7
    6182:	07 2e       	mov	r0, r23
    6184:	16 f4       	brtc	.+4      	; 0x618a <__divmodhi4+0xa>
    6186:	00 94       	com	r0
    6188:	06 d0       	rcall	.+12     	; 0x6196 <__divmodhi4_neg1>
    618a:	77 fd       	sbrc	r23, 7
    618c:	08 d0       	rcall	.+16     	; 0x619e <__divmodhi4_neg2>
    618e:	e4 df       	rcall	.-56     	; 0x6158 <__udivmodhi4>
    6190:	07 fc       	sbrc	r0, 7
    6192:	05 d0       	rcall	.+10     	; 0x619e <__divmodhi4_neg2>
    6194:	3e f4       	brtc	.+14     	; 0x61a4 <__divmodhi4_exit>

00006196 <__divmodhi4_neg1>:
    6196:	90 95       	com	r25
    6198:	81 95       	neg	r24
    619a:	9f 4f       	sbci	r25, 0xFF	; 255
    619c:	08 95       	ret

0000619e <__divmodhi4_neg2>:
    619e:	70 95       	com	r23
    61a0:	61 95       	neg	r22
    61a2:	7f 4f       	sbci	r23, 0xFF	; 255

000061a4 <__divmodhi4_exit>:
    61a4:	08 95       	ret

000061a6 <__udivmodsi4>:
    61a6:	a1 e2       	ldi	r26, 0x21	; 33
    61a8:	1a 2e       	mov	r1, r26
    61aa:	aa 1b       	sub	r26, r26
    61ac:	bb 1b       	sub	r27, r27
    61ae:	fd 01       	movw	r30, r26
    61b0:	0d c0       	rjmp	.+26     	; 0x61cc <__udivmodsi4_ep>

000061b2 <__udivmodsi4_loop>:
    61b2:	aa 1f       	adc	r26, r26
    61b4:	bb 1f       	adc	r27, r27
    61b6:	ee 1f       	adc	r30, r30
    61b8:	ff 1f       	adc	r31, r31
    61ba:	a2 17       	cp	r26, r18
    61bc:	b3 07       	cpc	r27, r19
    61be:	e4 07       	cpc	r30, r20
    61c0:	f5 07       	cpc	r31, r21
    61c2:	20 f0       	brcs	.+8      	; 0x61cc <__udivmodsi4_ep>
    61c4:	a2 1b       	sub	r26, r18
    61c6:	b3 0b       	sbc	r27, r19
    61c8:	e4 0b       	sbc	r30, r20
    61ca:	f5 0b       	sbc	r31, r21

000061cc <__udivmodsi4_ep>:
    61cc:	66 1f       	adc	r22, r22
    61ce:	77 1f       	adc	r23, r23
    61d0:	88 1f       	adc	r24, r24
    61d2:	99 1f       	adc	r25, r25
    61d4:	1a 94       	dec	r1
    61d6:	69 f7       	brne	.-38     	; 0x61b2 <__udivmodsi4_loop>
    61d8:	60 95       	com	r22
    61da:	70 95       	com	r23
    61dc:	80 95       	com	r24
    61de:	90 95       	com	r25
    61e0:	9b 01       	movw	r18, r22
    61e2:	ac 01       	movw	r20, r24
    61e4:	bd 01       	movw	r22, r26
    61e6:	cf 01       	movw	r24, r30
    61e8:	08 95       	ret

000061ea <__muluhisi3>:
    61ea:	09 d0       	rcall	.+18     	; 0x61fe <__umulhisi3>
    61ec:	a5 9f       	mul	r26, r21
    61ee:	90 0d       	add	r25, r0
    61f0:	b4 9f       	mul	r27, r20
    61f2:	90 0d       	add	r25, r0
    61f4:	a4 9f       	mul	r26, r20
    61f6:	80 0d       	add	r24, r0
    61f8:	91 1d       	adc	r25, r1
    61fa:	11 24       	eor	r1, r1
    61fc:	08 95       	ret

000061fe <__umulhisi3>:
    61fe:	a2 9f       	mul	r26, r18
    6200:	b0 01       	movw	r22, r0
    6202:	b3 9f       	mul	r27, r19
    6204:	c0 01       	movw	r24, r0
    6206:	a3 9f       	mul	r26, r19
    6208:	01 d0       	rcall	.+2      	; 0x620c <__umulhisi3+0xe>
    620a:	b2 9f       	mul	r27, r18
    620c:	70 0d       	add	r23, r0
    620e:	81 1d       	adc	r24, r1
    6210:	11 24       	eor	r1, r1
    6212:	91 1d       	adc	r25, r1
    6214:	08 95       	ret

00006216 <strtoul>:
    6216:	a0 e0       	ldi	r26, 0x00	; 0
    6218:	b0 e0       	ldi	r27, 0x00	; 0
    621a:	e0 e1       	ldi	r30, 0x10	; 16
    621c:	f1 e3       	ldi	r31, 0x31	; 49
    621e:	1c c2       	rjmp	.+1080   	; 0x6658 <__prologue_saves__+0x4>
    6220:	5b 01       	movw	r10, r22
    6222:	ea 01       	movw	r28, r20
    6224:	61 15       	cp	r22, r1
    6226:	71 05       	cpc	r23, r1
    6228:	19 f0       	breq	.+6      	; 0x6230 <strtoul+0x1a>
    622a:	fb 01       	movw	r30, r22
    622c:	80 83       	st	Z, r24
    622e:	91 83       	std	Z+1, r25	; 0x01
    6230:	20 97       	sbiw	r28, 0x00	; 0
    6232:	39 f0       	breq	.+14     	; 0x6242 <strtoul+0x2c>
    6234:	9e 01       	movw	r18, r28
    6236:	22 50       	subi	r18, 0x02	; 2
    6238:	31 09       	sbc	r19, r1
    623a:	23 32       	cpi	r18, 0x23	; 35
    623c:	31 05       	cpc	r19, r1
    623e:	08 f0       	brcs	.+2      	; 0x6242 <strtoul+0x2c>
    6240:	be c0       	rjmp	.+380    	; 0x63be <strtoul+0x1a8>
    6242:	7c 01       	movw	r14, r24
    6244:	f7 01       	movw	r30, r14
    6246:	91 90       	ld	r9, Z+
    6248:	7f 01       	movw	r14, r30
    624a:	8f 01       	movw	r16, r30
    624c:	89 2d       	mov	r24, r9
    624e:	90 e0       	ldi	r25, 0x00	; 0
    6250:	f7 d0       	rcall	.+494    	; 0x6440 <isspace>
    6252:	89 2b       	or	r24, r25
    6254:	b9 f7       	brne	.-18     	; 0x6244 <strtoul+0x2e>
    6256:	fd e2       	ldi	r31, 0x2D	; 45
    6258:	9f 12       	cpse	r9, r31
    625a:	06 c0       	rjmp	.+12     	; 0x6268 <strtoul+0x52>
    625c:	f7 01       	movw	r30, r14
    625e:	91 90       	ld	r9, Z+
    6260:	8f 01       	movw	r16, r30
    6262:	88 24       	eor	r8, r8
    6264:	83 94       	inc	r8
    6266:	07 c0       	rjmp	.+14     	; 0x6276 <strtoul+0x60>
    6268:	fb e2       	ldi	r31, 0x2B	; 43
    626a:	9f 12       	cpse	r9, r31
    626c:	03 c0       	rjmp	.+6      	; 0x6274 <strtoul+0x5e>
    626e:	f7 01       	movw	r30, r14
    6270:	91 90       	ld	r9, Z+
    6272:	8f 01       	movw	r16, r30
    6274:	81 2c       	mov	r8, r1
    6276:	20 97       	sbiw	r28, 0x00	; 0
    6278:	09 f4       	brne	.+2      	; 0x627c <strtoul+0x66>
    627a:	ab c0       	rjmp	.+342    	; 0x63d2 <strtoul+0x1bc>
    627c:	c0 31       	cpi	r28, 0x10	; 16
    627e:	d1 05       	cpc	r29, r1
    6280:	81 f4       	brne	.+32     	; 0x62a2 <strtoul+0x8c>
    6282:	ae c0       	rjmp	.+348    	; 0x63e0 <strtoul+0x1ca>
    6284:	f8 01       	movw	r30, r16
    6286:	80 81       	ld	r24, Z
    6288:	88 37       	cpi	r24, 0x78	; 120
    628a:	19 f0       	breq	.+6      	; 0x6292 <strtoul+0x7c>
    628c:	88 35       	cpi	r24, 0x58	; 88
    628e:	09 f0       	breq	.+2      	; 0x6292 <strtoul+0x7c>
    6290:	9a c0       	rjmp	.+308    	; 0x63c6 <strtoul+0x1b0>
    6292:	f8 01       	movw	r30, r16
    6294:	91 80       	ldd	r9, Z+1	; 0x01
    6296:	0e 5f       	subi	r16, 0xFE	; 254
    6298:	1f 4f       	sbci	r17, 0xFF	; 255
    629a:	f2 e0       	ldi	r31, 0x02	; 2
    629c:	8f 2a       	or	r8, r31
    629e:	c0 e1       	ldi	r28, 0x10	; 16
    62a0:	d0 e0       	ldi	r29, 0x00	; 0
    62a2:	ca 30       	cpi	r28, 0x0A	; 10
    62a4:	d1 05       	cpc	r29, r1
    62a6:	19 f1       	breq	.+70     	; 0x62ee <strtoul+0xd8>
    62a8:	c0 31       	cpi	r28, 0x10	; 16
    62aa:	d1 05       	cpc	r29, r1
    62ac:	21 f0       	breq	.+8      	; 0x62b6 <strtoul+0xa0>
    62ae:	c8 30       	cpi	r28, 0x08	; 8
    62b0:	d1 05       	cpc	r29, r1
    62b2:	89 f4       	brne	.+34     	; 0x62d6 <strtoul+0xc0>
    62b4:	07 c0       	rjmp	.+14     	; 0x62c4 <strtoul+0xae>
    62b6:	cc 24       	eor	r12, r12
    62b8:	ca 94       	dec	r12
    62ba:	dc 2c       	mov	r13, r12
    62bc:	ec 2c       	mov	r14, r12
    62be:	3f e0       	ldi	r19, 0x0F	; 15
    62c0:	f3 2e       	mov	r15, r19
    62c2:	1b c0       	rjmp	.+54     	; 0x62fa <strtoul+0xe4>
    62c4:	c8 e0       	ldi	r28, 0x08	; 8
    62c6:	d0 e0       	ldi	r29, 0x00	; 0
    62c8:	cc 24       	eor	r12, r12
    62ca:	ca 94       	dec	r12
    62cc:	dc 2c       	mov	r13, r12
    62ce:	ec 2c       	mov	r14, r12
    62d0:	2f e1       	ldi	r18, 0x1F	; 31
    62d2:	f2 2e       	mov	r15, r18
    62d4:	12 c0       	rjmp	.+36     	; 0x62fa <strtoul+0xe4>
    62d6:	9e 01       	movw	r18, r28
    62d8:	44 27       	eor	r20, r20
    62da:	37 fd       	sbrc	r19, 7
    62dc:	40 95       	com	r20
    62de:	54 2f       	mov	r21, r20
    62e0:	6f ef       	ldi	r22, 0xFF	; 255
    62e2:	7f ef       	ldi	r23, 0xFF	; 255
    62e4:	cb 01       	movw	r24, r22
    62e6:	5f df       	rcall	.-322    	; 0x61a6 <__udivmodsi4>
    62e8:	69 01       	movw	r12, r18
    62ea:	7a 01       	movw	r14, r20
    62ec:	06 c0       	rjmp	.+12     	; 0x62fa <strtoul+0xe4>
    62ee:	99 e9       	ldi	r25, 0x99	; 153
    62f0:	c9 2e       	mov	r12, r25
    62f2:	dc 2c       	mov	r13, r12
    62f4:	ec 2c       	mov	r14, r12
    62f6:	99 e1       	ldi	r25, 0x19	; 25
    62f8:	f9 2e       	mov	r15, r25
    62fa:	60 e0       	ldi	r22, 0x00	; 0
    62fc:	20 e0       	ldi	r18, 0x00	; 0
    62fe:	30 e0       	ldi	r19, 0x00	; 0
    6300:	a9 01       	movw	r20, r18
    6302:	2e 01       	movw	r4, r28
    6304:	66 24       	eor	r6, r6
    6306:	57 fc       	sbrc	r5, 7
    6308:	60 94       	com	r6
    630a:	76 2c       	mov	r7, r6
    630c:	e9 2d       	mov	r30, r9
    630e:	e0 53       	subi	r30, 0x30	; 48
    6310:	ea 30       	cpi	r30, 0x0A	; 10
    6312:	60 f0       	brcs	.+24     	; 0x632c <strtoul+0x116>
    6314:	89 2d       	mov	r24, r9
    6316:	81 54       	subi	r24, 0x41	; 65
    6318:	8a 31       	cpi	r24, 0x1A	; 26
    631a:	10 f4       	brcc	.+4      	; 0x6320 <strtoul+0x10a>
    631c:	e7 50       	subi	r30, 0x07	; 7
    631e:	06 c0       	rjmp	.+12     	; 0x632c <strtoul+0x116>
    6320:	89 2d       	mov	r24, r9
    6322:	81 56       	subi	r24, 0x61	; 97
    6324:	8a 31       	cpi	r24, 0x1A	; 26
    6326:	38 f5       	brcc	.+78     	; 0x6376 <strtoul+0x160>
    6328:	e9 2d       	mov	r30, r9
    632a:	e7 55       	subi	r30, 0x57	; 87
    632c:	8e 2f       	mov	r24, r30
    632e:	90 e0       	ldi	r25, 0x00	; 0
    6330:	8c 17       	cp	r24, r28
    6332:	9d 07       	cpc	r25, r29
    6334:	04 f5       	brge	.+64     	; 0x6376 <strtoul+0x160>
    6336:	6f 3f       	cpi	r22, 0xFF	; 255
    6338:	d1 f0       	breq	.+52     	; 0x636e <strtoul+0x158>
    633a:	c2 16       	cp	r12, r18
    633c:	d3 06       	cpc	r13, r19
    633e:	e4 06       	cpc	r14, r20
    6340:	f5 06       	cpc	r15, r21
    6342:	90 f0       	brcs	.+36     	; 0x6368 <strtoul+0x152>
    6344:	c3 01       	movw	r24, r6
    6346:	b2 01       	movw	r22, r4
    6348:	76 d1       	rcall	.+748    	; 0x6636 <__mulsi3>
    634a:	9b 01       	movw	r18, r22
    634c:	ac 01       	movw	r20, r24
    634e:	8e 2f       	mov	r24, r30
    6350:	90 e0       	ldi	r25, 0x00	; 0
    6352:	a0 e0       	ldi	r26, 0x00	; 0
    6354:	b0 e0       	ldi	r27, 0x00	; 0
    6356:	28 0f       	add	r18, r24
    6358:	39 1f       	adc	r19, r25
    635a:	4a 1f       	adc	r20, r26
    635c:	5b 1f       	adc	r21, r27
    635e:	28 17       	cp	r18, r24
    6360:	39 07       	cpc	r19, r25
    6362:	4a 07       	cpc	r20, r26
    6364:	5b 07       	cpc	r21, r27
    6366:	10 f4       	brcc	.+4      	; 0x636c <strtoul+0x156>
    6368:	6f ef       	ldi	r22, 0xFF	; 255
    636a:	01 c0       	rjmp	.+2      	; 0x636e <strtoul+0x158>
    636c:	61 e0       	ldi	r22, 0x01	; 1
    636e:	f8 01       	movw	r30, r16
    6370:	91 90       	ld	r9, Z+
    6372:	8f 01       	movw	r16, r30
    6374:	cb cf       	rjmp	.-106    	; 0x630c <strtoul+0xf6>
    6376:	a1 14       	cp	r10, r1
    6378:	b1 04       	cpc	r11, r1
    637a:	61 f0       	breq	.+24     	; 0x6394 <strtoul+0x17e>
    637c:	66 23       	and	r22, r22
    637e:	19 f0       	breq	.+6      	; 0x6386 <strtoul+0x170>
    6380:	01 50       	subi	r16, 0x01	; 1
    6382:	11 09       	sbc	r17, r1
    6384:	04 c0       	rjmp	.+8      	; 0x638e <strtoul+0x178>
    6386:	81 fe       	sbrs	r8, 1
    6388:	05 c0       	rjmp	.+10     	; 0x6394 <strtoul+0x17e>
    638a:	02 50       	subi	r16, 0x02	; 2
    638c:	11 09       	sbc	r17, r1
    638e:	f5 01       	movw	r30, r10
    6390:	00 83       	st	Z, r16
    6392:	11 83       	std	Z+1, r17	; 0x01
    6394:	80 fe       	sbrs	r8, 0
    6396:	07 c0       	rjmp	.+14     	; 0x63a6 <strtoul+0x190>
    6398:	50 95       	com	r21
    639a:	40 95       	com	r20
    639c:	30 95       	com	r19
    639e:	21 95       	neg	r18
    63a0:	3f 4f       	sbci	r19, 0xFF	; 255
    63a2:	4f 4f       	sbci	r20, 0xFF	; 255
    63a4:	5f 4f       	sbci	r21, 0xFF	; 255
    63a6:	67 ff       	sbrs	r22, 7
    63a8:	1f c0       	rjmp	.+62     	; 0x63e8 <strtoul+0x1d2>
    63aa:	82 e2       	ldi	r24, 0x22	; 34
    63ac:	90 e0       	ldi	r25, 0x00	; 0
    63ae:	80 93 93 2d 	sts	0x2D93, r24
    63b2:	90 93 94 2d 	sts	0x2D94, r25
    63b6:	2f ef       	ldi	r18, 0xFF	; 255
    63b8:	3f ef       	ldi	r19, 0xFF	; 255
    63ba:	a9 01       	movw	r20, r18
    63bc:	15 c0       	rjmp	.+42     	; 0x63e8 <strtoul+0x1d2>
    63be:	20 e0       	ldi	r18, 0x00	; 0
    63c0:	30 e0       	ldi	r19, 0x00	; 0
    63c2:	a9 01       	movw	r20, r18
    63c4:	11 c0       	rjmp	.+34     	; 0x63e8 <strtoul+0x1d2>
    63c6:	80 e3       	ldi	r24, 0x30	; 48
    63c8:	98 2e       	mov	r9, r24
    63ca:	20 97       	sbiw	r28, 0x00	; 0
    63cc:	09 f4       	brne	.+2      	; 0x63d0 <strtoul+0x1ba>
    63ce:	7a cf       	rjmp	.-268    	; 0x62c4 <strtoul+0xae>
    63d0:	68 cf       	rjmp	.-304    	; 0x62a2 <strtoul+0x8c>
    63d2:	f0 e3       	ldi	r31, 0x30	; 48
    63d4:	9f 16       	cp	r9, r31
    63d6:	09 f4       	brne	.+2      	; 0x63da <strtoul+0x1c4>
    63d8:	55 cf       	rjmp	.-342    	; 0x6284 <strtoul+0x6e>
    63da:	ca e0       	ldi	r28, 0x0A	; 10
    63dc:	d0 e0       	ldi	r29, 0x00	; 0
    63de:	87 cf       	rjmp	.-242    	; 0x62ee <strtoul+0xd8>
    63e0:	80 e3       	ldi	r24, 0x30	; 48
    63e2:	98 12       	cpse	r9, r24
    63e4:	5e cf       	rjmp	.-324    	; 0x62a2 <strtoul+0x8c>
    63e6:	4e cf       	rjmp	.-356    	; 0x6284 <strtoul+0x6e>
    63e8:	b9 01       	movw	r22, r18
    63ea:	ca 01       	movw	r24, r20
    63ec:	cd b7       	in	r28, 0x3d	; 61
    63ee:	de b7       	in	r29, 0x3e	; 62
    63f0:	e0 e1       	ldi	r30, 0x10	; 16
    63f2:	4b c1       	rjmp	.+662    	; 0x668a <__epilogue_restores__+0x4>

000063f4 <atol>:
    63f4:	1f 93       	push	r17
    63f6:	fc 01       	movw	r30, r24
    63f8:	99 27       	eor	r25, r25
    63fa:	88 27       	eor	r24, r24
    63fc:	bc 01       	movw	r22, r24
    63fe:	e8 94       	clt
    6400:	11 91       	ld	r17, Z+
    6402:	10 32       	cpi	r17, 0x20	; 32
    6404:	e9 f3       	breq	.-6      	; 0x6400 <atol+0xc>
    6406:	19 30       	cpi	r17, 0x09	; 9
    6408:	10 f0       	brcs	.+4      	; 0x640e <atol+0x1a>
    640a:	1e 30       	cpi	r17, 0x0E	; 14
    640c:	c8 f3       	brcs	.-14     	; 0x6400 <atol+0xc>
    640e:	1b 32       	cpi	r17, 0x2B	; 43
    6410:	49 f0       	breq	.+18     	; 0x6424 <atol+0x30>
    6412:	1d 32       	cpi	r17, 0x2D	; 45
    6414:	41 f4       	brne	.+16     	; 0x6426 <atol+0x32>
    6416:	68 94       	set
    6418:	05 c0       	rjmp	.+10     	; 0x6424 <atol+0x30>
    641a:	ae d0       	rcall	.+348    	; 0x6578 <__mulsi_const_10>
    641c:	61 0f       	add	r22, r17
    641e:	71 1d       	adc	r23, r1
    6420:	81 1d       	adc	r24, r1
    6422:	91 1d       	adc	r25, r1
    6424:	11 91       	ld	r17, Z+
    6426:	10 53       	subi	r17, 0x30	; 48
    6428:	1a 30       	cpi	r17, 0x0A	; 10
    642a:	b8 f3       	brcs	.-18     	; 0x641a <atol+0x26>
    642c:	3e f4       	brtc	.+14     	; 0x643c <atol+0x48>
    642e:	90 95       	com	r25
    6430:	80 95       	com	r24
    6432:	70 95       	com	r23
    6434:	61 95       	neg	r22
    6436:	7f 4f       	sbci	r23, 0xFF	; 255
    6438:	8f 4f       	sbci	r24, 0xFF	; 255
    643a:	9f 4f       	sbci	r25, 0xFF	; 255
    643c:	1f 91       	pop	r17
    643e:	08 95       	ret

00006440 <isspace>:
    6440:	91 11       	cpse	r25, r1
    6442:	e6 c0       	rjmp	.+460    	; 0x6610 <__ctype_isfalse>
    6444:	80 32       	cpi	r24, 0x20	; 32
    6446:	19 f0       	breq	.+6      	; 0x644e <isspace+0xe>
    6448:	89 50       	subi	r24, 0x09	; 9
    644a:	85 50       	subi	r24, 0x05	; 5
    644c:	d0 f7       	brcc	.-12     	; 0x6442 <isspace+0x2>
    644e:	08 95       	ret

00006450 <memcmp>:
    6450:	fb 01       	movw	r30, r22
    6452:	dc 01       	movw	r26, r24
    6454:	04 c0       	rjmp	.+8      	; 0x645e <memcmp+0xe>
    6456:	8d 91       	ld	r24, X+
    6458:	01 90       	ld	r0, Z+
    645a:	80 19       	sub	r24, r0
    645c:	21 f4       	brne	.+8      	; 0x6466 <memcmp+0x16>
    645e:	41 50       	subi	r20, 0x01	; 1
    6460:	50 40       	sbci	r21, 0x00	; 0
    6462:	c8 f7       	brcc	.-14     	; 0x6456 <memcmp+0x6>
    6464:	88 1b       	sub	r24, r24
    6466:	99 0b       	sbc	r25, r25
    6468:	08 95       	ret

0000646a <memcpy>:
    646a:	fb 01       	movw	r30, r22
    646c:	dc 01       	movw	r26, r24
    646e:	02 c0       	rjmp	.+4      	; 0x6474 <memcpy+0xa>
    6470:	01 90       	ld	r0, Z+
    6472:	0d 92       	st	X+, r0
    6474:	41 50       	subi	r20, 0x01	; 1
    6476:	50 40       	sbci	r21, 0x00	; 0
    6478:	d8 f7       	brcc	.-10     	; 0x6470 <memcpy+0x6>
    647a:	08 95       	ret

0000647c <memset>:
    647c:	dc 01       	movw	r26, r24
    647e:	01 c0       	rjmp	.+2      	; 0x6482 <memset+0x6>
    6480:	6d 93       	st	X+, r22
    6482:	41 50       	subi	r20, 0x01	; 1
    6484:	50 40       	sbci	r21, 0x00	; 0
    6486:	e0 f7       	brcc	.-8      	; 0x6480 <memset+0x4>
    6488:	08 95       	ret

0000648a <strcmp>:
    648a:	fb 01       	movw	r30, r22
    648c:	dc 01       	movw	r26, r24
    648e:	8d 91       	ld	r24, X+
    6490:	01 90       	ld	r0, Z+
    6492:	80 19       	sub	r24, r0
    6494:	01 10       	cpse	r0, r1
    6496:	d9 f3       	breq	.-10     	; 0x648e <strcmp+0x4>
    6498:	99 0b       	sbc	r25, r25
    649a:	08 95       	ret

0000649c <strncmp>:
    649c:	fb 01       	movw	r30, r22
    649e:	dc 01       	movw	r26, r24
    64a0:	41 50       	subi	r20, 0x01	; 1
    64a2:	50 40       	sbci	r21, 0x00	; 0
    64a4:	30 f0       	brcs	.+12     	; 0x64b2 <strncmp+0x16>
    64a6:	8d 91       	ld	r24, X+
    64a8:	01 90       	ld	r0, Z+
    64aa:	80 19       	sub	r24, r0
    64ac:	19 f4       	brne	.+6      	; 0x64b4 <strncmp+0x18>
    64ae:	00 20       	and	r0, r0
    64b0:	b9 f7       	brne	.-18     	; 0x64a0 <strncmp+0x4>
    64b2:	88 1b       	sub	r24, r24
    64b4:	99 0b       	sbc	r25, r25
    64b6:	08 95       	ret

000064b8 <strncpy>:
    64b8:	fb 01       	movw	r30, r22
    64ba:	dc 01       	movw	r26, r24
    64bc:	41 50       	subi	r20, 0x01	; 1
    64be:	50 40       	sbci	r21, 0x00	; 0
    64c0:	48 f0       	brcs	.+18     	; 0x64d4 <strncpy+0x1c>
    64c2:	01 90       	ld	r0, Z+
    64c4:	0d 92       	st	X+, r0
    64c6:	00 20       	and	r0, r0
    64c8:	c9 f7       	brne	.-14     	; 0x64bc <strncpy+0x4>
    64ca:	01 c0       	rjmp	.+2      	; 0x64ce <strncpy+0x16>
    64cc:	1d 92       	st	X+, r1
    64ce:	41 50       	subi	r20, 0x01	; 1
    64d0:	50 40       	sbci	r21, 0x00	; 0
    64d2:	e0 f7       	brcc	.-8      	; 0x64cc <strncpy+0x14>
    64d4:	08 95       	ret

000064d6 <itoa>:
    64d6:	fb 01       	movw	r30, r22
    64d8:	9f 01       	movw	r18, r30
    64da:	e8 94       	clt
    64dc:	42 30       	cpi	r20, 0x02	; 2
    64de:	bc f0       	brlt	.+46     	; 0x650e <itoa+0x38>
    64e0:	45 32       	cpi	r20, 0x25	; 37
    64e2:	ac f4       	brge	.+42     	; 0x650e <itoa+0x38>
    64e4:	4a 30       	cpi	r20, 0x0A	; 10
    64e6:	29 f4       	brne	.+10     	; 0x64f2 <itoa+0x1c>
    64e8:	97 fb       	bst	r25, 7
    64ea:	1e f4       	brtc	.+6      	; 0x64f2 <itoa+0x1c>
    64ec:	90 95       	com	r25
    64ee:	81 95       	neg	r24
    64f0:	9f 4f       	sbci	r25, 0xFF	; 255
    64f2:	64 2f       	mov	r22, r20
    64f4:	77 27       	eor	r23, r23
    64f6:	30 de       	rcall	.-928    	; 0x6158 <__udivmodhi4>
    64f8:	80 5d       	subi	r24, 0xD0	; 208
    64fa:	8a 33       	cpi	r24, 0x3A	; 58
    64fc:	0c f0       	brlt	.+2      	; 0x6500 <itoa+0x2a>
    64fe:	89 5d       	subi	r24, 0xD9	; 217
    6500:	81 93       	st	Z+, r24
    6502:	cb 01       	movw	r24, r22
    6504:	00 97       	sbiw	r24, 0x00	; 0
    6506:	a9 f7       	brne	.-22     	; 0x64f2 <itoa+0x1c>
    6508:	16 f4       	brtc	.+4      	; 0x650e <itoa+0x38>
    650a:	5d e2       	ldi	r21, 0x2D	; 45
    650c:	51 93       	st	Z+, r21
    650e:	10 82       	st	Z, r1
    6510:	c9 01       	movw	r24, r18
    6512:	81 c0       	rjmp	.+258    	; 0x6616 <strrev>

00006514 <ltoa>:
    6514:	fa 01       	movw	r30, r20
    6516:	cf 93       	push	r28
    6518:	ff 93       	push	r31
    651a:	ef 93       	push	r30
    651c:	22 30       	cpi	r18, 0x02	; 2
    651e:	3c f1       	brlt	.+78     	; 0x656e <ltoa+0x5a>
    6520:	25 32       	cpi	r18, 0x25	; 37
    6522:	2c f5       	brge	.+74     	; 0x656e <ltoa+0x5a>
    6524:	c2 2f       	mov	r28, r18
    6526:	e8 94       	clt
    6528:	ca 30       	cpi	r28, 0x0A	; 10
    652a:	49 f4       	brne	.+18     	; 0x653e <ltoa+0x2a>
    652c:	97 fb       	bst	r25, 7
    652e:	3e f4       	brtc	.+14     	; 0x653e <ltoa+0x2a>
    6530:	90 95       	com	r25
    6532:	80 95       	com	r24
    6534:	70 95       	com	r23
    6536:	61 95       	neg	r22
    6538:	7f 4f       	sbci	r23, 0xFF	; 255
    653a:	8f 4f       	sbci	r24, 0xFF	; 255
    653c:	9f 4f       	sbci	r25, 0xFF	; 255
    653e:	2c 2f       	mov	r18, r28
    6540:	33 27       	eor	r19, r19
    6542:	44 27       	eor	r20, r20
    6544:	55 27       	eor	r21, r21
    6546:	ff 93       	push	r31
    6548:	ef 93       	push	r30
    654a:	2d de       	rcall	.-934    	; 0x61a6 <__udivmodsi4>
    654c:	ef 91       	pop	r30
    654e:	ff 91       	pop	r31
    6550:	60 5d       	subi	r22, 0xD0	; 208
    6552:	6a 33       	cpi	r22, 0x3A	; 58
    6554:	0c f0       	brlt	.+2      	; 0x6558 <ltoa+0x44>
    6556:	69 5d       	subi	r22, 0xD9	; 217
    6558:	61 93       	st	Z+, r22
    655a:	b9 01       	movw	r22, r18
    655c:	ca 01       	movw	r24, r20
    655e:	60 50       	subi	r22, 0x00	; 0
    6560:	70 40       	sbci	r23, 0x00	; 0
    6562:	80 40       	sbci	r24, 0x00	; 0
    6564:	90 40       	sbci	r25, 0x00	; 0
    6566:	59 f7       	brne	.-42     	; 0x653e <ltoa+0x2a>
    6568:	16 f4       	brtc	.+4      	; 0x656e <ltoa+0x5a>
    656a:	cd e2       	ldi	r28, 0x2D	; 45
    656c:	c1 93       	st	Z+, r28
    656e:	10 82       	st	Z, r1
    6570:	8f 91       	pop	r24
    6572:	9f 91       	pop	r25
    6574:	cf 91       	pop	r28
    6576:	4f c0       	rjmp	.+158    	; 0x6616 <strrev>

00006578 <__mulsi_const_10>:
    6578:	59 2f       	mov	r21, r25
    657a:	48 2f       	mov	r20, r24
    657c:	37 2f       	mov	r19, r23
    657e:	26 2f       	mov	r18, r22
    6580:	66 0f       	add	r22, r22
    6582:	77 1f       	adc	r23, r23
    6584:	88 1f       	adc	r24, r24
    6586:	99 1f       	adc	r25, r25
    6588:	66 0f       	add	r22, r22
    658a:	77 1f       	adc	r23, r23
    658c:	88 1f       	adc	r24, r24
    658e:	99 1f       	adc	r25, r25
    6590:	62 0f       	add	r22, r18
    6592:	73 1f       	adc	r23, r19
    6594:	84 1f       	adc	r24, r20
    6596:	95 1f       	adc	r25, r21
    6598:	66 0f       	add	r22, r22
    659a:	77 1f       	adc	r23, r23
    659c:	88 1f       	adc	r24, r24
    659e:	99 1f       	adc	r25, r25
    65a0:	08 95       	ret

000065a2 <ultoa>:
    65a2:	fa 01       	movw	r30, r20
    65a4:	cf 93       	push	r28
    65a6:	ff 93       	push	r31
    65a8:	ef 93       	push	r30
    65aa:	22 30       	cpi	r18, 0x02	; 2
    65ac:	c4 f0       	brlt	.+48     	; 0x65de <ultoa+0x3c>
    65ae:	25 32       	cpi	r18, 0x25	; 37
    65b0:	b4 f4       	brge	.+44     	; 0x65de <ultoa+0x3c>
    65b2:	c2 2f       	mov	r28, r18
    65b4:	2c 2f       	mov	r18, r28
    65b6:	33 27       	eor	r19, r19
    65b8:	44 27       	eor	r20, r20
    65ba:	55 27       	eor	r21, r21
    65bc:	ff 93       	push	r31
    65be:	ef 93       	push	r30
    65c0:	f2 dd       	rcall	.-1052   	; 0x61a6 <__udivmodsi4>
    65c2:	ef 91       	pop	r30
    65c4:	ff 91       	pop	r31
    65c6:	60 5d       	subi	r22, 0xD0	; 208
    65c8:	6a 33       	cpi	r22, 0x3A	; 58
    65ca:	0c f0       	brlt	.+2      	; 0x65ce <ultoa+0x2c>
    65cc:	69 5d       	subi	r22, 0xD9	; 217
    65ce:	61 93       	st	Z+, r22
    65d0:	b9 01       	movw	r22, r18
    65d2:	ca 01       	movw	r24, r20
    65d4:	60 50       	subi	r22, 0x00	; 0
    65d6:	70 40       	sbci	r23, 0x00	; 0
    65d8:	80 40       	sbci	r24, 0x00	; 0
    65da:	90 40       	sbci	r25, 0x00	; 0
    65dc:	59 f7       	brne	.-42     	; 0x65b4 <ultoa+0x12>
    65de:	10 82       	st	Z, r1
    65e0:	8f 91       	pop	r24
    65e2:	9f 91       	pop	r25
    65e4:	cf 91       	pop	r28
    65e6:	17 c0       	rjmp	.+46     	; 0x6616 <strrev>

000065e8 <utoa>:
    65e8:	fb 01       	movw	r30, r22
    65ea:	9f 01       	movw	r18, r30
    65ec:	42 30       	cpi	r20, 0x02	; 2
    65ee:	6c f0       	brlt	.+26     	; 0x660a <utoa+0x22>
    65f0:	45 32       	cpi	r20, 0x25	; 37
    65f2:	5c f4       	brge	.+22     	; 0x660a <utoa+0x22>
    65f4:	64 2f       	mov	r22, r20
    65f6:	77 27       	eor	r23, r23
    65f8:	af dd       	rcall	.-1186   	; 0x6158 <__udivmodhi4>
    65fa:	80 5d       	subi	r24, 0xD0	; 208
    65fc:	8a 33       	cpi	r24, 0x3A	; 58
    65fe:	0c f0       	brlt	.+2      	; 0x6602 <utoa+0x1a>
    6600:	89 5d       	subi	r24, 0xD9	; 217
    6602:	81 93       	st	Z+, r24
    6604:	cb 01       	movw	r24, r22
    6606:	00 97       	sbiw	r24, 0x00	; 0
    6608:	a9 f7       	brne	.-22     	; 0x65f4 <utoa+0xc>
    660a:	10 82       	st	Z, r1
    660c:	c9 01       	movw	r24, r18
    660e:	03 c0       	rjmp	.+6      	; 0x6616 <strrev>

00006610 <__ctype_isfalse>:
    6610:	99 27       	eor	r25, r25
    6612:	88 27       	eor	r24, r24

00006614 <__ctype_istrue>:
    6614:	08 95       	ret

00006616 <strrev>:
    6616:	dc 01       	movw	r26, r24
    6618:	fc 01       	movw	r30, r24
    661a:	67 2f       	mov	r22, r23
    661c:	71 91       	ld	r23, Z+
    661e:	77 23       	and	r23, r23
    6620:	e1 f7       	brne	.-8      	; 0x661a <strrev+0x4>
    6622:	32 97       	sbiw	r30, 0x02	; 2
    6624:	04 c0       	rjmp	.+8      	; 0x662e <strrev+0x18>
    6626:	7c 91       	ld	r23, X
    6628:	6d 93       	st	X+, r22
    662a:	70 83       	st	Z, r23
    662c:	62 91       	ld	r22, -Z
    662e:	ae 17       	cp	r26, r30
    6630:	bf 07       	cpc	r27, r31
    6632:	c8 f3       	brcs	.-14     	; 0x6626 <strrev+0x10>
    6634:	08 95       	ret

00006636 <__mulsi3>:
    6636:	db 01       	movw	r26, r22
    6638:	8f 93       	push	r24
    663a:	9f 93       	push	r25
    663c:	d6 dd       	rcall	.-1108   	; 0x61ea <__muluhisi3>
    663e:	bf 91       	pop	r27
    6640:	af 91       	pop	r26
    6642:	a2 9f       	mul	r26, r18
    6644:	80 0d       	add	r24, r0
    6646:	91 1d       	adc	r25, r1
    6648:	a3 9f       	mul	r26, r19
    664a:	90 0d       	add	r25, r0
    664c:	b2 9f       	mul	r27, r18
    664e:	90 0d       	add	r25, r0
    6650:	11 24       	eor	r1, r1
    6652:	08 95       	ret

00006654 <__prologue_saves__>:
    6654:	2f 92       	push	r2
    6656:	3f 92       	push	r3
    6658:	4f 92       	push	r4
    665a:	5f 92       	push	r5
    665c:	6f 92       	push	r6
    665e:	7f 92       	push	r7
    6660:	8f 92       	push	r8
    6662:	9f 92       	push	r9
    6664:	af 92       	push	r10
    6666:	bf 92       	push	r11
    6668:	cf 92       	push	r12
    666a:	df 92       	push	r13
    666c:	ef 92       	push	r14
    666e:	ff 92       	push	r15
    6670:	0f 93       	push	r16
    6672:	1f 93       	push	r17
    6674:	cf 93       	push	r28
    6676:	df 93       	push	r29
    6678:	cd b7       	in	r28, 0x3d	; 61
    667a:	de b7       	in	r29, 0x3e	; 62
    667c:	ca 1b       	sub	r28, r26
    667e:	db 0b       	sbc	r29, r27
    6680:	cd bf       	out	0x3d, r28	; 61
    6682:	de bf       	out	0x3e, r29	; 62
    6684:	09 94       	ijmp

00006686 <__epilogue_restores__>:
    6686:	2a 88       	ldd	r2, Y+18	; 0x12
    6688:	39 88       	ldd	r3, Y+17	; 0x11
    668a:	48 88       	ldd	r4, Y+16	; 0x10
    668c:	5f 84       	ldd	r5, Y+15	; 0x0f
    668e:	6e 84       	ldd	r6, Y+14	; 0x0e
    6690:	7d 84       	ldd	r7, Y+13	; 0x0d
    6692:	8c 84       	ldd	r8, Y+12	; 0x0c
    6694:	9b 84       	ldd	r9, Y+11	; 0x0b
    6696:	aa 84       	ldd	r10, Y+10	; 0x0a
    6698:	b9 84       	ldd	r11, Y+9	; 0x09
    669a:	c8 84       	ldd	r12, Y+8	; 0x08
    669c:	df 80       	ldd	r13, Y+7	; 0x07
    669e:	ee 80       	ldd	r14, Y+6	; 0x06
    66a0:	fd 80       	ldd	r15, Y+5	; 0x05
    66a2:	0c 81       	ldd	r16, Y+4	; 0x04
    66a4:	1b 81       	ldd	r17, Y+3	; 0x03
    66a6:	aa 81       	ldd	r26, Y+2	; 0x02
    66a8:	b9 81       	ldd	r27, Y+1	; 0x01
    66aa:	ce 0f       	add	r28, r30
    66ac:	d1 1d       	adc	r29, r1
    66ae:	cd bf       	out	0x3d, r28	; 61
    66b0:	de bf       	out	0x3e, r29	; 62
    66b2:	ed 01       	movw	r28, r26
    66b4:	08 95       	ret

000066b6 <_exit>:
    66b6:	f8 94       	cli

000066b8 <__stop_program>:
    66b8:	ff cf       	rjmp	.-2      	; 0x66b8 <__stop_program>
